
project.elf:     file format elf32-avr

Sections:
Idx Name          Size      VMA       LMA       File off  Algn
  0 .text         000061b2  00000000  00000000  00000094  2**1
                  CONTENTS, ALLOC, LOAD, READONLY, CODE
  1 .data         000000d6  00800060  000061b2  00006246  2**0
                  CONTENTS, ALLOC, LOAD, DATA
  2 .bss          0000000b  00800136  00800136  0000631c  2**0
                  ALLOC
  3 .stab         00005010  00000000  00000000  0000631c  2**2
                  CONTENTS, READONLY, DEBUGGING
  4 .stabstr      00000d70  00000000  00000000  0000b32c  2**0
                  CONTENTS, READONLY, DEBUGGING
  5 .comment      00000012  00000000  00000000  0000c09c  2**0
                  CONTENTS, READONLY
  6 .note.gnu.avr.deviceinfo 0000003c  00000000  00000000  0000c0b0  2**2
                  CONTENTS, READONLY, OCTETS
  7 .debug_info   000004e6  00000000  00000000  0000c0ec  2**0
                  CONTENTS, READONLY, DEBUGGING, OCTETS
  8 .debug_abbrev 000004a3  00000000  00000000  0000c5d2  2**0
                  CONTENTS, READONLY, DEBUGGING, OCTETS
  9 .debug_line   0000001d  00000000  00000000  0000ca75  2**0
                  CONTENTS, READONLY, DEBUGGING, OCTETS
 10 .debug_str    00000196  00000000  00000000  0000ca92  2**0
                  CONTENTS, READONLY, DEBUGGING, OCTETS

Disassembly of section .text:

00000000 <__vectors>:
       0:	0c 94 2a 00 	jmp	0x54	; 0x54 <__ctors_end>
       4:	0c 94 be 00 	jmp	0x17c	; 0x17c <__vector_1>
       8:	0c 94 f3 00 	jmp	0x1e6	; 0x1e6 <__vector_2>
       c:	0c 94 28 01 	jmp	0x250	; 0x250 <__vector_3>
      10:	0c 94 47 00 	jmp	0x8e	; 0x8e <__bad_interrupt>
      14:	0c 94 47 00 	jmp	0x8e	; 0x8e <__bad_interrupt>
      18:	0c 94 47 00 	jmp	0x8e	; 0x8e <__bad_interrupt>
      1c:	0c 94 47 00 	jmp	0x8e	; 0x8e <__bad_interrupt>
      20:	0c 94 47 00 	jmp	0x8e	; 0x8e <__bad_interrupt>
      24:	0c 94 47 00 	jmp	0x8e	; 0x8e <__bad_interrupt>
      28:	0c 94 47 00 	jmp	0x8e	; 0x8e <__bad_interrupt>
      2c:	0c 94 47 00 	jmp	0x8e	; 0x8e <__bad_interrupt>
      30:	0c 94 47 00 	jmp	0x8e	; 0x8e <__bad_interrupt>
      34:	0c 94 47 00 	jmp	0x8e	; 0x8e <__bad_interrupt>
      38:	0c 94 47 00 	jmp	0x8e	; 0x8e <__bad_interrupt>
      3c:	0c 94 47 00 	jmp	0x8e	; 0x8e <__bad_interrupt>
      40:	0c 94 47 00 	jmp	0x8e	; 0x8e <__bad_interrupt>
      44:	0c 94 47 00 	jmp	0x8e	; 0x8e <__bad_interrupt>
      48:	0c 94 47 00 	jmp	0x8e	; 0x8e <__bad_interrupt>
      4c:	0c 94 47 00 	jmp	0x8e	; 0x8e <__bad_interrupt>
      50:	0c 94 47 00 	jmp	0x8e	; 0x8e <__bad_interrupt>

00000054 <__ctors_end>:
      54:	11 24       	eor	r1, r1
      56:	1f be       	out	0x3f, r1	; 63
      58:	cf e5       	ldi	r28, 0x5F	; 95
      5a:	d8 e0       	ldi	r29, 0x08	; 8
      5c:	de bf       	out	0x3e, r29	; 62
      5e:	cd bf       	out	0x3d, r28	; 61

00000060 <__do_copy_data>:
      60:	11 e0       	ldi	r17, 0x01	; 1
      62:	a0 e6       	ldi	r26, 0x60	; 96
      64:	b0 e0       	ldi	r27, 0x00	; 0
      66:	e2 eb       	ldi	r30, 0xB2	; 178
      68:	f1 e6       	ldi	r31, 0x61	; 97
      6a:	02 c0       	rjmp	.+4      	; 0x70 <__do_copy_data+0x10>
      6c:	05 90       	lpm	r0, Z+
      6e:	0d 92       	st	X+, r0
      70:	a6 33       	cpi	r26, 0x36	; 54
      72:	b1 07       	cpc	r27, r17
      74:	d9 f7       	brne	.-10     	; 0x6c <__do_copy_data+0xc>

00000076 <__do_clear_bss>:
      76:	21 e0       	ldi	r18, 0x01	; 1
      78:	a6 e3       	ldi	r26, 0x36	; 54
      7a:	b1 e0       	ldi	r27, 0x01	; 1
      7c:	01 c0       	rjmp	.+2      	; 0x80 <.do_clear_bss_start>

0000007e <.do_clear_bss_loop>:
      7e:	1d 92       	st	X+, r1

00000080 <.do_clear_bss_start>:
      80:	a1 34       	cpi	r26, 0x41	; 65
      82:	b2 07       	cpc	r27, r18
      84:	e1 f7       	brne	.-8      	; 0x7e <.do_clear_bss_loop>
      86:	0e 94 87 1d 	call	0x3b0e	; 0x3b0e <main>
      8a:	0c 94 ca 30 	jmp	0x6194	; 0x6194 <_exit>

0000008e <__bad_interrupt>:
      8e:	0c 94 00 00 	jmp	0	; 0x0 <__vectors>

00000092 <GIE_Enable>:
      92:	cf 93       	push	r28
      94:	df 93       	push	r29
      96:	cd b7       	in	r28, 0x3d	; 61
      98:	de b7       	in	r29, 0x3e	; 62

0000009a <.LM1>:
      9a:	8f e5       	ldi	r24, 0x5F	; 95
      9c:	90 e0       	ldi	r25, 0x00	; 0
      9e:	fc 01       	movw	r30, r24
      a0:	20 81       	ld	r18, Z
      a2:	8f e5       	ldi	r24, 0x5F	; 95
      a4:	90 e0       	ldi	r25, 0x00	; 0
      a6:	20 68       	ori	r18, 0x80	; 128
      a8:	fc 01       	movw	r30, r24
      aa:	20 83       	st	Z, r18

000000ac <.LM2>:
      ac:	00 00       	nop
      ae:	df 91       	pop	r29
      b0:	cf 91       	pop	r28
      b2:	08 95       	ret

000000b4 <GIE_Disable>:
      b4:	cf 93       	push	r28
      b6:	df 93       	push	r29
      b8:	cd b7       	in	r28, 0x3d	; 61
      ba:	de b7       	in	r29, 0x3e	; 62

000000bc <.LM4>:
      bc:	8f e5       	ldi	r24, 0x5F	; 95
      be:	90 e0       	ldi	r25, 0x00	; 0
      c0:	fc 01       	movw	r30, r24
      c2:	20 81       	ld	r18, Z
      c4:	8f e5       	ldi	r24, 0x5F	; 95
      c6:	90 e0       	ldi	r25, 0x00	; 0
      c8:	2f 77       	andi	r18, 0x7F	; 127
      ca:	fc 01       	movw	r30, r24
      cc:	20 83       	st	Z, r18

000000ce <.LM5>:
      ce:	00 00       	nop
      d0:	df 91       	pop	r29
      d2:	cf 91       	pop	r28
      d4:	08 95       	ret

000000d6 <EXTI_INT0_Init>:
      d6:	cf 93       	push	r28
      d8:	df 93       	push	r29
      da:	cd b7       	in	r28, 0x3d	; 61
      dc:	de b7       	in	r29, 0x3e	; 62

000000de <.LM1>:
      de:	8b e5       	ldi	r24, 0x5B	; 91
      e0:	90 e0       	ldi	r25, 0x00	; 0
      e2:	fc 01       	movw	r30, r24
      e4:	20 81       	ld	r18, Z
      e6:	8b e5       	ldi	r24, 0x5B	; 91
      e8:	90 e0       	ldi	r25, 0x00	; 0
      ea:	2f 7b       	andi	r18, 0xBF	; 191
      ec:	fc 01       	movw	r30, r24
      ee:	20 83       	st	Z, r18

000000f0 <.LM2>:
      f0:	00 00       	nop
      f2:	df 91       	pop	r29
      f4:	cf 91       	pop	r28
      f6:	08 95       	ret

000000f8 <EXTI_INT1_Init>:
      f8:	cf 93       	push	r28
      fa:	df 93       	push	r29
      fc:	cd b7       	in	r28, 0x3d	; 61
      fe:	de b7       	in	r29, 0x3e	; 62

00000100 <.LM4>:
     100:	8b e5       	ldi	r24, 0x5B	; 91
     102:	90 e0       	ldi	r25, 0x00	; 0
     104:	fc 01       	movw	r30, r24
     106:	20 81       	ld	r18, Z
     108:	8b e5       	ldi	r24, 0x5B	; 91
     10a:	90 e0       	ldi	r25, 0x00	; 0
     10c:	2f 77       	andi	r18, 0x7F	; 127
     10e:	fc 01       	movw	r30, r24
     110:	20 83       	st	Z, r18

00000112 <.LM5>:
     112:	00 00       	nop
     114:	df 91       	pop	r29
     116:	cf 91       	pop	r28
     118:	08 95       	ret

0000011a <EXTI_INT2_Init>:
     11a:	cf 93       	push	r28
     11c:	df 93       	push	r29
     11e:	cd b7       	in	r28, 0x3d	; 61
     120:	de b7       	in	r29, 0x3e	; 62

00000122 <.LM7>:
     122:	8b e5       	ldi	r24, 0x5B	; 91
     124:	90 e0       	ldi	r25, 0x00	; 0
     126:	fc 01       	movw	r30, r24
     128:	20 81       	ld	r18, Z
     12a:	8b e5       	ldi	r24, 0x5B	; 91
     12c:	90 e0       	ldi	r25, 0x00	; 0
     12e:	2f 7d       	andi	r18, 0xDF	; 223
     130:	fc 01       	movw	r30, r24
     132:	20 83       	st	Z, r18

00000134 <.LM8>:
     134:	00 00       	nop
     136:	df 91       	pop	r29
     138:	cf 91       	pop	r28
     13a:	08 95       	ret

0000013c <EXTI_CallBackFunction>:
     13c:	cf 93       	push	r28
     13e:	df 93       	push	r29
     140:	00 d0       	rcall	.+0      	; 0x142 <L0^A>

00000142 <L0^A>:
     142:	0f 92       	push	r0
     144:	cd b7       	in	r28, 0x3d	; 61
     146:	de b7       	in	r29, 0x3e	; 62
     148:	9a 83       	std	Y+2, r25	; 0x02
     14a:	89 83       	std	Y+1, r24	; 0x01
     14c:	6b 83       	std	Y+3, r22	; 0x03

0000014e <.LM10>:
     14e:	89 81       	ldd	r24, Y+1	; 0x01
     150:	9a 81       	ldd	r25, Y+2	; 0x02
     152:	00 97       	sbiw	r24, 0x00	; 0
     154:	61 f0       	breq	.+24     	; 0x16e <.L6>

00000156 <.LM11>:
     156:	8b 81       	ldd	r24, Y+3	; 0x03
     158:	88 2f       	mov	r24, r24
     15a:	90 e0       	ldi	r25, 0x00	; 0

0000015c <.LM12>:
     15c:	88 0f       	add	r24, r24
     15e:	99 1f       	adc	r25, r25
     160:	8a 5c       	subi	r24, 0xCA	; 202
     162:	9e 4f       	sbci	r25, 0xFE	; 254
     164:	29 81       	ldd	r18, Y+1	; 0x01
     166:	3a 81       	ldd	r19, Y+2	; 0x02
     168:	fc 01       	movw	r30, r24
     16a:	31 83       	std	Z+1, r19	; 0x01
     16c:	20 83       	st	Z, r18

0000016e <.L6>:
     16e:	00 00       	nop
     170:	0f 90       	pop	r0
     172:	0f 90       	pop	r0
     174:	0f 90       	pop	r0
     176:	df 91       	pop	r29
     178:	cf 91       	pop	r28
     17a:	08 95       	ret

0000017c <__vector_1>:
     17c:	1f 92       	push	r1
     17e:	0f 92       	push	r0
     180:	0f b6       	in	r0, 0x3f	; 63
     182:	0f 92       	push	r0
     184:	11 24       	eor	r1, r1
     186:	2f 93       	push	r18
     188:	3f 93       	push	r19
     18a:	4f 93       	push	r20
     18c:	5f 93       	push	r21
     18e:	6f 93       	push	r22
     190:	7f 93       	push	r23
     192:	8f 93       	push	r24
     194:	9f 93       	push	r25
     196:	af 93       	push	r26
     198:	bf 93       	push	r27
     19a:	ef 93       	push	r30
     19c:	ff 93       	push	r31
     19e:	cf 93       	push	r28
     1a0:	df 93       	push	r29
     1a2:	cd b7       	in	r28, 0x3d	; 61
     1a4:	de b7       	in	r29, 0x3e	; 62

000001a6 <.LM15>:
     1a6:	80 91 36 01 	lds	r24, 0x0136	; 0x800136 <INT_CallBack>
     1aa:	90 91 37 01 	lds	r25, 0x0137	; 0x800137 <INT_CallBack+0x1>

000001ae <.LM16>:
     1ae:	00 97       	sbiw	r24, 0x00	; 0
     1b0:	31 f0       	breq	.+12     	; 0x1be <.L9>

000001b2 <.LM17>:
     1b2:	80 91 36 01 	lds	r24, 0x0136	; 0x800136 <INT_CallBack>
     1b6:	90 91 37 01 	lds	r25, 0x0137	; 0x800137 <INT_CallBack+0x1>

000001ba <.LM18>:
     1ba:	fc 01       	movw	r30, r24
     1bc:	09 95       	icall

000001be <.L9>:
     1be:	00 00       	nop
     1c0:	df 91       	pop	r29
     1c2:	cf 91       	pop	r28
     1c4:	ff 91       	pop	r31
     1c6:	ef 91       	pop	r30
     1c8:	bf 91       	pop	r27
     1ca:	af 91       	pop	r26
     1cc:	9f 91       	pop	r25
     1ce:	8f 91       	pop	r24
     1d0:	7f 91       	pop	r23
     1d2:	6f 91       	pop	r22
     1d4:	5f 91       	pop	r21
     1d6:	4f 91       	pop	r20
     1d8:	3f 91       	pop	r19
     1da:	2f 91       	pop	r18
     1dc:	0f 90       	pop	r0
     1de:	0f be       	out	0x3f, r0	; 63
     1e0:	0f 90       	pop	r0
     1e2:	1f 90       	pop	r1
     1e4:	18 95       	reti

000001e6 <__vector_2>:
     1e6:	1f 92       	push	r1
     1e8:	0f 92       	push	r0
     1ea:	0f b6       	in	r0, 0x3f	; 63
     1ec:	0f 92       	push	r0
     1ee:	11 24       	eor	r1, r1
     1f0:	2f 93       	push	r18
     1f2:	3f 93       	push	r19
     1f4:	4f 93       	push	r20
     1f6:	5f 93       	push	r21
     1f8:	6f 93       	push	r22
     1fa:	7f 93       	push	r23
     1fc:	8f 93       	push	r24
     1fe:	9f 93       	push	r25
     200:	af 93       	push	r26
     202:	bf 93       	push	r27
     204:	ef 93       	push	r30
     206:	ff 93       	push	r31
     208:	cf 93       	push	r28
     20a:	df 93       	push	r29
     20c:	cd b7       	in	r28, 0x3d	; 61
     20e:	de b7       	in	r29, 0x3e	; 62

00000210 <.LM21>:
     210:	80 91 38 01 	lds	r24, 0x0138	; 0x800138 <INT_CallBack+0x2>
     214:	90 91 39 01 	lds	r25, 0x0139	; 0x800139 <INT_CallBack+0x3>

00000218 <.LM22>:
     218:	00 97       	sbiw	r24, 0x00	; 0
     21a:	31 f0       	breq	.+12     	; 0x228 <.L12>

0000021c <.LM23>:
     21c:	80 91 38 01 	lds	r24, 0x0138	; 0x800138 <INT_CallBack+0x2>
     220:	90 91 39 01 	lds	r25, 0x0139	; 0x800139 <INT_CallBack+0x3>

00000224 <.LM24>:
     224:	fc 01       	movw	r30, r24
     226:	09 95       	icall

00000228 <.L12>:
     228:	00 00       	nop
     22a:	df 91       	pop	r29
     22c:	cf 91       	pop	r28
     22e:	ff 91       	pop	r31
     230:	ef 91       	pop	r30
     232:	bf 91       	pop	r27
     234:	af 91       	pop	r26
     236:	9f 91       	pop	r25
     238:	8f 91       	pop	r24
     23a:	7f 91       	pop	r23
     23c:	6f 91       	pop	r22
     23e:	5f 91       	pop	r21
     240:	4f 91       	pop	r20
     242:	3f 91       	pop	r19
     244:	2f 91       	pop	r18
     246:	0f 90       	pop	r0
     248:	0f be       	out	0x3f, r0	; 63
     24a:	0f 90       	pop	r0
     24c:	1f 90       	pop	r1
     24e:	18 95       	reti

00000250 <__vector_3>:
     250:	1f 92       	push	r1
     252:	0f 92       	push	r0
     254:	0f b6       	in	r0, 0x3f	; 63
     256:	0f 92       	push	r0
     258:	11 24       	eor	r1, r1
     25a:	2f 93       	push	r18
     25c:	3f 93       	push	r19
     25e:	4f 93       	push	r20
     260:	5f 93       	push	r21
     262:	6f 93       	push	r22
     264:	7f 93       	push	r23
     266:	8f 93       	push	r24
     268:	9f 93       	push	r25
     26a:	af 93       	push	r26
     26c:	bf 93       	push	r27
     26e:	ef 93       	push	r30
     270:	ff 93       	push	r31
     272:	cf 93       	push	r28
     274:	df 93       	push	r29
     276:	cd b7       	in	r28, 0x3d	; 61
     278:	de b7       	in	r29, 0x3e	; 62

0000027a <.LM27>:
     27a:	80 91 3a 01 	lds	r24, 0x013A	; 0x80013a <INT_CallBack+0x4>
     27e:	90 91 3b 01 	lds	r25, 0x013B	; 0x80013b <INT_CallBack+0x5>

00000282 <.LM28>:
     282:	00 97       	sbiw	r24, 0x00	; 0
     284:	31 f0       	breq	.+12     	; 0x292 <.L15>

00000286 <.LM29>:
     286:	80 91 3a 01 	lds	r24, 0x013A	; 0x80013a <INT_CallBack+0x4>
     28a:	90 91 3b 01 	lds	r25, 0x013B	; 0x80013b <INT_CallBack+0x5>

0000028e <.LM30>:
     28e:	fc 01       	movw	r30, r24
     290:	09 95       	icall

00000292 <.L15>:
     292:	00 00       	nop
     294:	df 91       	pop	r29
     296:	cf 91       	pop	r28
     298:	ff 91       	pop	r31
     29a:	ef 91       	pop	r30
     29c:	bf 91       	pop	r27
     29e:	af 91       	pop	r26
     2a0:	9f 91       	pop	r25
     2a2:	8f 91       	pop	r24
     2a4:	7f 91       	pop	r23
     2a6:	6f 91       	pop	r22
     2a8:	5f 91       	pop	r21
     2aa:	4f 91       	pop	r20
     2ac:	3f 91       	pop	r19
     2ae:	2f 91       	pop	r18
     2b0:	0f 90       	pop	r0
     2b2:	0f be       	out	0x3f, r0	; 63
     2b4:	0f 90       	pop	r0
     2b6:	1f 90       	pop	r1
     2b8:	18 95       	reti

000002ba <EXTI_Disable_INT>:
     2ba:	cf 93       	push	r28
     2bc:	df 93       	push	r29
     2be:	0f 92       	push	r0
     2c0:	cd b7       	in	r28, 0x3d	; 61
     2c2:	de b7       	in	r29, 0x3e	; 62
     2c4:	89 83       	std	Y+1, r24	; 0x01

000002c6 <.LM33>:
     2c6:	89 81       	ldd	r24, Y+1	; 0x01
     2c8:	88 2f       	mov	r24, r24
     2ca:	90 e0       	ldi	r25, 0x00	; 0
     2cc:	82 30       	cpi	r24, 0x02	; 2
     2ce:	91 05       	cpc	r25, r1
     2d0:	f1 f0       	breq	.+60     	; 0x30e <.L17>
     2d2:	82 30       	cpi	r24, 0x02	; 2
     2d4:	91 05       	cpc	r25, r1
     2d6:	09 f0       	breq	.+2      	; 0x2da <L0^A+0x2>

000002d8 <L0^A>:
     2d8:	24 f5       	brge	.+72     	; 0x322 <.L18>
     2da:	00 97       	sbiw	r24, 0x00	; 0
     2dc:	21 f0       	breq	.+8      	; 0x2e6 <.L19>
     2de:	81 30       	cpi	r24, 0x01	; 1
     2e0:	91 05       	cpc	r25, r1
     2e2:	59 f0       	breq	.+22     	; 0x2fa <.L20>

000002e4 <.LM34>:
     2e4:	1e c0       	rjmp	.+60     	; 0x322 <.L18>

000002e6 <.L19>:
     2e6:	8b e5       	ldi	r24, 0x5B	; 91
     2e8:	90 e0       	ldi	r25, 0x00	; 0
     2ea:	fc 01       	movw	r30, r24
     2ec:	20 81       	ld	r18, Z
     2ee:	8b e5       	ldi	r24, 0x5B	; 91
     2f0:	90 e0       	ldi	r25, 0x00	; 0
     2f2:	2f 7b       	andi	r18, 0xBF	; 191
     2f4:	fc 01       	movw	r30, r24
     2f6:	20 83       	st	Z, r18

000002f8 <.LM36>:
     2f8:	14 c0       	rjmp	.+40     	; 0x322 <.L18>

000002fa <.L20>:
     2fa:	8b e5       	ldi	r24, 0x5B	; 91
     2fc:	90 e0       	ldi	r25, 0x00	; 0
     2fe:	fc 01       	movw	r30, r24
     300:	20 81       	ld	r18, Z
     302:	8b e5       	ldi	r24, 0x5B	; 91
     304:	90 e0       	ldi	r25, 0x00	; 0
     306:	2f 77       	andi	r18, 0x7F	; 127
     308:	fc 01       	movw	r30, r24
     30a:	20 83       	st	Z, r18

0000030c <.LM38>:
     30c:	0a c0       	rjmp	.+20     	; 0x322 <.L18>

0000030e <.L17>:
     30e:	8b e5       	ldi	r24, 0x5B	; 91
     310:	90 e0       	ldi	r25, 0x00	; 0
     312:	fc 01       	movw	r30, r24
     314:	20 81       	ld	r18, Z
     316:	8b e5       	ldi	r24, 0x5B	; 91
     318:	90 e0       	ldi	r25, 0x00	; 0
     31a:	2f 7d       	andi	r18, 0xDF	; 223
     31c:	fc 01       	movw	r30, r24
     31e:	20 83       	st	Z, r18

00000320 <.LM40>:
	...

00000322 <.L18>:
     322:	00 00       	nop
     324:	0f 90       	pop	r0
     326:	df 91       	pop	r29
     328:	cf 91       	pop	r28
     32a:	08 95       	ret

0000032c <EXTI_SetTrigger>:
     32c:	cf 93       	push	r28
     32e:	df 93       	push	r29
     330:	0f 92       	push	r0
     332:	cd b7       	in	r28, 0x3d	; 61
     334:	de b7       	in	r29, 0x3e	; 62
     336:	89 83       	std	Y+1, r24	; 0x01

00000338 <.LM43>:
     338:	89 81       	ldd	r24, Y+1	; 0x01
     33a:	88 2f       	mov	r24, r24
     33c:	90 e0       	ldi	r25, 0x00	; 0
     33e:	84 30       	cpi	r24, 0x04	; 4
     340:	91 05       	cpc	r25, r1
     342:	09 f4       	brne	.+2      	; 0x346 <L0^A+0x2>

00000344 <L0^A>:
     344:	4d c0       	rjmp	.+154    	; 0x3e0 <.L23>
     346:	84 30       	cpi	r24, 0x04	; 4
     348:	91 05       	cpc	r25, r1
     34a:	11 f0       	breq	.+4      	; 0x350 <L0^A+0x2>

0000034c <L0^A>:
     34c:	0c f0       	brlt	.+2      	; 0x350 <L0^A+0x2>

0000034e <L0^A>:
     34e:	5b c0       	rjmp	.+182    	; 0x406 <.L24>
     350:	83 30       	cpi	r24, 0x03	; 3
     352:	91 05       	cpc	r25, r1
     354:	91 f1       	breq	.+100    	; 0x3ba <.L25>
     356:	83 30       	cpi	r24, 0x03	; 3
     358:	91 05       	cpc	r25, r1
     35a:	11 f0       	breq	.+4      	; 0x360 <L0^A+0x2>

0000035c <L0^A>:
     35c:	0c f0       	brlt	.+2      	; 0x360 <L0^A+0x2>

0000035e <L0^A>:
     35e:	53 c0       	rjmp	.+166    	; 0x406 <.L24>
     360:	81 30       	cpi	r24, 0x01	; 1
     362:	91 05       	cpc	r25, r1
     364:	21 f0       	breq	.+8      	; 0x36e <.L26>
     366:	82 30       	cpi	r24, 0x02	; 2
     368:	91 05       	cpc	r25, r1
     36a:	a1 f0       	breq	.+40     	; 0x394 <.L27>

0000036c <.LM44>:
     36c:	4c c0       	rjmp	.+152    	; 0x406 <.L24>

0000036e <.L26>:
     36e:	85 e5       	ldi	r24, 0x55	; 85
     370:	90 e0       	ldi	r25, 0x00	; 0
     372:	fc 01       	movw	r30, r24
     374:	20 81       	ld	r18, Z
     376:	85 e5       	ldi	r24, 0x55	; 85
     378:	90 e0       	ldi	r25, 0x00	; 0
     37a:	2e 7f       	andi	r18, 0xFE	; 254
     37c:	fc 01       	movw	r30, r24
     37e:	20 83       	st	Z, r18

00000380 <.LM46>:
     380:	85 e5       	ldi	r24, 0x55	; 85
     382:	90 e0       	ldi	r25, 0x00	; 0
     384:	fc 01       	movw	r30, r24
     386:	20 81       	ld	r18, Z
     388:	85 e5       	ldi	r24, 0x55	; 85
     38a:	90 e0       	ldi	r25, 0x00	; 0
     38c:	2d 7f       	andi	r18, 0xFD	; 253
     38e:	fc 01       	movw	r30, r24
     390:	20 83       	st	Z, r18

00000392 <.LM47>:
     392:	39 c0       	rjmp	.+114    	; 0x406 <.L24>

00000394 <.L27>:
     394:	85 e5       	ldi	r24, 0x55	; 85
     396:	90 e0       	ldi	r25, 0x00	; 0
     398:	fc 01       	movw	r30, r24
     39a:	20 81       	ld	r18, Z
     39c:	85 e5       	ldi	r24, 0x55	; 85
     39e:	90 e0       	ldi	r25, 0x00	; 0
     3a0:	21 60       	ori	r18, 0x01	; 1
     3a2:	fc 01       	movw	r30, r24
     3a4:	20 83       	st	Z, r18

000003a6 <.LM49>:
     3a6:	85 e5       	ldi	r24, 0x55	; 85
     3a8:	90 e0       	ldi	r25, 0x00	; 0
     3aa:	fc 01       	movw	r30, r24
     3ac:	20 81       	ld	r18, Z
     3ae:	85 e5       	ldi	r24, 0x55	; 85
     3b0:	90 e0       	ldi	r25, 0x00	; 0
     3b2:	2d 7f       	andi	r18, 0xFD	; 253
     3b4:	fc 01       	movw	r30, r24
     3b6:	20 83       	st	Z, r18

000003b8 <.LM50>:
     3b8:	26 c0       	rjmp	.+76     	; 0x406 <.L24>

000003ba <.L25>:
     3ba:	85 e5       	ldi	r24, 0x55	; 85
     3bc:	90 e0       	ldi	r25, 0x00	; 0
     3be:	fc 01       	movw	r30, r24
     3c0:	20 81       	ld	r18, Z
     3c2:	85 e5       	ldi	r24, 0x55	; 85
     3c4:	90 e0       	ldi	r25, 0x00	; 0
     3c6:	2e 7f       	andi	r18, 0xFE	; 254
     3c8:	fc 01       	movw	r30, r24
     3ca:	20 83       	st	Z, r18

000003cc <.LM52>:
     3cc:	85 e5       	ldi	r24, 0x55	; 85
     3ce:	90 e0       	ldi	r25, 0x00	; 0
     3d0:	fc 01       	movw	r30, r24
     3d2:	20 81       	ld	r18, Z
     3d4:	85 e5       	ldi	r24, 0x55	; 85
     3d6:	90 e0       	ldi	r25, 0x00	; 0
     3d8:	22 60       	ori	r18, 0x02	; 2
     3da:	fc 01       	movw	r30, r24
     3dc:	20 83       	st	Z, r18

000003de <.LM53>:
     3de:	13 c0       	rjmp	.+38     	; 0x406 <.L24>

000003e0 <.L23>:
     3e0:	85 e5       	ldi	r24, 0x55	; 85
     3e2:	90 e0       	ldi	r25, 0x00	; 0
     3e4:	fc 01       	movw	r30, r24
     3e6:	20 81       	ld	r18, Z
     3e8:	85 e5       	ldi	r24, 0x55	; 85
     3ea:	90 e0       	ldi	r25, 0x00	; 0
     3ec:	21 60       	ori	r18, 0x01	; 1
     3ee:	fc 01       	movw	r30, r24
     3f0:	20 83       	st	Z, r18

000003f2 <.LM55>:
     3f2:	85 e5       	ldi	r24, 0x55	; 85
     3f4:	90 e0       	ldi	r25, 0x00	; 0
     3f6:	fc 01       	movw	r30, r24
     3f8:	20 81       	ld	r18, Z
     3fa:	85 e5       	ldi	r24, 0x55	; 85
     3fc:	90 e0       	ldi	r25, 0x00	; 0
     3fe:	22 60       	ori	r18, 0x02	; 2
     400:	fc 01       	movw	r30, r24
     402:	20 83       	st	Z, r18

00000404 <.LM56>:
	...

00000406 <.L24>:
     406:	00 00       	nop
     408:	0f 90       	pop	r0
     40a:	df 91       	pop	r29
     40c:	cf 91       	pop	r28
     40e:	08 95       	ret

00000410 <DIO_SetPinDiriction>:
     410:	cf 93       	push	r28
     412:	df 93       	push	r29
     414:	00 d0       	rcall	.+0      	; 0x416 <L0^A>

00000416 <L0^A>:
     416:	0f 92       	push	r0
     418:	cd b7       	in	r28, 0x3d	; 61
     41a:	de b7       	in	r29, 0x3e	; 62
     41c:	89 83       	std	Y+1, r24	; 0x01
     41e:	6a 83       	std	Y+2, r22	; 0x02
     420:	4b 83       	std	Y+3, r20	; 0x03

00000422 <.LM1>:
     422:	89 81       	ldd	r24, Y+1	; 0x01
     424:	88 2f       	mov	r24, r24
     426:	90 e0       	ldi	r25, 0x00	; 0
     428:	83 30       	cpi	r24, 0x03	; 3
     42a:	91 05       	cpc	r25, r1
     42c:	09 f4       	brne	.+2      	; 0x430 <L0^A+0x2>

0000042e <L0^A>:
     42e:	b0 c0       	rjmp	.+352    	; 0x590 <.L2>
     430:	83 30       	cpi	r24, 0x03	; 3
     432:	91 05       	cpc	r25, r1
     434:	11 f0       	breq	.+4      	; 0x43a <L0^A+0x2>

00000436 <L0^A>:
     436:	0c f0       	brlt	.+2      	; 0x43a <L0^A+0x2>

00000438 <L0^A>:
     438:	e5 c0       	rjmp	.+458    	; 0x604 <.L15>
     43a:	82 30       	cpi	r24, 0x02	; 2
     43c:	91 05       	cpc	r25, r1
     43e:	09 f4       	brne	.+2      	; 0x442 <L0^A+0x2>

00000440 <L0^A>:
     440:	73 c0       	rjmp	.+230    	; 0x528 <.L4>
     442:	82 30       	cpi	r24, 0x02	; 2
     444:	91 05       	cpc	r25, r1
     446:	11 f0       	breq	.+4      	; 0x44c <L0^A+0x2>

00000448 <L0^A>:
     448:	0c f0       	brlt	.+2      	; 0x44c <L0^A+0x2>

0000044a <L0^A>:
     44a:	dc c0       	rjmp	.+440    	; 0x604 <.L15>
     44c:	00 97       	sbiw	r24, 0x00	; 0
     44e:	21 f0       	breq	.+8      	; 0x458 <.L5>
     450:	81 30       	cpi	r24, 0x01	; 1
     452:	91 05       	cpc	r25, r1
     454:	a9 f1       	breq	.+106    	; 0x4c0 <.L6>

00000456 <.LM2>:
     456:	d6 c0       	rjmp	.+428    	; 0x604 <.L15>

00000458 <.L5>:
     458:	8b 81       	ldd	r24, Y+3	; 0x03
     45a:	88 23       	and	r24, r24
     45c:	b9 f4       	brne	.+46     	; 0x48c <.L7>

0000045e <.LM4>:
     45e:	8a e3       	ldi	r24, 0x3A	; 58
     460:	90 e0       	ldi	r25, 0x00	; 0
     462:	fc 01       	movw	r30, r24
     464:	80 81       	ld	r24, Z
     466:	48 2f       	mov	r20, r24
     468:	8a 81       	ldd	r24, Y+2	; 0x02
     46a:	28 2f       	mov	r18, r24
     46c:	30 e0       	ldi	r19, 0x00	; 0
     46e:	81 e0       	ldi	r24, 0x01	; 1
     470:	90 e0       	ldi	r25, 0x00	; 0
     472:	02 c0       	rjmp	.+4      	; 0x478 <.L2^B1>

00000474 <.L1^B1>:
     474:	88 0f       	add	r24, r24
     476:	99 1f       	adc	r25, r25

00000478 <.L2^B1>:
     478:	2a 95       	dec	r18
     47a:	e2 f7       	brpl	.-8      	; 0x474 <.L1^B1>
     47c:	80 95       	com	r24
     47e:	24 2f       	mov	r18, r20
     480:	28 23       	and	r18, r24
     482:	8a e3       	ldi	r24, 0x3A	; 58
     484:	90 e0       	ldi	r25, 0x00	; 0
     486:	fc 01       	movw	r30, r24
     488:	20 83       	st	Z, r18

0000048a <.LM5>:
     48a:	b5 c0       	rjmp	.+362    	; 0x5f6 <.L16>

0000048c <.L7>:
     48c:	8b 81       	ldd	r24, Y+3	; 0x03
     48e:	81 30       	cpi	r24, 0x01	; 1
     490:	09 f0       	breq	.+2      	; 0x494 <.LM7>

00000492 <L0^A>:
     492:	b1 c0       	rjmp	.+354    	; 0x5f6 <.L16>

00000494 <.LM7>:
     494:	8a e3       	ldi	r24, 0x3A	; 58
     496:	90 e0       	ldi	r25, 0x00	; 0
     498:	fc 01       	movw	r30, r24
     49a:	80 81       	ld	r24, Z
     49c:	48 2f       	mov	r20, r24
     49e:	8a 81       	ldd	r24, Y+2	; 0x02
     4a0:	28 2f       	mov	r18, r24
     4a2:	30 e0       	ldi	r19, 0x00	; 0
     4a4:	81 e0       	ldi	r24, 0x01	; 1
     4a6:	90 e0       	ldi	r25, 0x00	; 0
     4a8:	02 c0       	rjmp	.+4      	; 0x4ae <.L2^B2>

000004aa <.L1^B2>:
     4aa:	88 0f       	add	r24, r24
     4ac:	99 1f       	adc	r25, r25

000004ae <.L2^B2>:
     4ae:	2a 95       	dec	r18
     4b0:	e2 f7       	brpl	.-8      	; 0x4aa <.L1^B2>
     4b2:	24 2f       	mov	r18, r20
     4b4:	28 2b       	or	r18, r24
     4b6:	8a e3       	ldi	r24, 0x3A	; 58
     4b8:	90 e0       	ldi	r25, 0x00	; 0
     4ba:	fc 01       	movw	r30, r24
     4bc:	20 83       	st	Z, r18

000004be <.LM8>:
     4be:	9b c0       	rjmp	.+310    	; 0x5f6 <.L16>

000004c0 <.L6>:
     4c0:	8b 81       	ldd	r24, Y+3	; 0x03
     4c2:	88 23       	and	r24, r24
     4c4:	b9 f4       	brne	.+46     	; 0x4f4 <.L9>

000004c6 <.LM10>:
     4c6:	87 e3       	ldi	r24, 0x37	; 55
     4c8:	90 e0       	ldi	r25, 0x00	; 0
     4ca:	fc 01       	movw	r30, r24
     4cc:	80 81       	ld	r24, Z
     4ce:	48 2f       	mov	r20, r24
     4d0:	8a 81       	ldd	r24, Y+2	; 0x02
     4d2:	28 2f       	mov	r18, r24
     4d4:	30 e0       	ldi	r19, 0x00	; 0
     4d6:	81 e0       	ldi	r24, 0x01	; 1
     4d8:	90 e0       	ldi	r25, 0x00	; 0
     4da:	02 c0       	rjmp	.+4      	; 0x4e0 <.L2^B3>

000004dc <.L1^B3>:
     4dc:	88 0f       	add	r24, r24
     4de:	99 1f       	adc	r25, r25

000004e0 <.L2^B3>:
     4e0:	2a 95       	dec	r18
     4e2:	e2 f7       	brpl	.-8      	; 0x4dc <.L1^B3>
     4e4:	80 95       	com	r24
     4e6:	24 2f       	mov	r18, r20
     4e8:	28 23       	and	r18, r24
     4ea:	87 e3       	ldi	r24, 0x37	; 55
     4ec:	90 e0       	ldi	r25, 0x00	; 0
     4ee:	fc 01       	movw	r30, r24
     4f0:	20 83       	st	Z, r18

000004f2 <.LM11>:
     4f2:	83 c0       	rjmp	.+262    	; 0x5fa <.L17>

000004f4 <.L9>:
     4f4:	8b 81       	ldd	r24, Y+3	; 0x03
     4f6:	81 30       	cpi	r24, 0x01	; 1
     4f8:	09 f0       	breq	.+2      	; 0x4fc <.LM13>

000004fa <L0^A>:
     4fa:	7f c0       	rjmp	.+254    	; 0x5fa <.L17>

000004fc <.LM13>:
     4fc:	87 e3       	ldi	r24, 0x37	; 55
     4fe:	90 e0       	ldi	r25, 0x00	; 0
     500:	fc 01       	movw	r30, r24
     502:	80 81       	ld	r24, Z
     504:	48 2f       	mov	r20, r24
     506:	8a 81       	ldd	r24, Y+2	; 0x02
     508:	28 2f       	mov	r18, r24
     50a:	30 e0       	ldi	r19, 0x00	; 0
     50c:	81 e0       	ldi	r24, 0x01	; 1
     50e:	90 e0       	ldi	r25, 0x00	; 0
     510:	02 c0       	rjmp	.+4      	; 0x516 <.L2^B4>

00000512 <.L1^B4>:
     512:	88 0f       	add	r24, r24
     514:	99 1f       	adc	r25, r25

00000516 <.L2^B4>:
     516:	2a 95       	dec	r18
     518:	e2 f7       	brpl	.-8      	; 0x512 <.L1^B4>
     51a:	24 2f       	mov	r18, r20
     51c:	28 2b       	or	r18, r24
     51e:	87 e3       	ldi	r24, 0x37	; 55
     520:	90 e0       	ldi	r25, 0x00	; 0
     522:	fc 01       	movw	r30, r24
     524:	20 83       	st	Z, r18

00000526 <.LM14>:
     526:	69 c0       	rjmp	.+210    	; 0x5fa <.L17>

00000528 <.L4>:
     528:	8b 81       	ldd	r24, Y+3	; 0x03
     52a:	88 23       	and	r24, r24
     52c:	b9 f4       	brne	.+46     	; 0x55c <.L11>

0000052e <.LM16>:
     52e:	84 e3       	ldi	r24, 0x34	; 52
     530:	90 e0       	ldi	r25, 0x00	; 0
     532:	fc 01       	movw	r30, r24
     534:	80 81       	ld	r24, Z
     536:	48 2f       	mov	r20, r24
     538:	8a 81       	ldd	r24, Y+2	; 0x02
     53a:	28 2f       	mov	r18, r24
     53c:	30 e0       	ldi	r19, 0x00	; 0
     53e:	81 e0       	ldi	r24, 0x01	; 1
     540:	90 e0       	ldi	r25, 0x00	; 0
     542:	02 c0       	rjmp	.+4      	; 0x548 <.L2^B5>

00000544 <.L1^B5>:
     544:	88 0f       	add	r24, r24
     546:	99 1f       	adc	r25, r25

00000548 <.L2^B5>:
     548:	2a 95       	dec	r18
     54a:	e2 f7       	brpl	.-8      	; 0x544 <.L1^B5>
     54c:	80 95       	com	r24
     54e:	24 2f       	mov	r18, r20
     550:	28 23       	and	r18, r24
     552:	84 e3       	ldi	r24, 0x34	; 52
     554:	90 e0       	ldi	r25, 0x00	; 0
     556:	fc 01       	movw	r30, r24
     558:	20 83       	st	Z, r18

0000055a <.LM17>:
     55a:	51 c0       	rjmp	.+162    	; 0x5fe <.L18>

0000055c <.L11>:
     55c:	8b 81       	ldd	r24, Y+3	; 0x03
     55e:	81 30       	cpi	r24, 0x01	; 1
     560:	09 f0       	breq	.+2      	; 0x564 <.LM19>

00000562 <L0^A>:
     562:	4d c0       	rjmp	.+154    	; 0x5fe <.L18>

00000564 <.LM19>:
     564:	84 e3       	ldi	r24, 0x34	; 52
     566:	90 e0       	ldi	r25, 0x00	; 0
     568:	fc 01       	movw	r30, r24
     56a:	80 81       	ld	r24, Z
     56c:	48 2f       	mov	r20, r24
     56e:	8a 81       	ldd	r24, Y+2	; 0x02
     570:	28 2f       	mov	r18, r24
     572:	30 e0       	ldi	r19, 0x00	; 0
     574:	81 e0       	ldi	r24, 0x01	; 1
     576:	90 e0       	ldi	r25, 0x00	; 0
     578:	02 c0       	rjmp	.+4      	; 0x57e <.L2^B6>

0000057a <.L1^B6>:
     57a:	88 0f       	add	r24, r24
     57c:	99 1f       	adc	r25, r25

0000057e <.L2^B6>:
     57e:	2a 95       	dec	r18
     580:	e2 f7       	brpl	.-8      	; 0x57a <.L1^B6>
     582:	24 2f       	mov	r18, r20
     584:	28 2b       	or	r18, r24
     586:	84 e3       	ldi	r24, 0x34	; 52
     588:	90 e0       	ldi	r25, 0x00	; 0
     58a:	fc 01       	movw	r30, r24
     58c:	20 83       	st	Z, r18

0000058e <.LM20>:
     58e:	37 c0       	rjmp	.+110    	; 0x5fe <.L18>

00000590 <.L2>:
     590:	8b 81       	ldd	r24, Y+3	; 0x03
     592:	88 23       	and	r24, r24
     594:	b9 f4       	brne	.+46     	; 0x5c4 <.L13>

00000596 <.LM22>:
     596:	81 e3       	ldi	r24, 0x31	; 49
     598:	90 e0       	ldi	r25, 0x00	; 0
     59a:	fc 01       	movw	r30, r24
     59c:	80 81       	ld	r24, Z
     59e:	48 2f       	mov	r20, r24
     5a0:	8a 81       	ldd	r24, Y+2	; 0x02
     5a2:	28 2f       	mov	r18, r24
     5a4:	30 e0       	ldi	r19, 0x00	; 0
     5a6:	81 e0       	ldi	r24, 0x01	; 1
     5a8:	90 e0       	ldi	r25, 0x00	; 0
     5aa:	02 c0       	rjmp	.+4      	; 0x5b0 <.L2^B7>

000005ac <.L1^B7>:
     5ac:	88 0f       	add	r24, r24
     5ae:	99 1f       	adc	r25, r25

000005b0 <.L2^B7>:
     5b0:	2a 95       	dec	r18
     5b2:	e2 f7       	brpl	.-8      	; 0x5ac <.L1^B7>
     5b4:	80 95       	com	r24
     5b6:	24 2f       	mov	r18, r20
     5b8:	28 23       	and	r18, r24
     5ba:	81 e3       	ldi	r24, 0x31	; 49
     5bc:	90 e0       	ldi	r25, 0x00	; 0
     5be:	fc 01       	movw	r30, r24
     5c0:	20 83       	st	Z, r18

000005c2 <.LM23>:
     5c2:	1f c0       	rjmp	.+62     	; 0x602 <.L19>

000005c4 <.L13>:
     5c4:	8b 81       	ldd	r24, Y+3	; 0x03
     5c6:	81 30       	cpi	r24, 0x01	; 1
     5c8:	e1 f4       	brne	.+56     	; 0x602 <.L19>

000005ca <.LM25>:
     5ca:	81 e3       	ldi	r24, 0x31	; 49
     5cc:	90 e0       	ldi	r25, 0x00	; 0
     5ce:	fc 01       	movw	r30, r24
     5d0:	80 81       	ld	r24, Z
     5d2:	48 2f       	mov	r20, r24
     5d4:	8a 81       	ldd	r24, Y+2	; 0x02
     5d6:	28 2f       	mov	r18, r24
     5d8:	30 e0       	ldi	r19, 0x00	; 0
     5da:	81 e0       	ldi	r24, 0x01	; 1
     5dc:	90 e0       	ldi	r25, 0x00	; 0
     5de:	02 c0       	rjmp	.+4      	; 0x5e4 <.L2^B8>

000005e0 <.L1^B8>:
     5e0:	88 0f       	add	r24, r24
     5e2:	99 1f       	adc	r25, r25

000005e4 <.L2^B8>:
     5e4:	2a 95       	dec	r18
     5e6:	e2 f7       	brpl	.-8      	; 0x5e0 <.L1^B8>
     5e8:	24 2f       	mov	r18, r20
     5ea:	28 2b       	or	r18, r24
     5ec:	81 e3       	ldi	r24, 0x31	; 49
     5ee:	90 e0       	ldi	r25, 0x00	; 0
     5f0:	fc 01       	movw	r30, r24
     5f2:	20 83       	st	Z, r18

000005f4 <.LM26>:
     5f4:	06 c0       	rjmp	.+12     	; 0x602 <.L19>

000005f6 <.L16>:
     5f6:	00 00       	nop
     5f8:	05 c0       	rjmp	.+10     	; 0x604 <.L15>

000005fa <.L17>:
     5fa:	00 00       	nop
     5fc:	03 c0       	rjmp	.+6      	; 0x604 <.L15>

000005fe <.L18>:
     5fe:	00 00       	nop
     600:	01 c0       	rjmp	.+2      	; 0x604 <.L15>

00000602 <.L19>:
	...

00000604 <.L15>:
     604:	00 00       	nop
     606:	0f 90       	pop	r0
     608:	0f 90       	pop	r0
     60a:	0f 90       	pop	r0
     60c:	df 91       	pop	r29
     60e:	cf 91       	pop	r28
     610:	08 95       	ret

00000612 <DIO_SetPinValue>:
     612:	cf 93       	push	r28
     614:	df 93       	push	r29
     616:	00 d0       	rcall	.+0      	; 0x618 <L0^A>

00000618 <L0^A>:
     618:	0f 92       	push	r0
     61a:	cd b7       	in	r28, 0x3d	; 61
     61c:	de b7       	in	r29, 0x3e	; 62
     61e:	89 83       	std	Y+1, r24	; 0x01
     620:	6a 83       	std	Y+2, r22	; 0x02
     622:	4b 83       	std	Y+3, r20	; 0x03

00000624 <.LM33>:
     624:	89 81       	ldd	r24, Y+1	; 0x01
     626:	88 2f       	mov	r24, r24
     628:	90 e0       	ldi	r25, 0x00	; 0
     62a:	83 30       	cpi	r24, 0x03	; 3
     62c:	91 05       	cpc	r25, r1
     62e:	09 f4       	brne	.+2      	; 0x632 <L0^A+0x2>

00000630 <L0^A>:
     630:	b0 c0       	rjmp	.+352    	; 0x792 <.L21>
     632:	83 30       	cpi	r24, 0x03	; 3
     634:	91 05       	cpc	r25, r1
     636:	11 f0       	breq	.+4      	; 0x63c <L0^A+0x2>

00000638 <L0^A>:
     638:	0c f0       	brlt	.+2      	; 0x63c <L0^A+0x2>

0000063a <L0^A>:
     63a:	e5 c0       	rjmp	.+458    	; 0x806 <.L34>
     63c:	82 30       	cpi	r24, 0x02	; 2
     63e:	91 05       	cpc	r25, r1
     640:	09 f4       	brne	.+2      	; 0x644 <L0^A+0x2>

00000642 <L0^A>:
     642:	73 c0       	rjmp	.+230    	; 0x72a <.L23>
     644:	82 30       	cpi	r24, 0x02	; 2
     646:	91 05       	cpc	r25, r1
     648:	11 f0       	breq	.+4      	; 0x64e <L0^A+0x2>

0000064a <L0^A>:
     64a:	0c f0       	brlt	.+2      	; 0x64e <L0^A+0x2>

0000064c <L0^A>:
     64c:	dc c0       	rjmp	.+440    	; 0x806 <.L34>
     64e:	00 97       	sbiw	r24, 0x00	; 0
     650:	21 f0       	breq	.+8      	; 0x65a <.L24>
     652:	81 30       	cpi	r24, 0x01	; 1
     654:	91 05       	cpc	r25, r1
     656:	a9 f1       	breq	.+106    	; 0x6c2 <.L25>

00000658 <.LM34>:
     658:	d6 c0       	rjmp	.+428    	; 0x806 <.L34>

0000065a <.L24>:
     65a:	8b 81       	ldd	r24, Y+3	; 0x03
     65c:	88 23       	and	r24, r24
     65e:	b9 f4       	brne	.+46     	; 0x68e <.L26>

00000660 <.LM36>:
     660:	8b e3       	ldi	r24, 0x3B	; 59
     662:	90 e0       	ldi	r25, 0x00	; 0
     664:	fc 01       	movw	r30, r24
     666:	80 81       	ld	r24, Z
     668:	48 2f       	mov	r20, r24
     66a:	8a 81       	ldd	r24, Y+2	; 0x02
     66c:	28 2f       	mov	r18, r24
     66e:	30 e0       	ldi	r19, 0x00	; 0
     670:	81 e0       	ldi	r24, 0x01	; 1
     672:	90 e0       	ldi	r25, 0x00	; 0
     674:	02 c0       	rjmp	.+4      	; 0x67a <.L2^B9>

00000676 <.L1^B9>:
     676:	88 0f       	add	r24, r24
     678:	99 1f       	adc	r25, r25

0000067a <.L2^B9>:
     67a:	2a 95       	dec	r18
     67c:	e2 f7       	brpl	.-8      	; 0x676 <.L1^B9>
     67e:	80 95       	com	r24
     680:	24 2f       	mov	r18, r20
     682:	28 23       	and	r18, r24
     684:	8b e3       	ldi	r24, 0x3B	; 59
     686:	90 e0       	ldi	r25, 0x00	; 0
     688:	fc 01       	movw	r30, r24
     68a:	20 83       	st	Z, r18

0000068c <.LM37>:
     68c:	b5 c0       	rjmp	.+362    	; 0x7f8 <.L35>

0000068e <.L26>:
     68e:	8b 81       	ldd	r24, Y+3	; 0x03
     690:	81 30       	cpi	r24, 0x01	; 1
     692:	09 f0       	breq	.+2      	; 0x696 <.LM39>

00000694 <L0^A>:
     694:	b1 c0       	rjmp	.+354    	; 0x7f8 <.L35>

00000696 <.LM39>:
     696:	8b e3       	ldi	r24, 0x3B	; 59
     698:	90 e0       	ldi	r25, 0x00	; 0
     69a:	fc 01       	movw	r30, r24
     69c:	80 81       	ld	r24, Z
     69e:	48 2f       	mov	r20, r24
     6a0:	8a 81       	ldd	r24, Y+2	; 0x02
     6a2:	28 2f       	mov	r18, r24
     6a4:	30 e0       	ldi	r19, 0x00	; 0
     6a6:	81 e0       	ldi	r24, 0x01	; 1
     6a8:	90 e0       	ldi	r25, 0x00	; 0
     6aa:	02 c0       	rjmp	.+4      	; 0x6b0 <.L2^B10>

000006ac <.L1^B10>:
     6ac:	88 0f       	add	r24, r24
     6ae:	99 1f       	adc	r25, r25

000006b0 <.L2^B10>:
     6b0:	2a 95       	dec	r18
     6b2:	e2 f7       	brpl	.-8      	; 0x6ac <.L1^B10>
     6b4:	24 2f       	mov	r18, r20
     6b6:	28 2b       	or	r18, r24
     6b8:	8b e3       	ldi	r24, 0x3B	; 59
     6ba:	90 e0       	ldi	r25, 0x00	; 0
     6bc:	fc 01       	movw	r30, r24
     6be:	20 83       	st	Z, r18

000006c0 <.LM40>:
     6c0:	9b c0       	rjmp	.+310    	; 0x7f8 <.L35>

000006c2 <.L25>:
     6c2:	8b 81       	ldd	r24, Y+3	; 0x03
     6c4:	88 23       	and	r24, r24
     6c6:	b9 f4       	brne	.+46     	; 0x6f6 <.L28>

000006c8 <.LM42>:
     6c8:	88 e3       	ldi	r24, 0x38	; 56
     6ca:	90 e0       	ldi	r25, 0x00	; 0
     6cc:	fc 01       	movw	r30, r24
     6ce:	80 81       	ld	r24, Z
     6d0:	48 2f       	mov	r20, r24
     6d2:	8a 81       	ldd	r24, Y+2	; 0x02
     6d4:	28 2f       	mov	r18, r24
     6d6:	30 e0       	ldi	r19, 0x00	; 0
     6d8:	81 e0       	ldi	r24, 0x01	; 1
     6da:	90 e0       	ldi	r25, 0x00	; 0
     6dc:	02 c0       	rjmp	.+4      	; 0x6e2 <.L2^B11>

000006de <.L1^B11>:
     6de:	88 0f       	add	r24, r24
     6e0:	99 1f       	adc	r25, r25

000006e2 <.L2^B11>:
     6e2:	2a 95       	dec	r18
     6e4:	e2 f7       	brpl	.-8      	; 0x6de <.L1^B11>
     6e6:	80 95       	com	r24
     6e8:	24 2f       	mov	r18, r20
     6ea:	28 23       	and	r18, r24
     6ec:	88 e3       	ldi	r24, 0x38	; 56
     6ee:	90 e0       	ldi	r25, 0x00	; 0
     6f0:	fc 01       	movw	r30, r24
     6f2:	20 83       	st	Z, r18

000006f4 <.LM43>:
     6f4:	83 c0       	rjmp	.+262    	; 0x7fc <.L36>

000006f6 <.L28>:
     6f6:	8b 81       	ldd	r24, Y+3	; 0x03
     6f8:	81 30       	cpi	r24, 0x01	; 1
     6fa:	09 f0       	breq	.+2      	; 0x6fe <.LM45>

000006fc <L0^A>:
     6fc:	7f c0       	rjmp	.+254    	; 0x7fc <.L36>

000006fe <.LM45>:
     6fe:	88 e3       	ldi	r24, 0x38	; 56
     700:	90 e0       	ldi	r25, 0x00	; 0
     702:	fc 01       	movw	r30, r24
     704:	80 81       	ld	r24, Z
     706:	48 2f       	mov	r20, r24
     708:	8a 81       	ldd	r24, Y+2	; 0x02
     70a:	28 2f       	mov	r18, r24
     70c:	30 e0       	ldi	r19, 0x00	; 0
     70e:	81 e0       	ldi	r24, 0x01	; 1
     710:	90 e0       	ldi	r25, 0x00	; 0
     712:	02 c0       	rjmp	.+4      	; 0x718 <.L2^B12>

00000714 <.L1^B12>:
     714:	88 0f       	add	r24, r24
     716:	99 1f       	adc	r25, r25

00000718 <.L2^B12>:
     718:	2a 95       	dec	r18
     71a:	e2 f7       	brpl	.-8      	; 0x714 <.L1^B12>
     71c:	24 2f       	mov	r18, r20
     71e:	28 2b       	or	r18, r24
     720:	88 e3       	ldi	r24, 0x38	; 56
     722:	90 e0       	ldi	r25, 0x00	; 0
     724:	fc 01       	movw	r30, r24
     726:	20 83       	st	Z, r18

00000728 <.LM46>:
     728:	69 c0       	rjmp	.+210    	; 0x7fc <.L36>

0000072a <.L23>:
     72a:	8b 81       	ldd	r24, Y+3	; 0x03
     72c:	88 23       	and	r24, r24
     72e:	b9 f4       	brne	.+46     	; 0x75e <.L30>

00000730 <.LM48>:
     730:	85 e3       	ldi	r24, 0x35	; 53
     732:	90 e0       	ldi	r25, 0x00	; 0
     734:	fc 01       	movw	r30, r24
     736:	80 81       	ld	r24, Z
     738:	48 2f       	mov	r20, r24
     73a:	8a 81       	ldd	r24, Y+2	; 0x02
     73c:	28 2f       	mov	r18, r24
     73e:	30 e0       	ldi	r19, 0x00	; 0
     740:	81 e0       	ldi	r24, 0x01	; 1
     742:	90 e0       	ldi	r25, 0x00	; 0
     744:	02 c0       	rjmp	.+4      	; 0x74a <.L2^B13>

00000746 <.L1^B13>:
     746:	88 0f       	add	r24, r24
     748:	99 1f       	adc	r25, r25

0000074a <.L2^B13>:
     74a:	2a 95       	dec	r18
     74c:	e2 f7       	brpl	.-8      	; 0x746 <.L1^B13>
     74e:	80 95       	com	r24
     750:	24 2f       	mov	r18, r20
     752:	28 23       	and	r18, r24
     754:	85 e3       	ldi	r24, 0x35	; 53
     756:	90 e0       	ldi	r25, 0x00	; 0
     758:	fc 01       	movw	r30, r24
     75a:	20 83       	st	Z, r18

0000075c <.LM49>:
     75c:	51 c0       	rjmp	.+162    	; 0x800 <.L37>

0000075e <.L30>:
     75e:	8b 81       	ldd	r24, Y+3	; 0x03
     760:	81 30       	cpi	r24, 0x01	; 1
     762:	09 f0       	breq	.+2      	; 0x766 <.LM51>

00000764 <L0^A>:
     764:	4d c0       	rjmp	.+154    	; 0x800 <.L37>

00000766 <.LM51>:
     766:	85 e3       	ldi	r24, 0x35	; 53
     768:	90 e0       	ldi	r25, 0x00	; 0
     76a:	fc 01       	movw	r30, r24
     76c:	80 81       	ld	r24, Z
     76e:	48 2f       	mov	r20, r24
     770:	8a 81       	ldd	r24, Y+2	; 0x02
     772:	28 2f       	mov	r18, r24
     774:	30 e0       	ldi	r19, 0x00	; 0
     776:	81 e0       	ldi	r24, 0x01	; 1
     778:	90 e0       	ldi	r25, 0x00	; 0
     77a:	02 c0       	rjmp	.+4      	; 0x780 <.L2^B14>

0000077c <.L1^B14>:
     77c:	88 0f       	add	r24, r24
     77e:	99 1f       	adc	r25, r25

00000780 <.L2^B14>:
     780:	2a 95       	dec	r18
     782:	e2 f7       	brpl	.-8      	; 0x77c <.L1^B14>
     784:	24 2f       	mov	r18, r20
     786:	28 2b       	or	r18, r24
     788:	85 e3       	ldi	r24, 0x35	; 53
     78a:	90 e0       	ldi	r25, 0x00	; 0
     78c:	fc 01       	movw	r30, r24
     78e:	20 83       	st	Z, r18

00000790 <.LM52>:
     790:	37 c0       	rjmp	.+110    	; 0x800 <.L37>

00000792 <.L21>:
     792:	8b 81       	ldd	r24, Y+3	; 0x03
     794:	88 23       	and	r24, r24
     796:	b9 f4       	brne	.+46     	; 0x7c6 <.L32>

00000798 <.LM54>:
     798:	82 e3       	ldi	r24, 0x32	; 50
     79a:	90 e0       	ldi	r25, 0x00	; 0
     79c:	fc 01       	movw	r30, r24
     79e:	80 81       	ld	r24, Z
     7a0:	48 2f       	mov	r20, r24
     7a2:	8a 81       	ldd	r24, Y+2	; 0x02
     7a4:	28 2f       	mov	r18, r24
     7a6:	30 e0       	ldi	r19, 0x00	; 0
     7a8:	81 e0       	ldi	r24, 0x01	; 1
     7aa:	90 e0       	ldi	r25, 0x00	; 0
     7ac:	02 c0       	rjmp	.+4      	; 0x7b2 <.L2^B15>

000007ae <.L1^B15>:
     7ae:	88 0f       	add	r24, r24
     7b0:	99 1f       	adc	r25, r25

000007b2 <.L2^B15>:
     7b2:	2a 95       	dec	r18
     7b4:	e2 f7       	brpl	.-8      	; 0x7ae <.L1^B15>
     7b6:	80 95       	com	r24
     7b8:	24 2f       	mov	r18, r20
     7ba:	28 23       	and	r18, r24
     7bc:	82 e3       	ldi	r24, 0x32	; 50
     7be:	90 e0       	ldi	r25, 0x00	; 0
     7c0:	fc 01       	movw	r30, r24
     7c2:	20 83       	st	Z, r18

000007c4 <.LM55>:
     7c4:	1f c0       	rjmp	.+62     	; 0x804 <.L38>

000007c6 <.L32>:
     7c6:	8b 81       	ldd	r24, Y+3	; 0x03
     7c8:	81 30       	cpi	r24, 0x01	; 1
     7ca:	e1 f4       	brne	.+56     	; 0x804 <.L38>

000007cc <.LM57>:
     7cc:	82 e3       	ldi	r24, 0x32	; 50
     7ce:	90 e0       	ldi	r25, 0x00	; 0
     7d0:	fc 01       	movw	r30, r24
     7d2:	80 81       	ld	r24, Z
     7d4:	48 2f       	mov	r20, r24
     7d6:	8a 81       	ldd	r24, Y+2	; 0x02
     7d8:	28 2f       	mov	r18, r24
     7da:	30 e0       	ldi	r19, 0x00	; 0
     7dc:	81 e0       	ldi	r24, 0x01	; 1
     7de:	90 e0       	ldi	r25, 0x00	; 0
     7e0:	02 c0       	rjmp	.+4      	; 0x7e6 <.L2^B16>

000007e2 <.L1^B16>:
     7e2:	88 0f       	add	r24, r24
     7e4:	99 1f       	adc	r25, r25

000007e6 <.L2^B16>:
     7e6:	2a 95       	dec	r18
     7e8:	e2 f7       	brpl	.-8      	; 0x7e2 <.L1^B16>
     7ea:	24 2f       	mov	r18, r20
     7ec:	28 2b       	or	r18, r24
     7ee:	82 e3       	ldi	r24, 0x32	; 50
     7f0:	90 e0       	ldi	r25, 0x00	; 0
     7f2:	fc 01       	movw	r30, r24
     7f4:	20 83       	st	Z, r18

000007f6 <.LM58>:
     7f6:	06 c0       	rjmp	.+12     	; 0x804 <.L38>

000007f8 <.L35>:
     7f8:	00 00       	nop
     7fa:	05 c0       	rjmp	.+10     	; 0x806 <.L34>

000007fc <.L36>:
     7fc:	00 00       	nop
     7fe:	03 c0       	rjmp	.+6      	; 0x806 <.L34>

00000800 <.L37>:
     800:	00 00       	nop
     802:	01 c0       	rjmp	.+2      	; 0x806 <.L34>

00000804 <.L38>:
	...

00000806 <.L34>:
     806:	00 00       	nop
     808:	0f 90       	pop	r0
     80a:	0f 90       	pop	r0
     80c:	0f 90       	pop	r0
     80e:	df 91       	pop	r29
     810:	cf 91       	pop	r28
     812:	08 95       	ret

00000814 <DIO_GetPinValue>:
     814:	cf 93       	push	r28
     816:	df 93       	push	r29
     818:	00 d0       	rcall	.+0      	; 0x81a <L0^A>

0000081a <L0^A>:
     81a:	cd b7       	in	r28, 0x3d	; 61
     81c:	de b7       	in	r29, 0x3e	; 62
     81e:	89 83       	std	Y+1, r24	; 0x01
     820:	6a 83       	std	Y+2, r22	; 0x02

00000822 <.LM65>:
     822:	89 81       	ldd	r24, Y+1	; 0x01
     824:	88 2f       	mov	r24, r24
     826:	90 e0       	ldi	r25, 0x00	; 0
     828:	83 30       	cpi	r24, 0x03	; 3
     82a:	91 05       	cpc	r25, r1
     82c:	09 f4       	brne	.+2      	; 0x830 <L0^A+0x2>

0000082e <L0^A>:
     82e:	46 c0       	rjmp	.+140    	; 0x8bc <.L40>
     830:	83 30       	cpi	r24, 0x03	; 3
     832:	91 05       	cpc	r25, r1
     834:	11 f0       	breq	.+4      	; 0x83a <L0^A+0x2>

00000836 <L0^A>:
     836:	0c f0       	brlt	.+2      	; 0x83a <L0^A+0x2>

00000838 <L0^A>:
     838:	52 c0       	rjmp	.+164    	; 0x8de <.L39>
     83a:	82 30       	cpi	r24, 0x02	; 2
     83c:	91 05       	cpc	r25, r1
     83e:	69 f1       	breq	.+90     	; 0x89a <.L42>
     840:	82 30       	cpi	r24, 0x02	; 2
     842:	91 05       	cpc	r25, r1
     844:	11 f0       	breq	.+4      	; 0x84a <L0^A+0x2>

00000846 <L0^A>:
     846:	0c f0       	brlt	.+2      	; 0x84a <L0^A+0x2>

00000848 <L0^A>:
     848:	4a c0       	rjmp	.+148    	; 0x8de <.L39>
     84a:	00 97       	sbiw	r24, 0x00	; 0
     84c:	21 f0       	breq	.+8      	; 0x856 <.L43>
     84e:	81 30       	cpi	r24, 0x01	; 1
     850:	91 05       	cpc	r25, r1
     852:	91 f0       	breq	.+36     	; 0x878 <.L44>
     854:	44 c0       	rjmp	.+136    	; 0x8de <.L39>

00000856 <.L43>:
     856:	89 e3       	ldi	r24, 0x39	; 57
     858:	90 e0       	ldi	r25, 0x00	; 0
     85a:	fc 01       	movw	r30, r24
     85c:	80 81       	ld	r24, Z
     85e:	88 2f       	mov	r24, r24
     860:	90 e0       	ldi	r25, 0x00	; 0
     862:	2a 81       	ldd	r18, Y+2	; 0x02
     864:	22 2f       	mov	r18, r18
     866:	30 e0       	ldi	r19, 0x00	; 0
     868:	02 2e       	mov	r0, r18
     86a:	02 c0       	rjmp	.+4      	; 0x870 <.L2^B17>

0000086c <.L1^B17>:
     86c:	95 95       	asr	r25
     86e:	87 95       	ror	r24

00000870 <.L2^B17>:
     870:	0a 94       	dec	r0
     872:	e2 f7       	brpl	.-8      	; 0x86c <.L1^B17>
     874:	81 70       	andi	r24, 0x01	; 1
     876:	33 c0       	rjmp	.+102    	; 0x8de <.L39>

00000878 <.L44>:
     878:	86 e3       	ldi	r24, 0x36	; 54
     87a:	90 e0       	ldi	r25, 0x00	; 0
     87c:	fc 01       	movw	r30, r24
     87e:	80 81       	ld	r24, Z
     880:	88 2f       	mov	r24, r24
     882:	90 e0       	ldi	r25, 0x00	; 0
     884:	2a 81       	ldd	r18, Y+2	; 0x02
     886:	22 2f       	mov	r18, r18
     888:	30 e0       	ldi	r19, 0x00	; 0
     88a:	02 2e       	mov	r0, r18
     88c:	02 c0       	rjmp	.+4      	; 0x892 <.L2^B18>

0000088e <.L1^B18>:
     88e:	95 95       	asr	r25
     890:	87 95       	ror	r24

00000892 <.L2^B18>:
     892:	0a 94       	dec	r0
     894:	e2 f7       	brpl	.-8      	; 0x88e <.L1^B18>
     896:	81 70       	andi	r24, 0x01	; 1
     898:	22 c0       	rjmp	.+68     	; 0x8de <.L39>

0000089a <.L42>:
     89a:	83 e3       	ldi	r24, 0x33	; 51
     89c:	90 e0       	ldi	r25, 0x00	; 0
     89e:	fc 01       	movw	r30, r24
     8a0:	80 81       	ld	r24, Z
     8a2:	88 2f       	mov	r24, r24
     8a4:	90 e0       	ldi	r25, 0x00	; 0
     8a6:	2a 81       	ldd	r18, Y+2	; 0x02
     8a8:	22 2f       	mov	r18, r18
     8aa:	30 e0       	ldi	r19, 0x00	; 0
     8ac:	02 2e       	mov	r0, r18
     8ae:	02 c0       	rjmp	.+4      	; 0x8b4 <.L2^B19>

000008b0 <.L1^B19>:
     8b0:	95 95       	asr	r25
     8b2:	87 95       	ror	r24

000008b4 <.L2^B19>:
     8b4:	0a 94       	dec	r0
     8b6:	e2 f7       	brpl	.-8      	; 0x8b0 <.L1^B19>
     8b8:	81 70       	andi	r24, 0x01	; 1
     8ba:	11 c0       	rjmp	.+34     	; 0x8de <.L39>

000008bc <.L40>:
     8bc:	80 e3       	ldi	r24, 0x30	; 48
     8be:	90 e0       	ldi	r25, 0x00	; 0
     8c0:	fc 01       	movw	r30, r24
     8c2:	80 81       	ld	r24, Z
     8c4:	88 2f       	mov	r24, r24
     8c6:	90 e0       	ldi	r25, 0x00	; 0
     8c8:	2a 81       	ldd	r18, Y+2	; 0x02
     8ca:	22 2f       	mov	r18, r18
     8cc:	30 e0       	ldi	r19, 0x00	; 0
     8ce:	02 2e       	mov	r0, r18
     8d0:	02 c0       	rjmp	.+4      	; 0x8d6 <.L2^B20>

000008d2 <.L1^B20>:
     8d2:	95 95       	asr	r25
     8d4:	87 95       	ror	r24

000008d6 <.L2^B20>:
     8d6:	0a 94       	dec	r0
     8d8:	e2 f7       	brpl	.-8      	; 0x8d2 <.L1^B20>
     8da:	81 70       	andi	r24, 0x01	; 1
     8dc:	00 c0       	rjmp	.+0      	; 0x8de <.L39>

000008de <.L39>:
     8de:	0f 90       	pop	r0
     8e0:	0f 90       	pop	r0
     8e2:	df 91       	pop	r29
     8e4:	cf 91       	pop	r28
     8e6:	08 95       	ret

000008e8 <DIO_SetPortDiriction>:
     8e8:	cf 93       	push	r28
     8ea:	df 93       	push	r29
     8ec:	00 d0       	rcall	.+0      	; 0x8ee <L0^A>

000008ee <L0^A>:
     8ee:	cd b7       	in	r28, 0x3d	; 61
     8f0:	de b7       	in	r29, 0x3e	; 62
     8f2:	89 83       	std	Y+1, r24	; 0x01
     8f4:	6a 83       	std	Y+2, r22	; 0x02

000008f6 <.LM72>:
     8f6:	89 81       	ldd	r24, Y+1	; 0x01
     8f8:	88 2f       	mov	r24, r24
     8fa:	90 e0       	ldi	r25, 0x00	; 0
     8fc:	83 30       	cpi	r24, 0x03	; 3
     8fe:	91 05       	cpc	r25, r1
     900:	19 f1       	breq	.+70     	; 0x948 <.L47>
     902:	83 30       	cpi	r24, 0x03	; 3
     904:	91 05       	cpc	r25, r1
     906:	09 f0       	breq	.+2      	; 0x90a <L0^A+0x2>

00000908 <L0^A>:
     908:	2c f5       	brge	.+74     	; 0x954 <.L53>
     90a:	82 30       	cpi	r24, 0x02	; 2
     90c:	91 05       	cpc	r25, r1
     90e:	b1 f0       	breq	.+44     	; 0x93c <.L49>
     910:	82 30       	cpi	r24, 0x02	; 2
     912:	91 05       	cpc	r25, r1
     914:	09 f0       	breq	.+2      	; 0x918 <L0^A+0x2>

00000916 <L0^A>:
     916:	f4 f4       	brge	.+60     	; 0x954 <.L53>
     918:	00 97       	sbiw	r24, 0x00	; 0
     91a:	21 f0       	breq	.+8      	; 0x924 <.L50>
     91c:	81 30       	cpi	r24, 0x01	; 1
     91e:	91 05       	cpc	r25, r1
     920:	39 f0       	breq	.+14     	; 0x930 <.L51>

00000922 <.LM73>:
     922:	18 c0       	rjmp	.+48     	; 0x954 <.L53>

00000924 <.L50>:
     924:	8a e3       	ldi	r24, 0x3A	; 58
     926:	90 e0       	ldi	r25, 0x00	; 0

00000928 <.LM75>:
     928:	2a 81       	ldd	r18, Y+2	; 0x02
     92a:	fc 01       	movw	r30, r24
     92c:	20 83       	st	Z, r18

0000092e <.LM76>:
     92e:	13 c0       	rjmp	.+38     	; 0x956 <.L52>

00000930 <.L51>:
     930:	87 e3       	ldi	r24, 0x37	; 55
     932:	90 e0       	ldi	r25, 0x00	; 0

00000934 <.LM78>:
     934:	2a 81       	ldd	r18, Y+2	; 0x02
     936:	fc 01       	movw	r30, r24
     938:	20 83       	st	Z, r18

0000093a <.LM79>:
     93a:	0d c0       	rjmp	.+26     	; 0x956 <.L52>

0000093c <.L49>:
     93c:	84 e3       	ldi	r24, 0x34	; 52
     93e:	90 e0       	ldi	r25, 0x00	; 0

00000940 <.LM81>:
     940:	2a 81       	ldd	r18, Y+2	; 0x02
     942:	fc 01       	movw	r30, r24
     944:	20 83       	st	Z, r18

00000946 <.LM82>:
     946:	07 c0       	rjmp	.+14     	; 0x956 <.L52>

00000948 <.L47>:
     948:	81 e3       	ldi	r24, 0x31	; 49
     94a:	90 e0       	ldi	r25, 0x00	; 0

0000094c <.LM84>:
     94c:	2a 81       	ldd	r18, Y+2	; 0x02
     94e:	fc 01       	movw	r30, r24
     950:	20 83       	st	Z, r18

00000952 <.LM85>:
     952:	01 c0       	rjmp	.+2      	; 0x956 <.L52>

00000954 <.L53>:
	...

00000956 <.L52>:
     956:	00 00       	nop
     958:	0f 90       	pop	r0
     95a:	0f 90       	pop	r0
     95c:	df 91       	pop	r29
     95e:	cf 91       	pop	r28
     960:	08 95       	ret

00000962 <DIO_SetPortValue>:
     962:	cf 93       	push	r28
     964:	df 93       	push	r29
     966:	00 d0       	rcall	.+0      	; 0x968 <L0^A>

00000968 <L0^A>:
     968:	cd b7       	in	r28, 0x3d	; 61
     96a:	de b7       	in	r29, 0x3e	; 62
     96c:	89 83       	std	Y+1, r24	; 0x01
     96e:	6a 83       	std	Y+2, r22	; 0x02

00000970 <.LM89>:
     970:	89 81       	ldd	r24, Y+1	; 0x01
     972:	88 2f       	mov	r24, r24
     974:	90 e0       	ldi	r25, 0x00	; 0
     976:	83 30       	cpi	r24, 0x03	; 3
     978:	91 05       	cpc	r25, r1
     97a:	19 f1       	breq	.+70     	; 0x9c2 <.L55>
     97c:	83 30       	cpi	r24, 0x03	; 3
     97e:	91 05       	cpc	r25, r1
     980:	09 f0       	breq	.+2      	; 0x984 <L0^A+0x2>

00000982 <L0^A>:
     982:	2c f5       	brge	.+74     	; 0x9ce <.L61>
     984:	82 30       	cpi	r24, 0x02	; 2
     986:	91 05       	cpc	r25, r1
     988:	b1 f0       	breq	.+44     	; 0x9b6 <.L57>
     98a:	82 30       	cpi	r24, 0x02	; 2
     98c:	91 05       	cpc	r25, r1
     98e:	09 f0       	breq	.+2      	; 0x992 <L0^A+0x2>

00000990 <L0^A>:
     990:	f4 f4       	brge	.+60     	; 0x9ce <.L61>
     992:	00 97       	sbiw	r24, 0x00	; 0
     994:	21 f0       	breq	.+8      	; 0x99e <.L58>
     996:	81 30       	cpi	r24, 0x01	; 1
     998:	91 05       	cpc	r25, r1
     99a:	39 f0       	breq	.+14     	; 0x9aa <.L59>

0000099c <.LM90>:
     99c:	18 c0       	rjmp	.+48     	; 0x9ce <.L61>

0000099e <.L58>:
     99e:	8b e3       	ldi	r24, 0x3B	; 59
     9a0:	90 e0       	ldi	r25, 0x00	; 0

000009a2 <.LM92>:
     9a2:	2a 81       	ldd	r18, Y+2	; 0x02
     9a4:	fc 01       	movw	r30, r24
     9a6:	20 83       	st	Z, r18

000009a8 <.LM93>:
     9a8:	13 c0       	rjmp	.+38     	; 0x9d0 <.L60>

000009aa <.L59>:
     9aa:	88 e3       	ldi	r24, 0x38	; 56
     9ac:	90 e0       	ldi	r25, 0x00	; 0

000009ae <.LM95>:
     9ae:	2a 81       	ldd	r18, Y+2	; 0x02
     9b0:	fc 01       	movw	r30, r24
     9b2:	20 83       	st	Z, r18

000009b4 <.LM96>:
     9b4:	0d c0       	rjmp	.+26     	; 0x9d0 <.L60>

000009b6 <.L57>:
     9b6:	85 e3       	ldi	r24, 0x35	; 53
     9b8:	90 e0       	ldi	r25, 0x00	; 0

000009ba <.LM98>:
     9ba:	2a 81       	ldd	r18, Y+2	; 0x02
     9bc:	fc 01       	movw	r30, r24
     9be:	20 83       	st	Z, r18

000009c0 <.LM99>:
     9c0:	07 c0       	rjmp	.+14     	; 0x9d0 <.L60>

000009c2 <.L55>:
     9c2:	82 e3       	ldi	r24, 0x32	; 50
     9c4:	90 e0       	ldi	r25, 0x00	; 0

000009c6 <.LM101>:
     9c6:	2a 81       	ldd	r18, Y+2	; 0x02
     9c8:	fc 01       	movw	r30, r24
     9ca:	20 83       	st	Z, r18

000009cc <.LM102>:
     9cc:	01 c0       	rjmp	.+2      	; 0x9d0 <.L60>

000009ce <.L61>:
	...

000009d0 <.L60>:
     9d0:	00 00       	nop
     9d2:	0f 90       	pop	r0
     9d4:	0f 90       	pop	r0
     9d6:	df 91       	pop	r29
     9d8:	cf 91       	pop	r28
     9da:	08 95       	ret

000009dc <DIO_GetPortValue>:
     9dc:	cf 93       	push	r28
     9de:	df 93       	push	r29
     9e0:	0f 92       	push	r0
     9e2:	cd b7       	in	r28, 0x3d	; 61
     9e4:	de b7       	in	r29, 0x3e	; 62
     9e6:	89 83       	std	Y+1, r24	; 0x01

000009e8 <.LM106>:
     9e8:	89 81       	ldd	r24, Y+1	; 0x01
     9ea:	88 2f       	mov	r24, r24
     9ec:	90 e0       	ldi	r25, 0x00	; 0
     9ee:	83 30       	cpi	r24, 0x03	; 3
     9f0:	91 05       	cpc	r25, r1
     9f2:	01 f1       	breq	.+64     	; 0xa34 <.L63>
     9f4:	83 30       	cpi	r24, 0x03	; 3
     9f6:	91 05       	cpc	r25, r1
     9f8:	09 f0       	breq	.+2      	; 0x9fc <L0^A+0x2>

000009fa <L0^A>:
     9fa:	0c f5       	brge	.+66     	; 0xa3e <.L70>
     9fc:	82 30       	cpi	r24, 0x02	; 2
     9fe:	91 05       	cpc	r25, r1
     a00:	a1 f0       	breq	.+40     	; 0xa2a <.L65>
     a02:	82 30       	cpi	r24, 0x02	; 2
     a04:	91 05       	cpc	r25, r1
     a06:	09 f0       	breq	.+2      	; 0xa0a <L0^A+0x2>

00000a08 <L0^A>:
     a08:	d4 f4       	brge	.+52     	; 0xa3e <.L70>
     a0a:	00 97       	sbiw	r24, 0x00	; 0
     a0c:	21 f0       	breq	.+8      	; 0xa16 <.L66>
     a0e:	81 30       	cpi	r24, 0x01	; 1
     a10:	91 05       	cpc	r25, r1
     a12:	31 f0       	breq	.+12     	; 0xa20 <.L67>

00000a14 <.LM107>:
     a14:	14 c0       	rjmp	.+40     	; 0xa3e <.L70>

00000a16 <.L66>:
     a16:	89 e3       	ldi	r24, 0x39	; 57
     a18:	90 e0       	ldi	r25, 0x00	; 0
     a1a:	fc 01       	movw	r30, r24
     a1c:	80 81       	ld	r24, Z
     a1e:	10 c0       	rjmp	.+32     	; 0xa40 <.L62>

00000a20 <.L67>:
     a20:	86 e3       	ldi	r24, 0x36	; 54
     a22:	90 e0       	ldi	r25, 0x00	; 0
     a24:	fc 01       	movw	r30, r24
     a26:	80 81       	ld	r24, Z
     a28:	0b c0       	rjmp	.+22     	; 0xa40 <.L62>

00000a2a <.L65>:
     a2a:	83 e3       	ldi	r24, 0x33	; 51
     a2c:	90 e0       	ldi	r25, 0x00	; 0
     a2e:	fc 01       	movw	r30, r24
     a30:	80 81       	ld	r24, Z
     a32:	06 c0       	rjmp	.+12     	; 0xa40 <.L62>

00000a34 <.L63>:
     a34:	80 e3       	ldi	r24, 0x30	; 48
     a36:	90 e0       	ldi	r25, 0x00	; 0
     a38:	fc 01       	movw	r30, r24
     a3a:	80 81       	ld	r24, Z
     a3c:	01 c0       	rjmp	.+2      	; 0xa40 <.L62>

00000a3e <.L70>:
	...

00000a40 <.L62>:
     a40:	0f 90       	pop	r0
     a42:	df 91       	pop	r29
     a44:	cf 91       	pop	r28
     a46:	08 95       	ret

00000a48 <STEPPER_Init>:
     a48:	cf 93       	push	r28
     a4a:	df 93       	push	r29
     a4c:	cd b7       	in	r28, 0x3d	; 61
     a4e:	de b7       	in	r29, 0x3e	; 62

00000a50 <.LM1>:
     a50:	41 e0       	ldi	r20, 0x01	; 1
     a52:	60 e0       	ldi	r22, 0x00	; 0
     a54:	82 e0       	ldi	r24, 0x02	; 2
     a56:	0e 94 08 02 	call	0x410	; 0x410 <DIO_SetPinDiriction>

00000a5a <.LM2>:
     a5a:	41 e0       	ldi	r20, 0x01	; 1
     a5c:	61 e0       	ldi	r22, 0x01	; 1
     a5e:	82 e0       	ldi	r24, 0x02	; 2
     a60:	0e 94 08 02 	call	0x410	; 0x410 <DIO_SetPinDiriction>

00000a64 <.LM3>:
     a64:	41 e0       	ldi	r20, 0x01	; 1
     a66:	62 e0       	ldi	r22, 0x02	; 2
     a68:	82 e0       	ldi	r24, 0x02	; 2
     a6a:	0e 94 08 02 	call	0x410	; 0x410 <DIO_SetPinDiriction>

00000a6e <.LM4>:
     a6e:	41 e0       	ldi	r20, 0x01	; 1
     a70:	63 e0       	ldi	r22, 0x03	; 3
     a72:	82 e0       	ldi	r24, 0x02	; 2
     a74:	0e 94 08 02 	call	0x410	; 0x410 <DIO_SetPinDiriction>

00000a78 <.LM5>:
     a78:	00 00       	nop
     a7a:	df 91       	pop	r29
     a7c:	cf 91       	pop	r28
     a7e:	08 95       	ret

00000a80 <STEPPER_FullStep>:
     a80:	0f 93       	push	r16
     a82:	1f 93       	push	r17
     a84:	cf 93       	push	r28
     a86:	df 93       	push	r29
     a88:	cd b7       	in	r28, 0x3d	; 61
     a8a:	de b7       	in	r29, 0x3e	; 62
     a8c:	cb 5a       	subi	r28, 0xAB	; 171
     a8e:	d1 09       	sbc	r29, r1
     a90:	0f b6       	in	r0, 0x3f	; 63
     a92:	f8 94       	cli
     a94:	de bf       	out	0x3e, r29	; 62
     a96:	0f be       	out	0x3f, r0	; 63
     a98:	cd bf       	out	0x3d, r28	; 61

00000a9a <.LM7>:
     a9a:	82 e0       	ldi	r24, 0x02	; 2
     a9c:	0e 94 ee 04 	call	0x9dc	; 0x9dc <DIO_GetPortValue>
     aa0:	89 83       	std	Y+1, r24	; 0x01

00000aa2 <.LM8>:
     aa2:	89 81       	ldd	r24, Y+1	; 0x01
     aa4:	88 2f       	mov	r24, r24
     aa6:	90 e0       	ldi	r25, 0x00	; 0
     aa8:	88 30       	cpi	r24, 0x08	; 8
     aaa:	91 05       	cpc	r25, r1
     aac:	09 f4       	brne	.+2      	; 0xab0 <L0^A+0x2>

00000aae <L0^A>:
     aae:	22 c3       	rjmp	.+1604   	; 0x10f4 <.L3>
     ab0:	88 30       	cpi	r24, 0x08	; 8
     ab2:	91 05       	cpc	r25, r1
     ab4:	11 f0       	breq	.+4      	; 0xaba <L0^A+0x2>

00000ab6 <L0^A>:
     ab6:	0c f0       	brlt	.+2      	; 0xaba <L0^A+0x2>

00000ab8 <L0^A>:
     ab8:	2b c4       	rjmp	.+2134   	; 0x1310 <.L4>
     aba:	84 30       	cpi	r24, 0x04	; 4
     abc:	91 05       	cpc	r25, r1
     abe:	09 f4       	brne	.+2      	; 0xac2 <L0^A+0x2>

00000ac0 <L0^A>:
     ac0:	50 c2       	rjmp	.+1184   	; 0xf62 <.L5>
     ac2:	84 30       	cpi	r24, 0x04	; 4
     ac4:	91 05       	cpc	r25, r1
     ac6:	11 f0       	breq	.+4      	; 0xacc <L0^A+0x2>

00000ac8 <L0^A>:
     ac8:	0c f0       	brlt	.+2      	; 0xacc <L0^A+0x2>

00000aca <L0^A>:
     aca:	22 c4       	rjmp	.+2116   	; 0x1310 <.L4>
     acc:	82 30       	cpi	r24, 0x02	; 2
     ace:	91 05       	cpc	r25, r1
     ad0:	09 f4       	brne	.+2      	; 0xad4 <L0^A+0x2>

00000ad2 <L0^A>:
     ad2:	7e c1       	rjmp	.+764    	; 0xdd0 <.L6>
     ad4:	82 30       	cpi	r24, 0x02	; 2
     ad6:	91 05       	cpc	r25, r1
     ad8:	11 f0       	breq	.+4      	; 0xade <L0^A+0x2>

00000ada <L0^A>:
     ada:	0c f0       	brlt	.+2      	; 0xade <L0^A+0x2>

00000adc <L0^A>:
     adc:	19 c4       	rjmp	.+2098   	; 0x1310 <.L4>
     ade:	00 97       	sbiw	r24, 0x00	; 0
     ae0:	29 f0       	breq	.+10     	; 0xaec <.L7>
     ae2:	81 30       	cpi	r24, 0x01	; 1
     ae4:	91 05       	cpc	r25, r1
     ae6:	09 f4       	brne	.+2      	; 0xaea <.LM9>

00000ae8 <L0^A>:
     ae8:	ba c0       	rjmp	.+372    	; 0xc5e <.L8>

00000aea <.LM9>:
     aea:	12 c4       	rjmp	.+2084   	; 0x1310 <.L4>

00000aec <.L7>:
     aec:	41 e0       	ldi	r20, 0x01	; 1
     aee:	60 e0       	ldi	r22, 0x00	; 0
     af0:	82 e0       	ldi	r24, 0x02	; 2
     af2:	0e 94 09 03 	call	0x612	; 0x612 <DIO_SetPinValue>

00000af6 <.LM11>:
     af6:	40 e0       	ldi	r20, 0x00	; 0
     af8:	61 e0       	ldi	r22, 0x01	; 1
     afa:	82 e0       	ldi	r24, 0x02	; 2
     afc:	0e 94 09 03 	call	0x612	; 0x612 <DIO_SetPinValue>

00000b00 <.LM12>:
     b00:	40 e0       	ldi	r20, 0x00	; 0
     b02:	62 e0       	ldi	r22, 0x02	; 2
     b04:	82 e0       	ldi	r24, 0x02	; 2
     b06:	0e 94 09 03 	call	0x612	; 0x612 <DIO_SetPinValue>

00000b0a <.LM13>:
     b0a:	40 e0       	ldi	r20, 0x00	; 0
     b0c:	63 e0       	ldi	r22, 0x03	; 3
     b0e:	82 e0       	ldi	r24, 0x02	; 2
     b10:	0e 94 09 03 	call	0x612	; 0x612 <DIO_SetPinValue>
     b14:	80 e0       	ldi	r24, 0x00	; 0
     b16:	90 e0       	ldi	r25, 0x00	; 0
     b18:	a0 ea       	ldi	r26, 0xA0	; 160
     b1a:	b0 e4       	ldi	r27, 0x40	; 64
     b1c:	8a 83       	std	Y+2, r24	; 0x02
     b1e:	9b 83       	std	Y+3, r25	; 0x03
     b20:	ac 83       	std	Y+4, r26	; 0x04
     b22:	bd 83       	std	Y+5, r27	; 0x05

00000b24 <.LM14>:
     b24:	20 e0       	ldi	r18, 0x00	; 0
     b26:	30 e0       	ldi	r19, 0x00	; 0
     b28:	4a ef       	ldi	r20, 0xFA	; 250
     b2a:	54 e4       	ldi	r21, 0x44	; 68
     b2c:	6a 81       	ldd	r22, Y+2	; 0x02
     b2e:	7b 81       	ldd	r23, Y+3	; 0x03
     b30:	8c 81       	ldd	r24, Y+4	; 0x04
     b32:	9d 81       	ldd	r25, Y+5	; 0x05
     b34:	0e 94 35 30 	call	0x606a	; 0x606a <__mulsf3>
     b38:	a0 96       	adiw	r28, 0x20	; 32
     b3a:	6c af       	std	Y+60, r22	; 0x3c
     b3c:	7d af       	std	Y+61, r23	; 0x3d
     b3e:	8e af       	std	Y+62, r24	; 0x3e
     b40:	9f af       	std	Y+63, r25	; 0x3f
     b42:	a0 97       	sbiw	r28, 0x20	; 32
     b44:	a0 96       	adiw	r28, 0x20	; 32
     b46:	8c ad       	ldd	r24, Y+60	; 0x3c
     b48:	9d ad       	ldd	r25, Y+61	; 0x3d
     b4a:	ae ad       	ldd	r26, Y+62	; 0x3e
     b4c:	bf ad       	ldd	r27, Y+63	; 0x3f
     b4e:	a0 97       	sbiw	r28, 0x20	; 32
     b50:	8e 83       	std	Y+6, r24	; 0x06
     b52:	9f 83       	std	Y+7, r25	; 0x07
     b54:	a8 87       	std	Y+8, r26	; 0x08
     b56:	b9 87       	std	Y+9, r27	; 0x09

00000b58 <.LM15>:
     b58:	20 e0       	ldi	r18, 0x00	; 0
     b5a:	30 e0       	ldi	r19, 0x00	; 0
     b5c:	40 e8       	ldi	r20, 0x80	; 128
     b5e:	5f e3       	ldi	r21, 0x3F	; 63
     b60:	6e 81       	ldd	r22, Y+6	; 0x06
     b62:	7f 81       	ldd	r23, Y+7	; 0x07
     b64:	88 85       	ldd	r24, Y+8	; 0x08
     b66:	99 85       	ldd	r25, Y+9	; 0x09
     b68:	0e 94 af 2f 	call	0x5f5e	; 0x5f5e <__cmpsf2>
     b6c:	88 23       	and	r24, r24
     b6e:	2c f4       	brge	.+10     	; 0xb7a <.L59>

00000b70 <.LM16>:
     b70:	81 e0       	ldi	r24, 0x01	; 1
     b72:	90 e0       	ldi	r25, 0x00	; 0
     b74:	9b 87       	std	Y+11, r25	; 0x0b
     b76:	8a 87       	std	Y+10, r24	; 0x0a
     b78:	66 c0       	rjmp	.+204    	; 0xc46 <.L11>

00000b7a <.L59>:
     b7a:	20 e0       	ldi	r18, 0x00	; 0
     b7c:	3f ef       	ldi	r19, 0xFF	; 255
     b7e:	4f e7       	ldi	r20, 0x7F	; 127
     b80:	57 e4       	ldi	r21, 0x47	; 71
     b82:	6e 81       	ldd	r22, Y+6	; 0x06
     b84:	7f 81       	ldd	r23, Y+7	; 0x07
     b86:	88 85       	ldd	r24, Y+8	; 0x08
     b88:	99 85       	ldd	r25, Y+9	; 0x09
     b8a:	0e 94 30 30 	call	0x6060	; 0x6060 <__gesf2>
     b8e:	88 23       	and	r24, r24
     b90:	09 f0       	breq	.+2      	; 0xb94 <L0^A>

00000b92 <L0^A>:
     b92:	0c f4       	brge	.+2      	; 0xb96 <.LM18>

00000b94 <L0^A>:
     b94:	46 c0       	rjmp	.+140    	; 0xc22 <.L60>

00000b96 <.LM18>:
     b96:	20 e0       	ldi	r18, 0x00	; 0
     b98:	30 e0       	ldi	r19, 0x00	; 0
     b9a:	40 e2       	ldi	r20, 0x20	; 32
     b9c:	51 e4       	ldi	r21, 0x41	; 65
     b9e:	6a 81       	ldd	r22, Y+2	; 0x02
     ba0:	7b 81       	ldd	r23, Y+3	; 0x03
     ba2:	8c 81       	ldd	r24, Y+4	; 0x04
     ba4:	9d 81       	ldd	r25, Y+5	; 0x05
     ba6:	0e 94 35 30 	call	0x606a	; 0x606a <__mulsf3>
     baa:	a4 96       	adiw	r28, 0x24	; 36
     bac:	6c af       	std	Y+60, r22	; 0x3c
     bae:	7d af       	std	Y+61, r23	; 0x3d
     bb0:	8e af       	std	Y+62, r24	; 0x3e
     bb2:	9f af       	std	Y+63, r25	; 0x3f
     bb4:	a4 97       	sbiw	r28, 0x24	; 36
     bb6:	a4 96       	adiw	r28, 0x24	; 36
     bb8:	8c ad       	ldd	r24, Y+60	; 0x3c
     bba:	9d ad       	ldd	r25, Y+61	; 0x3d
     bbc:	ae ad       	ldd	r26, Y+62	; 0x3e
     bbe:	bf ad       	ldd	r27, Y+63	; 0x3f
     bc0:	a4 97       	sbiw	r28, 0x24	; 36
     bc2:	2c 96       	adiw	r28, 0x0c	; 12
     bc4:	8c af       	std	Y+60, r24	; 0x3c
     bc6:	9d af       	std	Y+61, r25	; 0x3d
     bc8:	ae af       	std	Y+62, r26	; 0x3e
     bca:	bf af       	std	Y+63, r27	; 0x3f
     bcc:	2c 97       	sbiw	r28, 0x0c	; 12

00000bce <.LM19>:
     bce:	2c 96       	adiw	r28, 0x0c	; 12
     bd0:	6c ad       	ldd	r22, Y+60	; 0x3c
     bd2:	7d ad       	ldd	r23, Y+61	; 0x3d
     bd4:	8e ad       	ldd	r24, Y+62	; 0x3e
     bd6:	9f ad       	ldd	r25, Y+63	; 0x3f
     bd8:	2c 97       	sbiw	r28, 0x0c	; 12
     bda:	0e 94 b4 2f 	call	0x5f68	; 0x5f68 <__fixunssfsi>
     bde:	a8 96       	adiw	r28, 0x28	; 40
     be0:	6c af       	std	Y+60, r22	; 0x3c
     be2:	7d af       	std	Y+61, r23	; 0x3d
     be4:	8e af       	std	Y+62, r24	; 0x3e
     be6:	9f af       	std	Y+63, r25	; 0x3f
     be8:	a8 97       	sbiw	r28, 0x28	; 40
     bea:	a6 96       	adiw	r28, 0x26	; 38
     bec:	ae ad       	ldd	r26, Y+62	; 0x3e
     bee:	bf ad       	ldd	r27, Y+63	; 0x3f
     bf0:	a6 97       	sbiw	r28, 0x26	; 38
     bf2:	bb 87       	std	Y+11, r27	; 0x0b
     bf4:	aa 87       	std	Y+10, r26	; 0x0a

00000bf6 <.LM20>:
     bf6:	10 c0       	rjmp	.+32     	; 0xc18 <.L14>

00000bf8 <.L15>:
     bf8:	88 ec       	ldi	r24, 0xC8	; 200
     bfa:	90 e0       	ldi	r25, 0x00	; 0
     bfc:	9d 87       	std	Y+13, r25	; 0x0d
     bfe:	8c 87       	std	Y+12, r24	; 0x0c

00000c00 <.LM21>:
     c00:	8c 85       	ldd	r24, Y+12	; 0x0c
     c02:	9d 85       	ldd	r25, Y+13	; 0x0d

00000c04 <.L1^B1>:
     c04:	01 97       	sbiw	r24, 0x01	; 1
     c06:	f1 f7       	brne	.-4      	; 0xc04 <.L1^B1>
     c08:	9d 87       	std	Y+13, r25	; 0x0d
     c0a:	8c 87       	std	Y+12, r24	; 0x0c

00000c0c <.LM22>:
	...

00000c0e <.LM23>:
     c0e:	8a 85       	ldd	r24, Y+10	; 0x0a
     c10:	9b 85       	ldd	r25, Y+11	; 0x0b
     c12:	01 97       	sbiw	r24, 0x01	; 1
     c14:	9b 87       	std	Y+11, r25	; 0x0b
     c16:	8a 87       	std	Y+10, r24	; 0x0a

00000c18 <.L14>:
     c18:	8a 85       	ldd	r24, Y+10	; 0x0a
     c1a:	9b 85       	ldd	r25, Y+11	; 0x0b
     c1c:	00 97       	sbiw	r24, 0x00	; 0
     c1e:	61 f7       	brne	.-40     	; 0xbf8 <.L15>

00000c20 <.LM25>:
     c20:	1d c0       	rjmp	.+58     	; 0xc5c <.L16>

00000c22 <.L60>:
     c22:	6e 81       	ldd	r22, Y+6	; 0x06
     c24:	7f 81       	ldd	r23, Y+7	; 0x07
     c26:	88 85       	ldd	r24, Y+8	; 0x08
     c28:	99 85       	ldd	r25, Y+9	; 0x09
     c2a:	0e 94 b4 2f 	call	0x5f68	; 0x5f68 <__fixunssfsi>
     c2e:	ac 96       	adiw	r28, 0x2c	; 44
     c30:	6c af       	std	Y+60, r22	; 0x3c
     c32:	7d af       	std	Y+61, r23	; 0x3d
     c34:	8e af       	std	Y+62, r24	; 0x3e
     c36:	9f af       	std	Y+63, r25	; 0x3f
     c38:	ac 97       	sbiw	r28, 0x2c	; 44
     c3a:	aa 96       	adiw	r28, 0x2a	; 42
     c3c:	ee ad       	ldd	r30, Y+62	; 0x3e
     c3e:	ff ad       	ldd	r31, Y+63	; 0x3f
     c40:	aa 97       	sbiw	r28, 0x2a	; 42
     c42:	fb 87       	std	Y+11, r31	; 0x0b
     c44:	ea 87       	std	Y+10, r30	; 0x0a

00000c46 <.L11>:
     c46:	8a 85       	ldd	r24, Y+10	; 0x0a
     c48:	9b 85       	ldd	r25, Y+11	; 0x0b
     c4a:	9f 87       	std	Y+15, r25	; 0x0f
     c4c:	8e 87       	std	Y+14, r24	; 0x0e

00000c4e <.LM27>:
     c4e:	8e 85       	ldd	r24, Y+14	; 0x0e
     c50:	9f 85       	ldd	r25, Y+15	; 0x0f

00000c52 <.L1^B2>:
     c52:	01 97       	sbiw	r24, 0x01	; 1
     c54:	f1 f7       	brne	.-4      	; 0xc52 <.L1^B2>
     c56:	9f 87       	std	Y+15, r25	; 0x0f
     c58:	8e 87       	std	Y+14, r24	; 0x0e

00000c5a <.LM28>:
	...

00000c5c <.L16>:
     c5c:	59 c3       	rjmp	.+1714   	; 0x1310 <.L4>

00000c5e <.L8>:
     c5e:	40 e0       	ldi	r20, 0x00	; 0
     c60:	60 e0       	ldi	r22, 0x00	; 0
     c62:	82 e0       	ldi	r24, 0x02	; 2
     c64:	0e 94 09 03 	call	0x612	; 0x612 <DIO_SetPinValue>

00000c68 <.LM31>:
     c68:	41 e0       	ldi	r20, 0x01	; 1
     c6a:	61 e0       	ldi	r22, 0x01	; 1
     c6c:	82 e0       	ldi	r24, 0x02	; 2
     c6e:	0e 94 09 03 	call	0x612	; 0x612 <DIO_SetPinValue>

00000c72 <.LM32>:
     c72:	40 e0       	ldi	r20, 0x00	; 0
     c74:	62 e0       	ldi	r22, 0x02	; 2
     c76:	82 e0       	ldi	r24, 0x02	; 2
     c78:	0e 94 09 03 	call	0x612	; 0x612 <DIO_SetPinValue>

00000c7c <.LM33>:
     c7c:	40 e0       	ldi	r20, 0x00	; 0
     c7e:	63 e0       	ldi	r22, 0x03	; 3
     c80:	82 e0       	ldi	r24, 0x02	; 2
     c82:	0e 94 09 03 	call	0x612	; 0x612 <DIO_SetPinValue>
     c86:	80 e0       	ldi	r24, 0x00	; 0
     c88:	90 e0       	ldi	r25, 0x00	; 0
     c8a:	a0 ea       	ldi	r26, 0xA0	; 160
     c8c:	b0 e4       	ldi	r27, 0x40	; 64
     c8e:	88 8b       	std	Y+16, r24	; 0x10
     c90:	99 8b       	std	Y+17, r25	; 0x11
     c92:	aa 8b       	std	Y+18, r26	; 0x12
     c94:	bb 8b       	std	Y+19, r27	; 0x13

00000c96 <.LM34>:
     c96:	20 e0       	ldi	r18, 0x00	; 0
     c98:	30 e0       	ldi	r19, 0x00	; 0
     c9a:	4a ef       	ldi	r20, 0xFA	; 250
     c9c:	54 e4       	ldi	r21, 0x44	; 68
     c9e:	68 89       	ldd	r22, Y+16	; 0x10
     ca0:	79 89       	ldd	r23, Y+17	; 0x11
     ca2:	8a 89       	ldd	r24, Y+18	; 0x12
     ca4:	9b 89       	ldd	r25, Y+19	; 0x13
     ca6:	0e 94 35 30 	call	0x606a	; 0x606a <__mulsf3>
     caa:	e0 96       	adiw	r28, 0x30	; 48
     cac:	6c af       	std	Y+60, r22	; 0x3c
     cae:	7d af       	std	Y+61, r23	; 0x3d
     cb0:	8e af       	std	Y+62, r24	; 0x3e
     cb2:	9f af       	std	Y+63, r25	; 0x3f
     cb4:	e0 97       	sbiw	r28, 0x30	; 48
     cb6:	e0 96       	adiw	r28, 0x30	; 48
     cb8:	8c ad       	ldd	r24, Y+60	; 0x3c
     cba:	9d ad       	ldd	r25, Y+61	; 0x3d
     cbc:	ae ad       	ldd	r26, Y+62	; 0x3e
     cbe:	bf ad       	ldd	r27, Y+63	; 0x3f
     cc0:	e0 97       	sbiw	r28, 0x30	; 48
     cc2:	8c 8b       	std	Y+20, r24	; 0x14
     cc4:	9d 8b       	std	Y+21, r25	; 0x15
     cc6:	ae 8b       	std	Y+22, r26	; 0x16
     cc8:	bf 8b       	std	Y+23, r27	; 0x17

00000cca <.LM35>:
     cca:	20 e0       	ldi	r18, 0x00	; 0
     ccc:	30 e0       	ldi	r19, 0x00	; 0
     cce:	40 e8       	ldi	r20, 0x80	; 128
     cd0:	5f e3       	ldi	r21, 0x3F	; 63
     cd2:	6c 89       	ldd	r22, Y+20	; 0x14
     cd4:	7d 89       	ldd	r23, Y+21	; 0x15
     cd6:	8e 89       	ldd	r24, Y+22	; 0x16
     cd8:	9f 89       	ldd	r25, Y+23	; 0x17
     cda:	0e 94 af 2f 	call	0x5f5e	; 0x5f5e <__cmpsf2>
     cde:	88 23       	and	r24, r24
     ce0:	2c f4       	brge	.+10     	; 0xcec <.L61>

00000ce2 <.LM36>:
     ce2:	81 e0       	ldi	r24, 0x01	; 1
     ce4:	90 e0       	ldi	r25, 0x00	; 0
     ce6:	99 8f       	std	Y+25, r25	; 0x19
     ce8:	88 8f       	std	Y+24, r24	; 0x18
     cea:	66 c0       	rjmp	.+204    	; 0xdb8 <.L19>

00000cec <.L61>:
     cec:	20 e0       	ldi	r18, 0x00	; 0
     cee:	3f ef       	ldi	r19, 0xFF	; 255
     cf0:	4f e7       	ldi	r20, 0x7F	; 127
     cf2:	57 e4       	ldi	r21, 0x47	; 71
     cf4:	6c 89       	ldd	r22, Y+20	; 0x14
     cf6:	7d 89       	ldd	r23, Y+21	; 0x15
     cf8:	8e 89       	ldd	r24, Y+22	; 0x16
     cfa:	9f 89       	ldd	r25, Y+23	; 0x17
     cfc:	0e 94 30 30 	call	0x6060	; 0x6060 <__gesf2>
     d00:	88 23       	and	r24, r24
     d02:	09 f0       	breq	.+2      	; 0xd06 <L0^A>

00000d04 <L0^A>:
     d04:	0c f4       	brge	.+2      	; 0xd08 <.LM38>

00000d06 <L0^A>:
     d06:	46 c0       	rjmp	.+140    	; 0xd94 <.L62>

00000d08 <.LM38>:
     d08:	20 e0       	ldi	r18, 0x00	; 0
     d0a:	30 e0       	ldi	r19, 0x00	; 0
     d0c:	40 e2       	ldi	r20, 0x20	; 32
     d0e:	51 e4       	ldi	r21, 0x41	; 65
     d10:	68 89       	ldd	r22, Y+16	; 0x10
     d12:	79 89       	ldd	r23, Y+17	; 0x11
     d14:	8a 89       	ldd	r24, Y+18	; 0x12
     d16:	9b 89       	ldd	r25, Y+19	; 0x13
     d18:	0e 94 35 30 	call	0x606a	; 0x606a <__mulsf3>
     d1c:	e4 96       	adiw	r28, 0x34	; 52
     d1e:	6c af       	std	Y+60, r22	; 0x3c
     d20:	7d af       	std	Y+61, r23	; 0x3d
     d22:	8e af       	std	Y+62, r24	; 0x3e
     d24:	9f af       	std	Y+63, r25	; 0x3f
     d26:	e4 97       	sbiw	r28, 0x34	; 52
     d28:	e4 96       	adiw	r28, 0x34	; 52
     d2a:	8c ad       	ldd	r24, Y+60	; 0x3c
     d2c:	9d ad       	ldd	r25, Y+61	; 0x3d
     d2e:	ae ad       	ldd	r26, Y+62	; 0x3e
     d30:	bf ad       	ldd	r27, Y+63	; 0x3f
     d32:	e4 97       	sbiw	r28, 0x34	; 52
     d34:	60 96       	adiw	r28, 0x10	; 16
     d36:	8c af       	std	Y+60, r24	; 0x3c
     d38:	9d af       	std	Y+61, r25	; 0x3d
     d3a:	ae af       	std	Y+62, r26	; 0x3e
     d3c:	bf af       	std	Y+63, r27	; 0x3f
     d3e:	60 97       	sbiw	r28, 0x10	; 16

00000d40 <.LM39>:
     d40:	60 96       	adiw	r28, 0x10	; 16
     d42:	6c ad       	ldd	r22, Y+60	; 0x3c
     d44:	7d ad       	ldd	r23, Y+61	; 0x3d
     d46:	8e ad       	ldd	r24, Y+62	; 0x3e
     d48:	9f ad       	ldd	r25, Y+63	; 0x3f
     d4a:	60 97       	sbiw	r28, 0x10	; 16
     d4c:	0e 94 b4 2f 	call	0x5f68	; 0x5f68 <__fixunssfsi>
     d50:	e8 96       	adiw	r28, 0x38	; 56
     d52:	6c af       	std	Y+60, r22	; 0x3c
     d54:	7d af       	std	Y+61, r23	; 0x3d
     d56:	8e af       	std	Y+62, r24	; 0x3e
     d58:	9f af       	std	Y+63, r25	; 0x3f
     d5a:	e8 97       	sbiw	r28, 0x38	; 56
     d5c:	e6 96       	adiw	r28, 0x36	; 54
     d5e:	ae ad       	ldd	r26, Y+62	; 0x3e
     d60:	bf ad       	ldd	r27, Y+63	; 0x3f
     d62:	e6 97       	sbiw	r28, 0x36	; 54
     d64:	b9 8f       	std	Y+25, r27	; 0x19
     d66:	a8 8f       	std	Y+24, r26	; 0x18

00000d68 <.LM40>:
     d68:	10 c0       	rjmp	.+32     	; 0xd8a <.L22>

00000d6a <.L23>:
     d6a:	88 ec       	ldi	r24, 0xC8	; 200
     d6c:	90 e0       	ldi	r25, 0x00	; 0
     d6e:	9b 8f       	std	Y+27, r25	; 0x1b
     d70:	8a 8f       	std	Y+26, r24	; 0x1a

00000d72 <.LM41>:
     d72:	8a 8d       	ldd	r24, Y+26	; 0x1a
     d74:	9b 8d       	ldd	r25, Y+27	; 0x1b

00000d76 <.L1^B3>:
     d76:	01 97       	sbiw	r24, 0x01	; 1
     d78:	f1 f7       	brne	.-4      	; 0xd76 <.L1^B3>
     d7a:	9b 8f       	std	Y+27, r25	; 0x1b
     d7c:	8a 8f       	std	Y+26, r24	; 0x1a

00000d7e <.LM42>:
	...

00000d80 <.LM43>:
     d80:	88 8d       	ldd	r24, Y+24	; 0x18
     d82:	99 8d       	ldd	r25, Y+25	; 0x19
     d84:	01 97       	sbiw	r24, 0x01	; 1
     d86:	99 8f       	std	Y+25, r25	; 0x19
     d88:	88 8f       	std	Y+24, r24	; 0x18

00000d8a <.L22>:
     d8a:	88 8d       	ldd	r24, Y+24	; 0x18
     d8c:	99 8d       	ldd	r25, Y+25	; 0x19
     d8e:	00 97       	sbiw	r24, 0x00	; 0
     d90:	61 f7       	brne	.-40     	; 0xd6a <.L23>

00000d92 <.LM45>:
     d92:	1d c0       	rjmp	.+58     	; 0xdce <.L24>

00000d94 <.L62>:
     d94:	6c 89       	ldd	r22, Y+20	; 0x14
     d96:	7d 89       	ldd	r23, Y+21	; 0x15
     d98:	8e 89       	ldd	r24, Y+22	; 0x16
     d9a:	9f 89       	ldd	r25, Y+23	; 0x17
     d9c:	0e 94 b4 2f 	call	0x5f68	; 0x5f68 <__fixunssfsi>
     da0:	ec 96       	adiw	r28, 0x3c	; 60
     da2:	6c af       	std	Y+60, r22	; 0x3c
     da4:	7d af       	std	Y+61, r23	; 0x3d
     da6:	8e af       	std	Y+62, r24	; 0x3e
     da8:	9f af       	std	Y+63, r25	; 0x3f
     daa:	ec 97       	sbiw	r28, 0x3c	; 60
     dac:	ea 96       	adiw	r28, 0x3a	; 58
     dae:	ee ad       	ldd	r30, Y+62	; 0x3e
     db0:	ff ad       	ldd	r31, Y+63	; 0x3f
     db2:	ea 97       	sbiw	r28, 0x3a	; 58
     db4:	f9 8f       	std	Y+25, r31	; 0x19
     db6:	e8 8f       	std	Y+24, r30	; 0x18

00000db8 <.L19>:
     db8:	88 8d       	ldd	r24, Y+24	; 0x18
     dba:	99 8d       	ldd	r25, Y+25	; 0x19
     dbc:	9d 8f       	std	Y+29, r25	; 0x1d
     dbe:	8c 8f       	std	Y+28, r24	; 0x1c

00000dc0 <.LM47>:
     dc0:	8c 8d       	ldd	r24, Y+28	; 0x1c
     dc2:	9d 8d       	ldd	r25, Y+29	; 0x1d

00000dc4 <.L1^B4>:
     dc4:	01 97       	sbiw	r24, 0x01	; 1
     dc6:	f1 f7       	brne	.-4      	; 0xdc4 <.L1^B4>
     dc8:	9d 8f       	std	Y+29, r25	; 0x1d
     dca:	8c 8f       	std	Y+28, r24	; 0x1c

00000dcc <.LM48>:
	...

00000dce <.L24>:
     dce:	a0 c2       	rjmp	.+1344   	; 0x1310 <.L4>

00000dd0 <.L6>:
     dd0:	40 e0       	ldi	r20, 0x00	; 0
     dd2:	60 e0       	ldi	r22, 0x00	; 0
     dd4:	82 e0       	ldi	r24, 0x02	; 2
     dd6:	0e 94 09 03 	call	0x612	; 0x612 <DIO_SetPinValue>

00000dda <.LM51>:
     dda:	40 e0       	ldi	r20, 0x00	; 0
     ddc:	61 e0       	ldi	r22, 0x01	; 1
     dde:	82 e0       	ldi	r24, 0x02	; 2
     de0:	0e 94 09 03 	call	0x612	; 0x612 <DIO_SetPinValue>

00000de4 <.LM52>:
     de4:	41 e0       	ldi	r20, 0x01	; 1
     de6:	62 e0       	ldi	r22, 0x02	; 2
     de8:	82 e0       	ldi	r24, 0x02	; 2
     dea:	0e 94 09 03 	call	0x612	; 0x612 <DIO_SetPinValue>

00000dee <.LM53>:
     dee:	40 e0       	ldi	r20, 0x00	; 0
     df0:	63 e0       	ldi	r22, 0x03	; 3
     df2:	82 e0       	ldi	r24, 0x02	; 2
     df4:	0e 94 09 03 	call	0x612	; 0x612 <DIO_SetPinValue>
     df8:	80 e0       	ldi	r24, 0x00	; 0
     dfa:	90 e0       	ldi	r25, 0x00	; 0
     dfc:	a0 ea       	ldi	r26, 0xA0	; 160
     dfe:	b0 e4       	ldi	r27, 0x40	; 64
     e00:	8e 8f       	std	Y+30, r24	; 0x1e
     e02:	9f 8f       	std	Y+31, r25	; 0x1f
     e04:	a8 a3       	std	Y+32, r26	; 0x20
     e06:	b9 a3       	std	Y+33, r27	; 0x21

00000e08 <.LM54>:
     e08:	20 e0       	ldi	r18, 0x00	; 0
     e0a:	30 e0       	ldi	r19, 0x00	; 0
     e0c:	4a ef       	ldi	r20, 0xFA	; 250
     e0e:	54 e4       	ldi	r21, 0x44	; 68
     e10:	6e 8d       	ldd	r22, Y+30	; 0x1e
     e12:	7f 8d       	ldd	r23, Y+31	; 0x1f
     e14:	88 a1       	ldd	r24, Y+32	; 0x20
     e16:	99 a1       	ldd	r25, Y+33	; 0x21
     e18:	0e 94 35 30 	call	0x606a	; 0x606a <__mulsf3>
     e1c:	c4 58       	subi	r28, 0x84	; 132
     e1e:	df 4f       	sbci	r29, 0xFF	; 255
     e20:	68 83       	st	Y, r22
     e22:	79 83       	std	Y+1, r23	; 0x01
     e24:	8a 83       	std	Y+2, r24	; 0x02
     e26:	9b 83       	std	Y+3, r25	; 0x03
     e28:	cc 57       	subi	r28, 0x7C	; 124
     e2a:	d0 40       	sbci	r29, 0x00	; 0
     e2c:	c4 58       	subi	r28, 0x84	; 132
     e2e:	df 4f       	sbci	r29, 0xFF	; 255
     e30:	88 81       	ld	r24, Y
     e32:	99 81       	ldd	r25, Y+1	; 0x01
     e34:	aa 81       	ldd	r26, Y+2	; 0x02
     e36:	bb 81       	ldd	r27, Y+3	; 0x03
     e38:	cc 57       	subi	r28, 0x7C	; 124
     e3a:	d0 40       	sbci	r29, 0x00	; 0
     e3c:	8a a3       	std	Y+34, r24	; 0x22
     e3e:	9b a3       	std	Y+35, r25	; 0x23
     e40:	ac a3       	std	Y+36, r26	; 0x24
     e42:	bd a3       	std	Y+37, r27	; 0x25

00000e44 <.LM55>:
     e44:	20 e0       	ldi	r18, 0x00	; 0
     e46:	30 e0       	ldi	r19, 0x00	; 0
     e48:	40 e8       	ldi	r20, 0x80	; 128
     e4a:	5f e3       	ldi	r21, 0x3F	; 63
     e4c:	6a a1       	ldd	r22, Y+34	; 0x22
     e4e:	7b a1       	ldd	r23, Y+35	; 0x23
     e50:	8c a1       	ldd	r24, Y+36	; 0x24
     e52:	9d a1       	ldd	r25, Y+37	; 0x25
     e54:	0e 94 af 2f 	call	0x5f5e	; 0x5f5e <__cmpsf2>
     e58:	88 23       	and	r24, r24
     e5a:	2c f4       	brge	.+10     	; 0xe66 <.L63>

00000e5c <.LM56>:
     e5c:	81 e0       	ldi	r24, 0x01	; 1
     e5e:	90 e0       	ldi	r25, 0x00	; 0
     e60:	9f a3       	std	Y+39, r25	; 0x27
     e62:	8e a3       	std	Y+38, r24	; 0x26
     e64:	72 c0       	rjmp	.+228    	; 0xf4a <.L27>

00000e66 <.L63>:
     e66:	20 e0       	ldi	r18, 0x00	; 0
     e68:	3f ef       	ldi	r19, 0xFF	; 255
     e6a:	4f e7       	ldi	r20, 0x7F	; 127
     e6c:	57 e4       	ldi	r21, 0x47	; 71
     e6e:	6a a1       	ldd	r22, Y+34	; 0x22
     e70:	7b a1       	ldd	r23, Y+35	; 0x23
     e72:	8c a1       	ldd	r24, Y+36	; 0x24
     e74:	9d a1       	ldd	r25, Y+37	; 0x25
     e76:	0e 94 30 30 	call	0x6060	; 0x6060 <__gesf2>
     e7a:	88 23       	and	r24, r24
     e7c:	09 f0       	breq	.+2      	; 0xe80 <L0^A>

00000e7e <L0^A>:
     e7e:	0c f4       	brge	.+2      	; 0xe82 <.LM58>

00000e80 <L0^A>:
     e80:	4e c0       	rjmp	.+156    	; 0xf1e <.L64>

00000e82 <.LM58>:
     e82:	20 e0       	ldi	r18, 0x00	; 0
     e84:	30 e0       	ldi	r19, 0x00	; 0
     e86:	40 e2       	ldi	r20, 0x20	; 32
     e88:	51 e4       	ldi	r21, 0x41	; 65
     e8a:	6e 8d       	ldd	r22, Y+30	; 0x1e
     e8c:	7f 8d       	ldd	r23, Y+31	; 0x1f
     e8e:	88 a1       	ldd	r24, Y+32	; 0x20
     e90:	99 a1       	ldd	r25, Y+33	; 0x21
     e92:	0e 94 35 30 	call	0x606a	; 0x606a <__mulsf3>
     e96:	c0 58       	subi	r28, 0x80	; 128
     e98:	df 4f       	sbci	r29, 0xFF	; 255
     e9a:	68 83       	st	Y, r22
     e9c:	79 83       	std	Y+1, r23	; 0x01
     e9e:	8a 83       	std	Y+2, r24	; 0x02
     ea0:	9b 83       	std	Y+3, r25	; 0x03
     ea2:	c0 58       	subi	r28, 0x80	; 128
     ea4:	d0 40       	sbci	r29, 0x00	; 0
     ea6:	c0 58       	subi	r28, 0x80	; 128
     ea8:	df 4f       	sbci	r29, 0xFF	; 255
     eaa:	88 81       	ld	r24, Y
     eac:	99 81       	ldd	r25, Y+1	; 0x01
     eae:	aa 81       	ldd	r26, Y+2	; 0x02
     eb0:	bb 81       	ldd	r27, Y+3	; 0x03
     eb2:	c0 58       	subi	r28, 0x80	; 128
     eb4:	d0 40       	sbci	r29, 0x00	; 0
     eb6:	64 96       	adiw	r28, 0x14	; 20
     eb8:	8c af       	std	Y+60, r24	; 0x3c
     eba:	9d af       	std	Y+61, r25	; 0x3d
     ebc:	ae af       	std	Y+62, r26	; 0x3e
     ebe:	bf af       	std	Y+63, r27	; 0x3f
     ec0:	64 97       	sbiw	r28, 0x14	; 20

00000ec2 <.LM59>:
     ec2:	64 96       	adiw	r28, 0x14	; 20
     ec4:	6c ad       	ldd	r22, Y+60	; 0x3c
     ec6:	7d ad       	ldd	r23, Y+61	; 0x3d
     ec8:	8e ad       	ldd	r24, Y+62	; 0x3e
     eca:	9f ad       	ldd	r25, Y+63	; 0x3f
     ecc:	64 97       	sbiw	r28, 0x14	; 20
     ece:	0e 94 b4 2f 	call	0x5f68	; 0x5f68 <__fixunssfsi>
     ed2:	cc 57       	subi	r28, 0x7C	; 124
     ed4:	df 4f       	sbci	r29, 0xFF	; 255
     ed6:	68 83       	st	Y, r22
     ed8:	79 83       	std	Y+1, r23	; 0x01
     eda:	8a 83       	std	Y+2, r24	; 0x02
     edc:	9b 83       	std	Y+3, r25	; 0x03
     ede:	c4 58       	subi	r28, 0x84	; 132
     ee0:	d0 40       	sbci	r29, 0x00	; 0
     ee2:	cc 57       	subi	r28, 0x7C	; 124
     ee4:	df 4f       	sbci	r29, 0xFF	; 255
     ee6:	a8 81       	ld	r26, Y
     ee8:	b9 81       	ldd	r27, Y+1	; 0x01
     eea:	c4 58       	subi	r28, 0x84	; 132
     eec:	d0 40       	sbci	r29, 0x00	; 0
     eee:	bf a3       	std	Y+39, r27	; 0x27
     ef0:	ae a3       	std	Y+38, r26	; 0x26

00000ef2 <.LM60>:
     ef2:	10 c0       	rjmp	.+32     	; 0xf14 <.L30>

00000ef4 <.L31>:
     ef4:	88 ec       	ldi	r24, 0xC8	; 200
     ef6:	90 e0       	ldi	r25, 0x00	; 0
     ef8:	99 a7       	std	Y+41, r25	; 0x29
     efa:	88 a7       	std	Y+40, r24	; 0x28

00000efc <.LM61>:
     efc:	88 a5       	ldd	r24, Y+40	; 0x28
     efe:	99 a5       	ldd	r25, Y+41	; 0x29

00000f00 <.L1^B5>:
     f00:	01 97       	sbiw	r24, 0x01	; 1
     f02:	f1 f7       	brne	.-4      	; 0xf00 <.L1^B5>
     f04:	99 a7       	std	Y+41, r25	; 0x29
     f06:	88 a7       	std	Y+40, r24	; 0x28

00000f08 <.LM62>:
	...

00000f0a <.LM63>:
     f0a:	8e a1       	ldd	r24, Y+38	; 0x26
     f0c:	9f a1       	ldd	r25, Y+39	; 0x27
     f0e:	01 97       	sbiw	r24, 0x01	; 1
     f10:	9f a3       	std	Y+39, r25	; 0x27
     f12:	8e a3       	std	Y+38, r24	; 0x26

00000f14 <.L30>:
     f14:	8e a1       	ldd	r24, Y+38	; 0x26
     f16:	9f a1       	ldd	r25, Y+39	; 0x27
     f18:	00 97       	sbiw	r24, 0x00	; 0
     f1a:	61 f7       	brne	.-40     	; 0xef4 <.L31>

00000f1c <.LM65>:
     f1c:	21 c0       	rjmp	.+66     	; 0xf60 <.L32>

00000f1e <.L64>:
     f1e:	6a a1       	ldd	r22, Y+34	; 0x22
     f20:	7b a1       	ldd	r23, Y+35	; 0x23
     f22:	8c a1       	ldd	r24, Y+36	; 0x24
     f24:	9d a1       	ldd	r25, Y+37	; 0x25
     f26:	0e 94 b4 2f 	call	0x5f68	; 0x5f68 <__fixunssfsi>
     f2a:	c8 57       	subi	r28, 0x78	; 120
     f2c:	df 4f       	sbci	r29, 0xFF	; 255
     f2e:	68 83       	st	Y, r22
     f30:	79 83       	std	Y+1, r23	; 0x01
     f32:	8a 83       	std	Y+2, r24	; 0x02
     f34:	9b 83       	std	Y+3, r25	; 0x03
     f36:	c8 58       	subi	r28, 0x88	; 136
     f38:	d0 40       	sbci	r29, 0x00	; 0
     f3a:	c8 57       	subi	r28, 0x78	; 120
     f3c:	df 4f       	sbci	r29, 0xFF	; 255
     f3e:	e8 81       	ld	r30, Y
     f40:	f9 81       	ldd	r31, Y+1	; 0x01
     f42:	c8 58       	subi	r28, 0x88	; 136
     f44:	d0 40       	sbci	r29, 0x00	; 0
     f46:	ff a3       	std	Y+39, r31	; 0x27
     f48:	ee a3       	std	Y+38, r30	; 0x26

00000f4a <.L27>:
     f4a:	8e a1       	ldd	r24, Y+38	; 0x26
     f4c:	9f a1       	ldd	r25, Y+39	; 0x27
     f4e:	9b a7       	std	Y+43, r25	; 0x2b
     f50:	8a a7       	std	Y+42, r24	; 0x2a

00000f52 <.LM67>:
     f52:	8a a5       	ldd	r24, Y+42	; 0x2a
     f54:	9b a5       	ldd	r25, Y+43	; 0x2b

00000f56 <.L1^B6>:
     f56:	01 97       	sbiw	r24, 0x01	; 1
     f58:	f1 f7       	brne	.-4      	; 0xf56 <.L1^B6>
     f5a:	9b a7       	std	Y+43, r25	; 0x2b
     f5c:	8a a7       	std	Y+42, r24	; 0x2a

00000f5e <.LM68>:
	...

00000f60 <.L32>:
     f60:	d7 c1       	rjmp	.+942    	; 0x1310 <.L4>

00000f62 <.L5>:
     f62:	40 e0       	ldi	r20, 0x00	; 0
     f64:	60 e0       	ldi	r22, 0x00	; 0
     f66:	82 e0       	ldi	r24, 0x02	; 2
     f68:	0e 94 09 03 	call	0x612	; 0x612 <DIO_SetPinValue>

00000f6c <.LM71>:
     f6c:	40 e0       	ldi	r20, 0x00	; 0
     f6e:	61 e0       	ldi	r22, 0x01	; 1
     f70:	82 e0       	ldi	r24, 0x02	; 2
     f72:	0e 94 09 03 	call	0x612	; 0x612 <DIO_SetPinValue>

00000f76 <.LM72>:
     f76:	40 e0       	ldi	r20, 0x00	; 0
     f78:	62 e0       	ldi	r22, 0x02	; 2
     f7a:	82 e0       	ldi	r24, 0x02	; 2
     f7c:	0e 94 09 03 	call	0x612	; 0x612 <DIO_SetPinValue>

00000f80 <.LM73>:
     f80:	41 e0       	ldi	r20, 0x01	; 1
     f82:	63 e0       	ldi	r22, 0x03	; 3
     f84:	82 e0       	ldi	r24, 0x02	; 2
     f86:	0e 94 09 03 	call	0x612	; 0x612 <DIO_SetPinValue>
     f8a:	80 e0       	ldi	r24, 0x00	; 0
     f8c:	90 e0       	ldi	r25, 0x00	; 0
     f8e:	a0 ea       	ldi	r26, 0xA0	; 160
     f90:	b0 e4       	ldi	r27, 0x40	; 64
     f92:	8c a7       	std	Y+44, r24	; 0x2c
     f94:	9d a7       	std	Y+45, r25	; 0x2d
     f96:	ae a7       	std	Y+46, r26	; 0x2e
     f98:	bf a7       	std	Y+47, r27	; 0x2f

00000f9a <.LM74>:
     f9a:	20 e0       	ldi	r18, 0x00	; 0
     f9c:	30 e0       	ldi	r19, 0x00	; 0
     f9e:	4a ef       	ldi	r20, 0xFA	; 250
     fa0:	54 e4       	ldi	r21, 0x44	; 68
     fa2:	6c a5       	ldd	r22, Y+44	; 0x2c
     fa4:	7d a5       	ldd	r23, Y+45	; 0x2d
     fa6:	8e a5       	ldd	r24, Y+46	; 0x2e
     fa8:	9f a5       	ldd	r25, Y+47	; 0x2f
     faa:	0e 94 35 30 	call	0x606a	; 0x606a <__mulsf3>
     fae:	c4 57       	subi	r28, 0x74	; 116
     fb0:	df 4f       	sbci	r29, 0xFF	; 255
     fb2:	68 83       	st	Y, r22
     fb4:	79 83       	std	Y+1, r23	; 0x01
     fb6:	8a 83       	std	Y+2, r24	; 0x02
     fb8:	9b 83       	std	Y+3, r25	; 0x03
     fba:	cc 58       	subi	r28, 0x8C	; 140
     fbc:	d0 40       	sbci	r29, 0x00	; 0
     fbe:	c4 57       	subi	r28, 0x74	; 116
     fc0:	df 4f       	sbci	r29, 0xFF	; 255
     fc2:	88 81       	ld	r24, Y
     fc4:	99 81       	ldd	r25, Y+1	; 0x01
     fc6:	aa 81       	ldd	r26, Y+2	; 0x02
     fc8:	bb 81       	ldd	r27, Y+3	; 0x03
     fca:	cc 58       	subi	r28, 0x8C	; 140
     fcc:	d0 40       	sbci	r29, 0x00	; 0
     fce:	88 ab       	std	Y+48, r24	; 0x30
     fd0:	99 ab       	std	Y+49, r25	; 0x31
     fd2:	aa ab       	std	Y+50, r26	; 0x32
     fd4:	bb ab       	std	Y+51, r27	; 0x33

00000fd6 <.LM75>:
     fd6:	20 e0       	ldi	r18, 0x00	; 0
     fd8:	30 e0       	ldi	r19, 0x00	; 0
     fda:	40 e8       	ldi	r20, 0x80	; 128
     fdc:	5f e3       	ldi	r21, 0x3F	; 63
     fde:	68 a9       	ldd	r22, Y+48	; 0x30
     fe0:	79 a9       	ldd	r23, Y+49	; 0x31
     fe2:	8a a9       	ldd	r24, Y+50	; 0x32
     fe4:	9b a9       	ldd	r25, Y+51	; 0x33
     fe6:	0e 94 af 2f 	call	0x5f5e	; 0x5f5e <__cmpsf2>
     fea:	88 23       	and	r24, r24
     fec:	2c f4       	brge	.+10     	; 0xff8 <.L65>

00000fee <.LM76>:
     fee:	81 e0       	ldi	r24, 0x01	; 1
     ff0:	90 e0       	ldi	r25, 0x00	; 0
     ff2:	9d ab       	std	Y+53, r25	; 0x35
     ff4:	8c ab       	std	Y+52, r24	; 0x34
     ff6:	72 c0       	rjmp	.+228    	; 0x10dc <.L35>

00000ff8 <.L65>:
     ff8:	20 e0       	ldi	r18, 0x00	; 0
     ffa:	3f ef       	ldi	r19, 0xFF	; 255
     ffc:	4f e7       	ldi	r20, 0x7F	; 127
     ffe:	57 e4       	ldi	r21, 0x47	; 71
    1000:	68 a9       	ldd	r22, Y+48	; 0x30
    1002:	79 a9       	ldd	r23, Y+49	; 0x31
    1004:	8a a9       	ldd	r24, Y+50	; 0x32
    1006:	9b a9       	ldd	r25, Y+51	; 0x33
    1008:	0e 94 30 30 	call	0x6060	; 0x6060 <__gesf2>
    100c:	88 23       	and	r24, r24
    100e:	09 f0       	breq	.+2      	; 0x1012 <L0^A>

00001010 <L0^A>:
    1010:	0c f4       	brge	.+2      	; 0x1014 <.LM78>

00001012 <L0^A>:
    1012:	4e c0       	rjmp	.+156    	; 0x10b0 <.L66>

00001014 <.LM78>:
    1014:	20 e0       	ldi	r18, 0x00	; 0
    1016:	30 e0       	ldi	r19, 0x00	; 0
    1018:	40 e2       	ldi	r20, 0x20	; 32
    101a:	51 e4       	ldi	r21, 0x41	; 65
    101c:	6c a5       	ldd	r22, Y+44	; 0x2c
    101e:	7d a5       	ldd	r23, Y+45	; 0x2d
    1020:	8e a5       	ldd	r24, Y+46	; 0x2e
    1022:	9f a5       	ldd	r25, Y+47	; 0x2f
    1024:	0e 94 35 30 	call	0x606a	; 0x606a <__mulsf3>
    1028:	c0 57       	subi	r28, 0x70	; 112
    102a:	df 4f       	sbci	r29, 0xFF	; 255
    102c:	68 83       	st	Y, r22
    102e:	79 83       	std	Y+1, r23	; 0x01
    1030:	8a 83       	std	Y+2, r24	; 0x02
    1032:	9b 83       	std	Y+3, r25	; 0x03
    1034:	c0 59       	subi	r28, 0x90	; 144
    1036:	d0 40       	sbci	r29, 0x00	; 0
    1038:	c0 57       	subi	r28, 0x70	; 112
    103a:	df 4f       	sbci	r29, 0xFF	; 255
    103c:	88 81       	ld	r24, Y
    103e:	99 81       	ldd	r25, Y+1	; 0x01
    1040:	aa 81       	ldd	r26, Y+2	; 0x02
    1042:	bb 81       	ldd	r27, Y+3	; 0x03
    1044:	c0 59       	subi	r28, 0x90	; 144
    1046:	d0 40       	sbci	r29, 0x00	; 0
    1048:	68 96       	adiw	r28, 0x18	; 24
    104a:	8c af       	std	Y+60, r24	; 0x3c
    104c:	9d af       	std	Y+61, r25	; 0x3d
    104e:	ae af       	std	Y+62, r26	; 0x3e
    1050:	bf af       	std	Y+63, r27	; 0x3f
    1052:	68 97       	sbiw	r28, 0x18	; 24

00001054 <.LM79>:
    1054:	68 96       	adiw	r28, 0x18	; 24
    1056:	6c ad       	ldd	r22, Y+60	; 0x3c
    1058:	7d ad       	ldd	r23, Y+61	; 0x3d
    105a:	8e ad       	ldd	r24, Y+62	; 0x3e
    105c:	9f ad       	ldd	r25, Y+63	; 0x3f
    105e:	68 97       	sbiw	r28, 0x18	; 24
    1060:	0e 94 b4 2f 	call	0x5f68	; 0x5f68 <__fixunssfsi>
    1064:	cc 56       	subi	r28, 0x6C	; 108
    1066:	df 4f       	sbci	r29, 0xFF	; 255
    1068:	68 83       	st	Y, r22
    106a:	79 83       	std	Y+1, r23	; 0x01
    106c:	8a 83       	std	Y+2, r24	; 0x02
    106e:	9b 83       	std	Y+3, r25	; 0x03
    1070:	c4 59       	subi	r28, 0x94	; 148
    1072:	d0 40       	sbci	r29, 0x00	; 0
    1074:	cc 56       	subi	r28, 0x6C	; 108
    1076:	df 4f       	sbci	r29, 0xFF	; 255
    1078:	a8 81       	ld	r26, Y
    107a:	b9 81       	ldd	r27, Y+1	; 0x01
    107c:	c4 59       	subi	r28, 0x94	; 148
    107e:	d0 40       	sbci	r29, 0x00	; 0
    1080:	bd ab       	std	Y+53, r27	; 0x35
    1082:	ac ab       	std	Y+52, r26	; 0x34

00001084 <.LM80>:
    1084:	10 c0       	rjmp	.+32     	; 0x10a6 <.L38>

00001086 <.L39>:
    1086:	88 ec       	ldi	r24, 0xC8	; 200
    1088:	90 e0       	ldi	r25, 0x00	; 0
    108a:	9f ab       	std	Y+55, r25	; 0x37
    108c:	8e ab       	std	Y+54, r24	; 0x36

0000108e <.LM81>:
    108e:	8e a9       	ldd	r24, Y+54	; 0x36
    1090:	9f a9       	ldd	r25, Y+55	; 0x37

00001092 <.L1^B7>:
    1092:	01 97       	sbiw	r24, 0x01	; 1
    1094:	f1 f7       	brne	.-4      	; 0x1092 <.L1^B7>
    1096:	9f ab       	std	Y+55, r25	; 0x37
    1098:	8e ab       	std	Y+54, r24	; 0x36

0000109a <.LM82>:
	...

0000109c <.LM83>:
    109c:	8c a9       	ldd	r24, Y+52	; 0x34
    109e:	9d a9       	ldd	r25, Y+53	; 0x35
    10a0:	01 97       	sbiw	r24, 0x01	; 1
    10a2:	9d ab       	std	Y+53, r25	; 0x35
    10a4:	8c ab       	std	Y+52, r24	; 0x34

000010a6 <.L38>:
    10a6:	8c a9       	ldd	r24, Y+52	; 0x34
    10a8:	9d a9       	ldd	r25, Y+53	; 0x35
    10aa:	00 97       	sbiw	r24, 0x00	; 0
    10ac:	61 f7       	brne	.-40     	; 0x1086 <.L39>

000010ae <.LM85>:
    10ae:	21 c0       	rjmp	.+66     	; 0x10f2 <.L40>

000010b0 <.L66>:
    10b0:	68 a9       	ldd	r22, Y+48	; 0x30
    10b2:	79 a9       	ldd	r23, Y+49	; 0x31
    10b4:	8a a9       	ldd	r24, Y+50	; 0x32
    10b6:	9b a9       	ldd	r25, Y+51	; 0x33
    10b8:	0e 94 b4 2f 	call	0x5f68	; 0x5f68 <__fixunssfsi>
    10bc:	c8 56       	subi	r28, 0x68	; 104
    10be:	df 4f       	sbci	r29, 0xFF	; 255
    10c0:	68 83       	st	Y, r22
    10c2:	79 83       	std	Y+1, r23	; 0x01
    10c4:	8a 83       	std	Y+2, r24	; 0x02
    10c6:	9b 83       	std	Y+3, r25	; 0x03
    10c8:	c8 59       	subi	r28, 0x98	; 152
    10ca:	d0 40       	sbci	r29, 0x00	; 0
    10cc:	c8 56       	subi	r28, 0x68	; 104
    10ce:	df 4f       	sbci	r29, 0xFF	; 255
    10d0:	e8 81       	ld	r30, Y
    10d2:	f9 81       	ldd	r31, Y+1	; 0x01
    10d4:	c8 59       	subi	r28, 0x98	; 152
    10d6:	d0 40       	sbci	r29, 0x00	; 0
    10d8:	fd ab       	std	Y+53, r31	; 0x35
    10da:	ec ab       	std	Y+52, r30	; 0x34

000010dc <.L35>:
    10dc:	8c a9       	ldd	r24, Y+52	; 0x34
    10de:	9d a9       	ldd	r25, Y+53	; 0x35
    10e0:	99 af       	std	Y+57, r25	; 0x39
    10e2:	88 af       	std	Y+56, r24	; 0x38

000010e4 <.LM87>:
    10e4:	88 ad       	ldd	r24, Y+56	; 0x38
    10e6:	99 ad       	ldd	r25, Y+57	; 0x39

000010e8 <.L1^B8>:
    10e8:	01 97       	sbiw	r24, 0x01	; 1
    10ea:	f1 f7       	brne	.-4      	; 0x10e8 <.L1^B8>
    10ec:	99 af       	std	Y+57, r25	; 0x39
    10ee:	88 af       	std	Y+56, r24	; 0x38

000010f0 <.LM88>:
	...

000010f2 <.L40>:
    10f2:	0e c1       	rjmp	.+540    	; 0x1310 <.L4>

000010f4 <.L3>:
    10f4:	41 e0       	ldi	r20, 0x01	; 1
    10f6:	60 e0       	ldi	r22, 0x00	; 0
    10f8:	82 e0       	ldi	r24, 0x02	; 2
    10fa:	0e 94 09 03 	call	0x612	; 0x612 <DIO_SetPinValue>

000010fe <.LM91>:
    10fe:	40 e0       	ldi	r20, 0x00	; 0
    1100:	61 e0       	ldi	r22, 0x01	; 1
    1102:	82 e0       	ldi	r24, 0x02	; 2
    1104:	0e 94 09 03 	call	0x612	; 0x612 <DIO_SetPinValue>

00001108 <.LM92>:
    1108:	40 e0       	ldi	r20, 0x00	; 0
    110a:	62 e0       	ldi	r22, 0x02	; 2
    110c:	82 e0       	ldi	r24, 0x02	; 2
    110e:	0e 94 09 03 	call	0x612	; 0x612 <DIO_SetPinValue>

00001112 <.LM93>:
    1112:	40 e0       	ldi	r20, 0x00	; 0
    1114:	63 e0       	ldi	r22, 0x03	; 3
    1116:	82 e0       	ldi	r24, 0x02	; 2
    1118:	0e 94 09 03 	call	0x612	; 0x612 <DIO_SetPinValue>
    111c:	80 e0       	ldi	r24, 0x00	; 0
    111e:	90 e0       	ldi	r25, 0x00	; 0
    1120:	a0 ea       	ldi	r26, 0xA0	; 160
    1122:	b0 e4       	ldi	r27, 0x40	; 64
    1124:	8a af       	std	Y+58, r24	; 0x3a
    1126:	9b af       	std	Y+59, r25	; 0x3b
    1128:	ac af       	std	Y+60, r26	; 0x3c
    112a:	bd af       	std	Y+61, r27	; 0x3d

0000112c <.LM94>:
    112c:	8e 01       	movw	r16, r28
    112e:	02 5c       	subi	r16, 0xC2	; 194
    1130:	1f 4f       	sbci	r17, 0xFF	; 255
    1132:	20 e0       	ldi	r18, 0x00	; 0
    1134:	30 e0       	ldi	r19, 0x00	; 0
    1136:	4a ef       	ldi	r20, 0xFA	; 250
    1138:	54 e4       	ldi	r21, 0x44	; 68
    113a:	6a ad       	ldd	r22, Y+58	; 0x3a
    113c:	7b ad       	ldd	r23, Y+59	; 0x3b
    113e:	8c ad       	ldd	r24, Y+60	; 0x3c
    1140:	9d ad       	ldd	r25, Y+61	; 0x3d
    1142:	0e 94 35 30 	call	0x606a	; 0x606a <__mulsf3>
    1146:	c4 56       	subi	r28, 0x64	; 100
    1148:	df 4f       	sbci	r29, 0xFF	; 255
    114a:	68 83       	st	Y, r22
    114c:	79 83       	std	Y+1, r23	; 0x01
    114e:	8a 83       	std	Y+2, r24	; 0x02
    1150:	9b 83       	std	Y+3, r25	; 0x03
    1152:	cc 59       	subi	r28, 0x9C	; 156
    1154:	d0 40       	sbci	r29, 0x00	; 0
    1156:	c4 56       	subi	r28, 0x64	; 100
    1158:	df 4f       	sbci	r29, 0xFF	; 255
    115a:	88 81       	ld	r24, Y
    115c:	99 81       	ldd	r25, Y+1	; 0x01
    115e:	aa 81       	ldd	r26, Y+2	; 0x02
    1160:	bb 81       	ldd	r27, Y+3	; 0x03
    1162:	cc 59       	subi	r28, 0x9C	; 156
    1164:	d0 40       	sbci	r29, 0x00	; 0
    1166:	f8 01       	movw	r30, r16
    1168:	80 83       	st	Z, r24
    116a:	91 83       	std	Z+1, r25	; 0x01
    116c:	a2 83       	std	Z+2, r26	; 0x02
    116e:	b3 83       	std	Z+3, r27	; 0x03

00001170 <.LM95>:
    1170:	ce 01       	movw	r24, r28
    1172:	ce 96       	adiw	r24, 0x3e	; 62
    1174:	20 e0       	ldi	r18, 0x00	; 0
    1176:	30 e0       	ldi	r19, 0x00	; 0
    1178:	40 e8       	ldi	r20, 0x80	; 128
    117a:	5f e3       	ldi	r21, 0x3F	; 63
    117c:	dc 01       	movw	r26, r24
    117e:	6d 91       	ld	r22, X+
    1180:	7d 91       	ld	r23, X+
    1182:	8d 91       	ld	r24, X+
    1184:	9c 91       	ld	r25, X
    1186:	0e 94 af 2f 	call	0x5f5e	; 0x5f5e <__cmpsf2>
    118a:	88 23       	and	r24, r24
    118c:	4c f4       	brge	.+18     	; 0x11a0 <.L67>

0000118e <.LM96>:
    118e:	ce 01       	movw	r24, r28
    1190:	8e 5b       	subi	r24, 0xBE	; 190
    1192:	9f 4f       	sbci	r25, 0xFF	; 255
    1194:	21 e0       	ldi	r18, 0x01	; 1
    1196:	30 e0       	ldi	r19, 0x00	; 0
    1198:	fc 01       	movw	r30, r24
    119a:	31 83       	std	Z+1, r19	; 0x01
    119c:	20 83       	st	Z, r18
    119e:	9b c0       	rjmp	.+310    	; 0x12d6 <.L43>

000011a0 <.L67>:
    11a0:	ce 01       	movw	r24, r28
    11a2:	ce 96       	adiw	r24, 0x3e	; 62
    11a4:	20 e0       	ldi	r18, 0x00	; 0
    11a6:	3f ef       	ldi	r19, 0xFF	; 255
    11a8:	4f e7       	ldi	r20, 0x7F	; 127
    11aa:	57 e4       	ldi	r21, 0x47	; 71
    11ac:	dc 01       	movw	r26, r24
    11ae:	6d 91       	ld	r22, X+
    11b0:	7d 91       	ld	r23, X+
    11b2:	8d 91       	ld	r24, X+
    11b4:	9c 91       	ld	r25, X
    11b6:	0e 94 30 30 	call	0x6060	; 0x6060 <__gesf2>
    11ba:	88 23       	and	r24, r24
    11bc:	09 f0       	breq	.+2      	; 0x11c0 <L0^A>

000011be <L0^A>:
    11be:	0c f4       	brge	.+2      	; 0x11c2 <.LM98>

000011c0 <L0^A>:
    11c0:	6d c0       	rjmp	.+218    	; 0x129c <.L68>

000011c2 <.LM98>:
    11c2:	20 e0       	ldi	r18, 0x00	; 0
    11c4:	30 e0       	ldi	r19, 0x00	; 0
    11c6:	40 e2       	ldi	r20, 0x20	; 32
    11c8:	51 e4       	ldi	r21, 0x41	; 65
    11ca:	6a ad       	ldd	r22, Y+58	; 0x3a
    11cc:	7b ad       	ldd	r23, Y+59	; 0x3b
    11ce:	8c ad       	ldd	r24, Y+60	; 0x3c
    11d0:	9d ad       	ldd	r25, Y+61	; 0x3d
    11d2:	0e 94 35 30 	call	0x606a	; 0x606a <__mulsf3>
    11d6:	c0 56       	subi	r28, 0x60	; 96
    11d8:	df 4f       	sbci	r29, 0xFF	; 255
    11da:	68 83       	st	Y, r22
    11dc:	79 83       	std	Y+1, r23	; 0x01
    11de:	8a 83       	std	Y+2, r24	; 0x02
    11e0:	9b 83       	std	Y+3, r25	; 0x03
    11e2:	c0 5a       	subi	r28, 0xA0	; 160
    11e4:	d0 40       	sbci	r29, 0x00	; 0
    11e6:	c0 56       	subi	r28, 0x60	; 96
    11e8:	df 4f       	sbci	r29, 0xFF	; 255
    11ea:	88 81       	ld	r24, Y
    11ec:	99 81       	ldd	r25, Y+1	; 0x01
    11ee:	aa 81       	ldd	r26, Y+2	; 0x02
    11f0:	bb 81       	ldd	r27, Y+3	; 0x03
    11f2:	c0 5a       	subi	r28, 0xA0	; 160
    11f4:	d0 40       	sbci	r29, 0x00	; 0
    11f6:	6c 96       	adiw	r28, 0x1c	; 28
    11f8:	8c af       	std	Y+60, r24	; 0x3c
    11fa:	9d af       	std	Y+61, r25	; 0x3d
    11fc:	ae af       	std	Y+62, r26	; 0x3e
    11fe:	bf af       	std	Y+63, r27	; 0x3f
    1200:	6c 97       	sbiw	r28, 0x1c	; 28

00001202 <.LM99>:
    1202:	8e 01       	movw	r16, r28
    1204:	0e 5b       	subi	r16, 0xBE	; 190
    1206:	1f 4f       	sbci	r17, 0xFF	; 255
    1208:	6c 96       	adiw	r28, 0x1c	; 28
    120a:	6c ad       	ldd	r22, Y+60	; 0x3c
    120c:	7d ad       	ldd	r23, Y+61	; 0x3d
    120e:	8e ad       	ldd	r24, Y+62	; 0x3e
    1210:	9f ad       	ldd	r25, Y+63	; 0x3f
    1212:	6c 97       	sbiw	r28, 0x1c	; 28
    1214:	0e 94 b4 2f 	call	0x5f68	; 0x5f68 <__fixunssfsi>
    1218:	cc 55       	subi	r28, 0x5C	; 92
    121a:	df 4f       	sbci	r29, 0xFF	; 255
    121c:	68 83       	st	Y, r22
    121e:	79 83       	std	Y+1, r23	; 0x01
    1220:	8a 83       	std	Y+2, r24	; 0x02
    1222:	9b 83       	std	Y+3, r25	; 0x03
    1224:	c4 5a       	subi	r28, 0xA4	; 164
    1226:	d0 40       	sbci	r29, 0x00	; 0
    1228:	cc 55       	subi	r28, 0x5C	; 92
    122a:	df 4f       	sbci	r29, 0xFF	; 255
    122c:	e8 81       	ld	r30, Y
    122e:	f9 81       	ldd	r31, Y+1	; 0x01
    1230:	c4 5a       	subi	r28, 0xA4	; 164
    1232:	d0 40       	sbci	r29, 0x00	; 0
    1234:	d8 01       	movw	r26, r16
    1236:	11 96       	adiw	r26, 0x01	; 1
    1238:	fc 93       	st	X, r31
    123a:	ee 93       	st	-X, r30

0000123c <.LM100>:
    123c:	26 c0       	rjmp	.+76     	; 0x128a <.L46>

0000123e <.L47>:
    123e:	ce 01       	movw	r24, r28
    1240:	8c 5b       	subi	r24, 0xBC	; 188
    1242:	9f 4f       	sbci	r25, 0xFF	; 255
    1244:	28 ec       	ldi	r18, 0xC8	; 200
    1246:	30 e0       	ldi	r19, 0x00	; 0
    1248:	dc 01       	movw	r26, r24
    124a:	2d 93       	st	X+, r18
    124c:	3c 93       	st	X, r19

0000124e <.LM101>:
    124e:	ce 01       	movw	r24, r28
    1250:	8c 5b       	subi	r24, 0xBC	; 188
    1252:	9f 4f       	sbci	r25, 0xFF	; 255
    1254:	fc 01       	movw	r30, r24
    1256:	80 81       	ld	r24, Z
    1258:	91 81       	ldd	r25, Z+1	; 0x01

0000125a <.L1^B9>:
    125a:	01 97       	sbiw	r24, 0x01	; 1
    125c:	f1 f7       	brne	.-4      	; 0x125a <.L1^B9>
    125e:	9e 01       	movw	r18, r28
    1260:	2c 5b       	subi	r18, 0xBC	; 188
    1262:	3f 4f       	sbci	r19, 0xFF	; 255
    1264:	d9 01       	movw	r26, r18
    1266:	8d 93       	st	X+, r24
    1268:	9c 93       	st	X, r25

0000126a <.LM102>:
	...

0000126c <.LM103>:
    126c:	ce 01       	movw	r24, r28
    126e:	8e 5b       	subi	r24, 0xBE	; 190
    1270:	9f 4f       	sbci	r25, 0xFF	; 255
    1272:	9e 01       	movw	r18, r28
    1274:	2e 5b       	subi	r18, 0xBE	; 190
    1276:	3f 4f       	sbci	r19, 0xFF	; 255
    1278:	f9 01       	movw	r30, r18
    127a:	20 81       	ld	r18, Z
    127c:	31 81       	ldd	r19, Z+1	; 0x01
    127e:	21 50       	subi	r18, 0x01	; 1
    1280:	31 09       	sbc	r19, r1
    1282:	dc 01       	movw	r26, r24
    1284:	11 96       	adiw	r26, 0x01	; 1
    1286:	3c 93       	st	X, r19
    1288:	2e 93       	st	-X, r18

0000128a <.L46>:
    128a:	ce 01       	movw	r24, r28
    128c:	8e 5b       	subi	r24, 0xBE	; 190
    128e:	9f 4f       	sbci	r25, 0xFF	; 255
    1290:	fc 01       	movw	r30, r24
    1292:	80 81       	ld	r24, Z
    1294:	91 81       	ldd	r25, Z+1	; 0x01
    1296:	00 97       	sbiw	r24, 0x00	; 0
    1298:	91 f6       	brne	.-92     	; 0x123e <.L47>

0000129a <.LM105>:
    129a:	39 c0       	rjmp	.+114    	; 0x130e <.L48>

0000129c <.L68>:
    129c:	8e 01       	movw	r16, r28
    129e:	0e 5b       	subi	r16, 0xBE	; 190
    12a0:	1f 4f       	sbci	r17, 0xFF	; 255
    12a2:	ce 01       	movw	r24, r28
    12a4:	ce 96       	adiw	r24, 0x3e	; 62
    12a6:	dc 01       	movw	r26, r24
    12a8:	6d 91       	ld	r22, X+
    12aa:	7d 91       	ld	r23, X+
    12ac:	8d 91       	ld	r24, X+
    12ae:	9c 91       	ld	r25, X
    12b0:	0e 94 b4 2f 	call	0x5f68	; 0x5f68 <__fixunssfsi>
    12b4:	c8 55       	subi	r28, 0x58	; 88
    12b6:	df 4f       	sbci	r29, 0xFF	; 255
    12b8:	68 83       	st	Y, r22
    12ba:	79 83       	std	Y+1, r23	; 0x01
    12bc:	8a 83       	std	Y+2, r24	; 0x02
    12be:	9b 83       	std	Y+3, r25	; 0x03
    12c0:	c8 5a       	subi	r28, 0xA8	; 168
    12c2:	d0 40       	sbci	r29, 0x00	; 0
    12c4:	c8 55       	subi	r28, 0x58	; 88
    12c6:	df 4f       	sbci	r29, 0xFF	; 255
    12c8:	88 81       	ld	r24, Y
    12ca:	99 81       	ldd	r25, Y+1	; 0x01
    12cc:	c8 5a       	subi	r28, 0xA8	; 168
    12ce:	d0 40       	sbci	r29, 0x00	; 0
    12d0:	f8 01       	movw	r30, r16
    12d2:	91 83       	std	Z+1, r25	; 0x01
    12d4:	80 83       	st	Z, r24

000012d6 <.L43>:
    12d6:	ce 01       	movw	r24, r28
    12d8:	8a 5b       	subi	r24, 0xBA	; 186
    12da:	9f 4f       	sbci	r25, 0xFF	; 255
    12dc:	9e 01       	movw	r18, r28
    12de:	2e 5b       	subi	r18, 0xBE	; 190
    12e0:	3f 4f       	sbci	r19, 0xFF	; 255
    12e2:	d9 01       	movw	r26, r18
    12e4:	2d 91       	ld	r18, X+
    12e6:	3c 91       	ld	r19, X
    12e8:	fc 01       	movw	r30, r24
    12ea:	31 83       	std	Z+1, r19	; 0x01
    12ec:	20 83       	st	Z, r18

000012ee <.LM107>:
    12ee:	ce 01       	movw	r24, r28
    12f0:	8a 5b       	subi	r24, 0xBA	; 186
    12f2:	9f 4f       	sbci	r25, 0xFF	; 255
    12f4:	dc 01       	movw	r26, r24
    12f6:	8d 91       	ld	r24, X+
    12f8:	9c 91       	ld	r25, X
    12fa:	11 97       	sbiw	r26, 0x01	; 1

000012fc <.L1^B10>:
    12fc:	01 97       	sbiw	r24, 0x01	; 1
    12fe:	f1 f7       	brne	.-4      	; 0x12fc <.L1^B10>
    1300:	9e 01       	movw	r18, r28
    1302:	2a 5b       	subi	r18, 0xBA	; 186
    1304:	3f 4f       	sbci	r19, 0xFF	; 255
    1306:	f9 01       	movw	r30, r18
    1308:	91 83       	std	Z+1, r25	; 0x01
    130a:	80 83       	st	Z, r24

0000130c <.LM108>:
	...

0000130e <.L48>:
	...

00001310 <.L4>:
    1310:	00 00       	nop
    1312:	c5 55       	subi	r28, 0x55	; 85
    1314:	df 4f       	sbci	r29, 0xFF	; 255
    1316:	0f b6       	in	r0, 0x3f	; 63
    1318:	f8 94       	cli
    131a:	de bf       	out	0x3e, r29	; 62
    131c:	0f be       	out	0x3f, r0	; 63
    131e:	cd bf       	out	0x3d, r28	; 61
    1320:	df 91       	pop	r29
    1322:	cf 91       	pop	r28
    1324:	1f 91       	pop	r17
    1326:	0f 91       	pop	r16
    1328:	08 95       	ret

0000132a <STEPPER_HalfStep>:
    132a:	0f 93       	push	r16
    132c:	1f 93       	push	r17
    132e:	cf 93       	push	r28
    1330:	df 93       	push	r29
    1332:	cd b7       	in	r28, 0x3d	; 61
    1334:	de b7       	in	r29, 0x3e	; 62
    1336:	c3 53       	subi	r28, 0x33	; 51
    1338:	d1 40       	sbci	r29, 0x01	; 1
    133a:	0f b6       	in	r0, 0x3f	; 63
    133c:	f8 94       	cli
    133e:	de bf       	out	0x3e, r29	; 62
    1340:	0f be       	out	0x3f, r0	; 63
    1342:	cd bf       	out	0x3d, r28	; 61

00001344 <.LM112>:
    1344:	82 e0       	ldi	r24, 0x02	; 2
    1346:	0e 94 ee 04 	call	0x9dc	; 0x9dc <DIO_GetPortValue>
    134a:	89 83       	std	Y+1, r24	; 0x01

0000134c <.LM113>:
    134c:	89 81       	ldd	r24, Y+1	; 0x01
    134e:	88 2f       	mov	r24, r24
    1350:	90 e0       	ldi	r25, 0x00	; 0
    1352:	a0 e0       	ldi	r26, 0x00	; 0
    1354:	b0 e0       	ldi	r27, 0x00	; 0
    1356:	8c 30       	cpi	r24, 0x0C	; 12
    1358:	91 05       	cpc	r25, r1
    135a:	a1 05       	cpc	r26, r1
    135c:	b1 05       	cpc	r27, r1
    135e:	19 f0       	breq	.+6      	; 0x1366 <L0^A+0x4>

00001360 <L0^A>:
    1360:	10 f0       	brcs	.+4      	; 0x1366 <L0^A+0x4>

00001362 <L0^A>:
    1362:	0c 94 83 12 	jmp	0x2506	; 0x2506 <.L190>
    1366:	84 53       	subi	r24, 0x34	; 52
    1368:	9f 4c       	sbci	r25, 0xCF	; 207
    136a:	fc 01       	movw	r30, r24
    136c:	0c 94 87 2f 	jmp	0x5f0e	; 0x5f0e <__tablejump2__>

00001370 <.L81>:
    1370:	41 e0       	ldi	r20, 0x01	; 1
    1372:	60 e0       	ldi	r22, 0x00	; 0
    1374:	82 e0       	ldi	r24, 0x02	; 2
    1376:	0e 94 09 03 	call	0x612	; 0x612 <DIO_SetPinValue>

0000137a <.LM115>:
    137a:	40 e0       	ldi	r20, 0x00	; 0
    137c:	61 e0       	ldi	r22, 0x01	; 1
    137e:	82 e0       	ldi	r24, 0x02	; 2
    1380:	0e 94 09 03 	call	0x612	; 0x612 <DIO_SetPinValue>

00001384 <.LM116>:
    1384:	40 e0       	ldi	r20, 0x00	; 0
    1386:	62 e0       	ldi	r22, 0x02	; 2
    1388:	82 e0       	ldi	r24, 0x02	; 2
    138a:	0e 94 09 03 	call	0x612	; 0x612 <DIO_SetPinValue>

0000138e <.LM117>:
    138e:	41 e0       	ldi	r20, 0x01	; 1
    1390:	63 e0       	ldi	r22, 0x03	; 3
    1392:	82 e0       	ldi	r24, 0x02	; 2
    1394:	0e 94 09 03 	call	0x612	; 0x612 <DIO_SetPinValue>
    1398:	80 e0       	ldi	r24, 0x00	; 0
    139a:	90 e0       	ldi	r25, 0x00	; 0
    139c:	a0 ea       	ldi	r26, 0xA0	; 160
    139e:	b0 e4       	ldi	r27, 0x40	; 64
    13a0:	8a 83       	std	Y+2, r24	; 0x02
    13a2:	9b 83       	std	Y+3, r25	; 0x03
    13a4:	ac 83       	std	Y+4, r26	; 0x04
    13a6:	bd 83       	std	Y+5, r27	; 0x05

000013a8 <.LM118>:
    13a8:	20 e0       	ldi	r18, 0x00	; 0
    13aa:	30 e0       	ldi	r19, 0x00	; 0
    13ac:	4a ef       	ldi	r20, 0xFA	; 250
    13ae:	54 e4       	ldi	r21, 0x44	; 68
    13b0:	6a 81       	ldd	r22, Y+2	; 0x02
    13b2:	7b 81       	ldd	r23, Y+3	; 0x03
    13b4:	8c 81       	ldd	r24, Y+4	; 0x04
    13b6:	9d 81       	ldd	r25, Y+5	; 0x05
    13b8:	0e 94 35 30 	call	0x606a	; 0x606a <__mulsf3>
    13bc:	cc 55       	subi	r28, 0x5C	; 92
    13be:	df 4f       	sbci	r29, 0xFF	; 255
    13c0:	68 83       	st	Y, r22
    13c2:	79 83       	std	Y+1, r23	; 0x01
    13c4:	8a 83       	std	Y+2, r24	; 0x02
    13c6:	9b 83       	std	Y+3, r25	; 0x03
    13c8:	c4 5a       	subi	r28, 0xA4	; 164
    13ca:	d0 40       	sbci	r29, 0x00	; 0
    13cc:	cc 55       	subi	r28, 0x5C	; 92
    13ce:	df 4f       	sbci	r29, 0xFF	; 255
    13d0:	88 81       	ld	r24, Y
    13d2:	99 81       	ldd	r25, Y+1	; 0x01
    13d4:	aa 81       	ldd	r26, Y+2	; 0x02
    13d6:	bb 81       	ldd	r27, Y+3	; 0x03
    13d8:	c4 5a       	subi	r28, 0xA4	; 164
    13da:	d0 40       	sbci	r29, 0x00	; 0
    13dc:	8e 83       	std	Y+6, r24	; 0x06
    13de:	9f 83       	std	Y+7, r25	; 0x07
    13e0:	a8 87       	std	Y+8, r26	; 0x08
    13e2:	b9 87       	std	Y+9, r27	; 0x09

000013e4 <.LM119>:
    13e4:	20 e0       	ldi	r18, 0x00	; 0
    13e6:	30 e0       	ldi	r19, 0x00	; 0
    13e8:	40 e8       	ldi	r20, 0x80	; 128
    13ea:	5f e3       	ldi	r21, 0x3F	; 63
    13ec:	6e 81       	ldd	r22, Y+6	; 0x06
    13ee:	7f 81       	ldd	r23, Y+7	; 0x07
    13f0:	88 85       	ldd	r24, Y+8	; 0x08
    13f2:	99 85       	ldd	r25, Y+9	; 0x09
    13f4:	0e 94 af 2f 	call	0x5f5e	; 0x5f5e <__cmpsf2>
    13f8:	88 23       	and	r24, r24
    13fa:	2c f4       	brge	.+10     	; 0x1406 <.L172>

000013fc <.LM120>:
    13fc:	81 e0       	ldi	r24, 0x01	; 1
    13fe:	90 e0       	ldi	r25, 0x00	; 0
    1400:	9b 87       	std	Y+11, r25	; 0x0b
    1402:	8a 87       	std	Y+10, r24	; 0x0a
    1404:	76 c0       	rjmp	.+236    	; 0x14f2 <.L84>

00001406 <.L172>:
    1406:	20 e0       	ldi	r18, 0x00	; 0
    1408:	3f ef       	ldi	r19, 0xFF	; 255
    140a:	4f e7       	ldi	r20, 0x7F	; 127
    140c:	57 e4       	ldi	r21, 0x47	; 71
    140e:	6e 81       	ldd	r22, Y+6	; 0x06
    1410:	7f 81       	ldd	r23, Y+7	; 0x07
    1412:	88 85       	ldd	r24, Y+8	; 0x08
    1414:	99 85       	ldd	r25, Y+9	; 0x09
    1416:	0e 94 30 30 	call	0x6060	; 0x6060 <__gesf2>
    141a:	88 23       	and	r24, r24
    141c:	09 f0       	breq	.+2      	; 0x1420 <L0^A>

0000141e <L0^A>:
    141e:	0c f4       	brge	.+2      	; 0x1422 <.LM122>

00001420 <L0^A>:
    1420:	52 c0       	rjmp	.+164    	; 0x14c6 <.L173>

00001422 <.LM122>:
    1422:	20 e0       	ldi	r18, 0x00	; 0
    1424:	30 e0       	ldi	r19, 0x00	; 0
    1426:	40 e2       	ldi	r20, 0x20	; 32
    1428:	51 e4       	ldi	r21, 0x41	; 65
    142a:	6a 81       	ldd	r22, Y+2	; 0x02
    142c:	7b 81       	ldd	r23, Y+3	; 0x03
    142e:	8c 81       	ldd	r24, Y+4	; 0x04
    1430:	9d 81       	ldd	r25, Y+5	; 0x05
    1432:	0e 94 35 30 	call	0x606a	; 0x606a <__mulsf3>
    1436:	c8 55       	subi	r28, 0x58	; 88
    1438:	df 4f       	sbci	r29, 0xFF	; 255
    143a:	68 83       	st	Y, r22
    143c:	79 83       	std	Y+1, r23	; 0x01
    143e:	8a 83       	std	Y+2, r24	; 0x02
    1440:	9b 83       	std	Y+3, r25	; 0x03
    1442:	c8 5a       	subi	r28, 0xA8	; 168
    1444:	d0 40       	sbci	r29, 0x00	; 0
    1446:	c8 55       	subi	r28, 0x58	; 88
    1448:	df 4f       	sbci	r29, 0xFF	; 255
    144a:	88 81       	ld	r24, Y
    144c:	99 81       	ldd	r25, Y+1	; 0x01
    144e:	aa 81       	ldd	r26, Y+2	; 0x02
    1450:	bb 81       	ldd	r27, Y+3	; 0x03
    1452:	c8 5a       	subi	r28, 0xA8	; 168
    1454:	d0 40       	sbci	r29, 0x00	; 0
    1456:	c0 58       	subi	r28, 0x80	; 128
    1458:	df 4f       	sbci	r29, 0xFF	; 255
    145a:	88 83       	st	Y, r24
    145c:	99 83       	std	Y+1, r25	; 0x01
    145e:	aa 83       	std	Y+2, r26	; 0x02
    1460:	bb 83       	std	Y+3, r27	; 0x03
    1462:	c0 58       	subi	r28, 0x80	; 128
    1464:	d0 40       	sbci	r29, 0x00	; 0

00001466 <.LM123>:
    1466:	c0 58       	subi	r28, 0x80	; 128
    1468:	df 4f       	sbci	r29, 0xFF	; 255
    146a:	68 81       	ld	r22, Y
    146c:	79 81       	ldd	r23, Y+1	; 0x01
    146e:	8a 81       	ldd	r24, Y+2	; 0x02
    1470:	9b 81       	ldd	r25, Y+3	; 0x03
    1472:	c0 58       	subi	r28, 0x80	; 128
    1474:	d0 40       	sbci	r29, 0x00	; 0
    1476:	0e 94 b4 2f 	call	0x5f68	; 0x5f68 <__fixunssfsi>
    147a:	c4 55       	subi	r28, 0x54	; 84
    147c:	df 4f       	sbci	r29, 0xFF	; 255
    147e:	68 83       	st	Y, r22
    1480:	79 83       	std	Y+1, r23	; 0x01
    1482:	8a 83       	std	Y+2, r24	; 0x02
    1484:	9b 83       	std	Y+3, r25	; 0x03
    1486:	cc 5a       	subi	r28, 0xAC	; 172
    1488:	d0 40       	sbci	r29, 0x00	; 0
    148a:	c4 55       	subi	r28, 0x54	; 84
    148c:	df 4f       	sbci	r29, 0xFF	; 255
    148e:	a8 81       	ld	r26, Y
    1490:	b9 81       	ldd	r27, Y+1	; 0x01
    1492:	cc 5a       	subi	r28, 0xAC	; 172
    1494:	d0 40       	sbci	r29, 0x00	; 0
    1496:	bb 87       	std	Y+11, r27	; 0x0b
    1498:	aa 87       	std	Y+10, r26	; 0x0a

0000149a <.LM124>:
    149a:	10 c0       	rjmp	.+32     	; 0x14bc <.L87>

0000149c <.L88>:
    149c:	88 ec       	ldi	r24, 0xC8	; 200
    149e:	90 e0       	ldi	r25, 0x00	; 0
    14a0:	9d 87       	std	Y+13, r25	; 0x0d
    14a2:	8c 87       	std	Y+12, r24	; 0x0c

000014a4 <.LM125>:
    14a4:	8c 85       	ldd	r24, Y+12	; 0x0c
    14a6:	9d 85       	ldd	r25, Y+13	; 0x0d

000014a8 <.L1^B11>:
    14a8:	01 97       	sbiw	r24, 0x01	; 1
    14aa:	f1 f7       	brne	.-4      	; 0x14a8 <.L1^B11>
    14ac:	9d 87       	std	Y+13, r25	; 0x0d
    14ae:	8c 87       	std	Y+12, r24	; 0x0c

000014b0 <.LM126>:
	...

000014b2 <.LM127>:
    14b2:	8a 85       	ldd	r24, Y+10	; 0x0a
    14b4:	9b 85       	ldd	r25, Y+11	; 0x0b
    14b6:	01 97       	sbiw	r24, 0x01	; 1
    14b8:	9b 87       	std	Y+11, r25	; 0x0b
    14ba:	8a 87       	std	Y+10, r24	; 0x0a

000014bc <.L87>:
    14bc:	8a 85       	ldd	r24, Y+10	; 0x0a
    14be:	9b 85       	ldd	r25, Y+11	; 0x0b
    14c0:	00 97       	sbiw	r24, 0x00	; 0
    14c2:	61 f7       	brne	.-40     	; 0x149c <.L88>

000014c4 <.LM129>:
    14c4:	21 c0       	rjmp	.+66     	; 0x1508 <.L89>

000014c6 <.L173>:
    14c6:	6e 81       	ldd	r22, Y+6	; 0x06
    14c8:	7f 81       	ldd	r23, Y+7	; 0x07
    14ca:	88 85       	ldd	r24, Y+8	; 0x08
    14cc:	99 85       	ldd	r25, Y+9	; 0x09
    14ce:	0e 94 b4 2f 	call	0x5f68	; 0x5f68 <__fixunssfsi>
    14d2:	c0 55       	subi	r28, 0x50	; 80
    14d4:	df 4f       	sbci	r29, 0xFF	; 255
    14d6:	68 83       	st	Y, r22
    14d8:	79 83       	std	Y+1, r23	; 0x01
    14da:	8a 83       	std	Y+2, r24	; 0x02
    14dc:	9b 83       	std	Y+3, r25	; 0x03
    14de:	c0 5b       	subi	r28, 0xB0	; 176
    14e0:	d0 40       	sbci	r29, 0x00	; 0
    14e2:	c0 55       	subi	r28, 0x50	; 80
    14e4:	df 4f       	sbci	r29, 0xFF	; 255
    14e6:	e8 81       	ld	r30, Y
    14e8:	f9 81       	ldd	r31, Y+1	; 0x01
    14ea:	c0 5b       	subi	r28, 0xB0	; 176
    14ec:	d0 40       	sbci	r29, 0x00	; 0
    14ee:	fb 87       	std	Y+11, r31	; 0x0b
    14f0:	ea 87       	std	Y+10, r30	; 0x0a

000014f2 <.L84>:
    14f2:	8a 85       	ldd	r24, Y+10	; 0x0a
    14f4:	9b 85       	ldd	r25, Y+11	; 0x0b
    14f6:	9f 87       	std	Y+15, r25	; 0x0f
    14f8:	8e 87       	std	Y+14, r24	; 0x0e

000014fa <.LM131>:
    14fa:	8e 85       	ldd	r24, Y+14	; 0x0e
    14fc:	9f 85       	ldd	r25, Y+15	; 0x0f

000014fe <.L1^B12>:
    14fe:	01 97       	sbiw	r24, 0x01	; 1
    1500:	f1 f7       	brne	.-4      	; 0x14fe <.L1^B12>
    1502:	9f 87       	std	Y+15, r25	; 0x0f
    1504:	8e 87       	std	Y+14, r24	; 0x0e

00001506 <.LM132>:
	...

00001508 <.L89>:
    1508:	0c 94 83 12 	jmp	0x2506	; 0x2506 <.L190>

0000150c <.L74>:
    150c:	41 e0       	ldi	r20, 0x01	; 1
    150e:	60 e0       	ldi	r22, 0x00	; 0
    1510:	82 e0       	ldi	r24, 0x02	; 2
    1512:	0e 94 09 03 	call	0x612	; 0x612 <DIO_SetPinValue>

00001516 <.LM135>:
    1516:	40 e0       	ldi	r20, 0x00	; 0
    1518:	61 e0       	ldi	r22, 0x01	; 1
    151a:	82 e0       	ldi	r24, 0x02	; 2
    151c:	0e 94 09 03 	call	0x612	; 0x612 <DIO_SetPinValue>

00001520 <.LM136>:
    1520:	40 e0       	ldi	r20, 0x00	; 0
    1522:	62 e0       	ldi	r22, 0x02	; 2
    1524:	82 e0       	ldi	r24, 0x02	; 2
    1526:	0e 94 09 03 	call	0x612	; 0x612 <DIO_SetPinValue>

0000152a <.LM137>:
    152a:	40 e0       	ldi	r20, 0x00	; 0
    152c:	63 e0       	ldi	r22, 0x03	; 3
    152e:	82 e0       	ldi	r24, 0x02	; 2
    1530:	0e 94 09 03 	call	0x612	; 0x612 <DIO_SetPinValue>
    1534:	80 e0       	ldi	r24, 0x00	; 0
    1536:	90 e0       	ldi	r25, 0x00	; 0
    1538:	a0 ea       	ldi	r26, 0xA0	; 160
    153a:	b0 e4       	ldi	r27, 0x40	; 64
    153c:	88 8b       	std	Y+16, r24	; 0x10
    153e:	99 8b       	std	Y+17, r25	; 0x11
    1540:	aa 8b       	std	Y+18, r26	; 0x12
    1542:	bb 8b       	std	Y+19, r27	; 0x13

00001544 <.LM138>:
    1544:	20 e0       	ldi	r18, 0x00	; 0
    1546:	30 e0       	ldi	r19, 0x00	; 0
    1548:	4a ef       	ldi	r20, 0xFA	; 250
    154a:	54 e4       	ldi	r21, 0x44	; 68
    154c:	68 89       	ldd	r22, Y+16	; 0x10
    154e:	79 89       	ldd	r23, Y+17	; 0x11
    1550:	8a 89       	ldd	r24, Y+18	; 0x12
    1552:	9b 89       	ldd	r25, Y+19	; 0x13
    1554:	0e 94 35 30 	call	0x606a	; 0x606a <__mulsf3>
    1558:	cc 54       	subi	r28, 0x4C	; 76
    155a:	df 4f       	sbci	r29, 0xFF	; 255
    155c:	68 83       	st	Y, r22
    155e:	79 83       	std	Y+1, r23	; 0x01
    1560:	8a 83       	std	Y+2, r24	; 0x02
    1562:	9b 83       	std	Y+3, r25	; 0x03
    1564:	c4 5b       	subi	r28, 0xB4	; 180
    1566:	d0 40       	sbci	r29, 0x00	; 0
    1568:	cc 54       	subi	r28, 0x4C	; 76
    156a:	df 4f       	sbci	r29, 0xFF	; 255
    156c:	88 81       	ld	r24, Y
    156e:	99 81       	ldd	r25, Y+1	; 0x01
    1570:	aa 81       	ldd	r26, Y+2	; 0x02
    1572:	bb 81       	ldd	r27, Y+3	; 0x03
    1574:	c4 5b       	subi	r28, 0xB4	; 180
    1576:	d0 40       	sbci	r29, 0x00	; 0
    1578:	8c 8b       	std	Y+20, r24	; 0x14
    157a:	9d 8b       	std	Y+21, r25	; 0x15
    157c:	ae 8b       	std	Y+22, r26	; 0x16
    157e:	bf 8b       	std	Y+23, r27	; 0x17

00001580 <.LM139>:
    1580:	20 e0       	ldi	r18, 0x00	; 0
    1582:	30 e0       	ldi	r19, 0x00	; 0
    1584:	40 e8       	ldi	r20, 0x80	; 128
    1586:	5f e3       	ldi	r21, 0x3F	; 63
    1588:	6c 89       	ldd	r22, Y+20	; 0x14
    158a:	7d 89       	ldd	r23, Y+21	; 0x15
    158c:	8e 89       	ldd	r24, Y+22	; 0x16
    158e:	9f 89       	ldd	r25, Y+23	; 0x17
    1590:	0e 94 af 2f 	call	0x5f5e	; 0x5f5e <__cmpsf2>
    1594:	88 23       	and	r24, r24
    1596:	2c f4       	brge	.+10     	; 0x15a2 <.L174>

00001598 <.LM140>:
    1598:	81 e0       	ldi	r24, 0x01	; 1
    159a:	90 e0       	ldi	r25, 0x00	; 0
    159c:	99 8f       	std	Y+25, r25	; 0x19
    159e:	88 8f       	std	Y+24, r24	; 0x18
    15a0:	76 c0       	rjmp	.+236    	; 0x168e <.L92>

000015a2 <.L174>:
    15a2:	20 e0       	ldi	r18, 0x00	; 0
    15a4:	3f ef       	ldi	r19, 0xFF	; 255
    15a6:	4f e7       	ldi	r20, 0x7F	; 127
    15a8:	57 e4       	ldi	r21, 0x47	; 71
    15aa:	6c 89       	ldd	r22, Y+20	; 0x14
    15ac:	7d 89       	ldd	r23, Y+21	; 0x15
    15ae:	8e 89       	ldd	r24, Y+22	; 0x16
    15b0:	9f 89       	ldd	r25, Y+23	; 0x17
    15b2:	0e 94 30 30 	call	0x6060	; 0x6060 <__gesf2>
    15b6:	88 23       	and	r24, r24
    15b8:	09 f0       	breq	.+2      	; 0x15bc <L0^A>

000015ba <L0^A>:
    15ba:	0c f4       	brge	.+2      	; 0x15be <.LM142>

000015bc <L0^A>:
    15bc:	52 c0       	rjmp	.+164    	; 0x1662 <.L175>

000015be <.LM142>:
    15be:	20 e0       	ldi	r18, 0x00	; 0
    15c0:	30 e0       	ldi	r19, 0x00	; 0
    15c2:	40 e2       	ldi	r20, 0x20	; 32
    15c4:	51 e4       	ldi	r21, 0x41	; 65
    15c6:	68 89       	ldd	r22, Y+16	; 0x10
    15c8:	79 89       	ldd	r23, Y+17	; 0x11
    15ca:	8a 89       	ldd	r24, Y+18	; 0x12
    15cc:	9b 89       	ldd	r25, Y+19	; 0x13
    15ce:	0e 94 35 30 	call	0x606a	; 0x606a <__mulsf3>
    15d2:	c8 54       	subi	r28, 0x48	; 72
    15d4:	df 4f       	sbci	r29, 0xFF	; 255
    15d6:	68 83       	st	Y, r22
    15d8:	79 83       	std	Y+1, r23	; 0x01
    15da:	8a 83       	std	Y+2, r24	; 0x02
    15dc:	9b 83       	std	Y+3, r25	; 0x03
    15de:	c8 5b       	subi	r28, 0xB8	; 184
    15e0:	d0 40       	sbci	r29, 0x00	; 0
    15e2:	c8 54       	subi	r28, 0x48	; 72
    15e4:	df 4f       	sbci	r29, 0xFF	; 255
    15e6:	88 81       	ld	r24, Y
    15e8:	99 81       	ldd	r25, Y+1	; 0x01
    15ea:	aa 81       	ldd	r26, Y+2	; 0x02
    15ec:	bb 81       	ldd	r27, Y+3	; 0x03
    15ee:	c8 5b       	subi	r28, 0xB8	; 184
    15f0:	d0 40       	sbci	r29, 0x00	; 0
    15f2:	cc 57       	subi	r28, 0x7C	; 124
    15f4:	df 4f       	sbci	r29, 0xFF	; 255
    15f6:	88 83       	st	Y, r24
    15f8:	99 83       	std	Y+1, r25	; 0x01
    15fa:	aa 83       	std	Y+2, r26	; 0x02
    15fc:	bb 83       	std	Y+3, r27	; 0x03
    15fe:	c4 58       	subi	r28, 0x84	; 132
    1600:	d0 40       	sbci	r29, 0x00	; 0

00001602 <.LM143>:
    1602:	cc 57       	subi	r28, 0x7C	; 124
    1604:	df 4f       	sbci	r29, 0xFF	; 255
    1606:	68 81       	ld	r22, Y
    1608:	79 81       	ldd	r23, Y+1	; 0x01
    160a:	8a 81       	ldd	r24, Y+2	; 0x02
    160c:	9b 81       	ldd	r25, Y+3	; 0x03
    160e:	c4 58       	subi	r28, 0x84	; 132
    1610:	d0 40       	sbci	r29, 0x00	; 0
    1612:	0e 94 b4 2f 	call	0x5f68	; 0x5f68 <__fixunssfsi>
    1616:	c4 54       	subi	r28, 0x44	; 68
    1618:	df 4f       	sbci	r29, 0xFF	; 255
    161a:	68 83       	st	Y, r22
    161c:	79 83       	std	Y+1, r23	; 0x01
    161e:	8a 83       	std	Y+2, r24	; 0x02
    1620:	9b 83       	std	Y+3, r25	; 0x03
    1622:	cc 5b       	subi	r28, 0xBC	; 188
    1624:	d0 40       	sbci	r29, 0x00	; 0
    1626:	c4 54       	subi	r28, 0x44	; 68
    1628:	df 4f       	sbci	r29, 0xFF	; 255
    162a:	a8 81       	ld	r26, Y
    162c:	b9 81       	ldd	r27, Y+1	; 0x01
    162e:	cc 5b       	subi	r28, 0xBC	; 188
    1630:	d0 40       	sbci	r29, 0x00	; 0
    1632:	b9 8f       	std	Y+25, r27	; 0x19
    1634:	a8 8f       	std	Y+24, r26	; 0x18

00001636 <.LM144>:
    1636:	10 c0       	rjmp	.+32     	; 0x1658 <.L95>

00001638 <.L96>:
    1638:	88 ec       	ldi	r24, 0xC8	; 200
    163a:	90 e0       	ldi	r25, 0x00	; 0
    163c:	9b 8f       	std	Y+27, r25	; 0x1b
    163e:	8a 8f       	std	Y+26, r24	; 0x1a

00001640 <.LM145>:
    1640:	8a 8d       	ldd	r24, Y+26	; 0x1a
    1642:	9b 8d       	ldd	r25, Y+27	; 0x1b

00001644 <.L1^B13>:
    1644:	01 97       	sbiw	r24, 0x01	; 1
    1646:	f1 f7       	brne	.-4      	; 0x1644 <.L1^B13>
    1648:	9b 8f       	std	Y+27, r25	; 0x1b
    164a:	8a 8f       	std	Y+26, r24	; 0x1a

0000164c <.LM146>:
	...

0000164e <.LM147>:
    164e:	88 8d       	ldd	r24, Y+24	; 0x18
    1650:	99 8d       	ldd	r25, Y+25	; 0x19
    1652:	01 97       	sbiw	r24, 0x01	; 1
    1654:	99 8f       	std	Y+25, r25	; 0x19
    1656:	88 8f       	std	Y+24, r24	; 0x18

00001658 <.L95>:
    1658:	88 8d       	ldd	r24, Y+24	; 0x18
    165a:	99 8d       	ldd	r25, Y+25	; 0x19
    165c:	00 97       	sbiw	r24, 0x00	; 0
    165e:	61 f7       	brne	.-40     	; 0x1638 <.L96>

00001660 <.LM149>:
    1660:	21 c0       	rjmp	.+66     	; 0x16a4 <.L97>

00001662 <.L175>:
    1662:	6c 89       	ldd	r22, Y+20	; 0x14
    1664:	7d 89       	ldd	r23, Y+21	; 0x15
    1666:	8e 89       	ldd	r24, Y+22	; 0x16
    1668:	9f 89       	ldd	r25, Y+23	; 0x17
    166a:	0e 94 b4 2f 	call	0x5f68	; 0x5f68 <__fixunssfsi>
    166e:	c0 54       	subi	r28, 0x40	; 64
    1670:	df 4f       	sbci	r29, 0xFF	; 255
    1672:	68 83       	st	Y, r22
    1674:	79 83       	std	Y+1, r23	; 0x01
    1676:	8a 83       	std	Y+2, r24	; 0x02
    1678:	9b 83       	std	Y+3, r25	; 0x03
    167a:	c0 5c       	subi	r28, 0xC0	; 192
    167c:	d0 40       	sbci	r29, 0x00	; 0
    167e:	c0 54       	subi	r28, 0x40	; 64
    1680:	df 4f       	sbci	r29, 0xFF	; 255
    1682:	e8 81       	ld	r30, Y
    1684:	f9 81       	ldd	r31, Y+1	; 0x01
    1686:	c0 5c       	subi	r28, 0xC0	; 192
    1688:	d0 40       	sbci	r29, 0x00	; 0
    168a:	f9 8f       	std	Y+25, r31	; 0x19
    168c:	e8 8f       	std	Y+24, r30	; 0x18

0000168e <.L92>:
    168e:	88 8d       	ldd	r24, Y+24	; 0x18
    1690:	99 8d       	ldd	r25, Y+25	; 0x19
    1692:	9d 8f       	std	Y+29, r25	; 0x1d
    1694:	8c 8f       	std	Y+28, r24	; 0x1c

00001696 <.LM151>:
    1696:	8c 8d       	ldd	r24, Y+28	; 0x1c
    1698:	9d 8d       	ldd	r25, Y+29	; 0x1d

0000169a <.L1^B14>:
    169a:	01 97       	sbiw	r24, 0x01	; 1
    169c:	f1 f7       	brne	.-4      	; 0x169a <.L1^B14>
    169e:	9d 8f       	std	Y+29, r25	; 0x1d
    16a0:	8c 8f       	std	Y+28, r24	; 0x1c

000016a2 <.LM152>:
	...

000016a4 <.L97>:
    16a4:	30 c7       	rjmp	.+3680   	; 0x2506 <.L190>

000016a6 <.L80>:
    16a6:	41 e0       	ldi	r20, 0x01	; 1
    16a8:	60 e0       	ldi	r22, 0x00	; 0
    16aa:	82 e0       	ldi	r24, 0x02	; 2
    16ac:	0e 94 09 03 	call	0x612	; 0x612 <DIO_SetPinValue>

000016b0 <.LM155>:
    16b0:	41 e0       	ldi	r20, 0x01	; 1
    16b2:	61 e0       	ldi	r22, 0x01	; 1
    16b4:	82 e0       	ldi	r24, 0x02	; 2
    16b6:	0e 94 09 03 	call	0x612	; 0x612 <DIO_SetPinValue>

000016ba <.LM156>:
    16ba:	40 e0       	ldi	r20, 0x00	; 0
    16bc:	62 e0       	ldi	r22, 0x02	; 2
    16be:	82 e0       	ldi	r24, 0x02	; 2
    16c0:	0e 94 09 03 	call	0x612	; 0x612 <DIO_SetPinValue>

000016c4 <.LM157>:
    16c4:	40 e0       	ldi	r20, 0x00	; 0
    16c6:	63 e0       	ldi	r22, 0x03	; 3
    16c8:	82 e0       	ldi	r24, 0x02	; 2
    16ca:	0e 94 09 03 	call	0x612	; 0x612 <DIO_SetPinValue>
    16ce:	80 e0       	ldi	r24, 0x00	; 0
    16d0:	90 e0       	ldi	r25, 0x00	; 0
    16d2:	a0 ea       	ldi	r26, 0xA0	; 160
    16d4:	b0 e4       	ldi	r27, 0x40	; 64
    16d6:	8e 8f       	std	Y+30, r24	; 0x1e
    16d8:	9f 8f       	std	Y+31, r25	; 0x1f
    16da:	a8 a3       	std	Y+32, r26	; 0x20
    16dc:	b9 a3       	std	Y+33, r27	; 0x21

000016de <.LM158>:
    16de:	20 e0       	ldi	r18, 0x00	; 0
    16e0:	30 e0       	ldi	r19, 0x00	; 0
    16e2:	4a ef       	ldi	r20, 0xFA	; 250
    16e4:	54 e4       	ldi	r21, 0x44	; 68
    16e6:	6e 8d       	ldd	r22, Y+30	; 0x1e
    16e8:	7f 8d       	ldd	r23, Y+31	; 0x1f
    16ea:	88 a1       	ldd	r24, Y+32	; 0x20
    16ec:	99 a1       	ldd	r25, Y+33	; 0x21
    16ee:	0e 94 35 30 	call	0x606a	; 0x606a <__mulsf3>
    16f2:	cc 53       	subi	r28, 0x3C	; 60
    16f4:	df 4f       	sbci	r29, 0xFF	; 255
    16f6:	68 83       	st	Y, r22
    16f8:	79 83       	std	Y+1, r23	; 0x01
    16fa:	8a 83       	std	Y+2, r24	; 0x02
    16fc:	9b 83       	std	Y+3, r25	; 0x03
    16fe:	c4 5c       	subi	r28, 0xC4	; 196
    1700:	d0 40       	sbci	r29, 0x00	; 0
    1702:	cc 53       	subi	r28, 0x3C	; 60
    1704:	df 4f       	sbci	r29, 0xFF	; 255
    1706:	88 81       	ld	r24, Y
    1708:	99 81       	ldd	r25, Y+1	; 0x01
    170a:	aa 81       	ldd	r26, Y+2	; 0x02
    170c:	bb 81       	ldd	r27, Y+3	; 0x03
    170e:	c4 5c       	subi	r28, 0xC4	; 196
    1710:	d0 40       	sbci	r29, 0x00	; 0
    1712:	8a a3       	std	Y+34, r24	; 0x22
    1714:	9b a3       	std	Y+35, r25	; 0x23
    1716:	ac a3       	std	Y+36, r26	; 0x24
    1718:	bd a3       	std	Y+37, r27	; 0x25

0000171a <.LM159>:
    171a:	20 e0       	ldi	r18, 0x00	; 0
    171c:	30 e0       	ldi	r19, 0x00	; 0
    171e:	40 e8       	ldi	r20, 0x80	; 128
    1720:	5f e3       	ldi	r21, 0x3F	; 63
    1722:	6a a1       	ldd	r22, Y+34	; 0x22
    1724:	7b a1       	ldd	r23, Y+35	; 0x23
    1726:	8c a1       	ldd	r24, Y+36	; 0x24
    1728:	9d a1       	ldd	r25, Y+37	; 0x25
    172a:	0e 94 af 2f 	call	0x5f5e	; 0x5f5e <__cmpsf2>
    172e:	88 23       	and	r24, r24
    1730:	2c f4       	brge	.+10     	; 0x173c <.L176>

00001732 <.LM160>:
    1732:	81 e0       	ldi	r24, 0x01	; 1
    1734:	90 e0       	ldi	r25, 0x00	; 0
    1736:	9f a3       	std	Y+39, r25	; 0x27
    1738:	8e a3       	std	Y+38, r24	; 0x26
    173a:	76 c0       	rjmp	.+236    	; 0x1828 <.L100>

0000173c <.L176>:
    173c:	20 e0       	ldi	r18, 0x00	; 0
    173e:	3f ef       	ldi	r19, 0xFF	; 255
    1740:	4f e7       	ldi	r20, 0x7F	; 127
    1742:	57 e4       	ldi	r21, 0x47	; 71
    1744:	6a a1       	ldd	r22, Y+34	; 0x22
    1746:	7b a1       	ldd	r23, Y+35	; 0x23
    1748:	8c a1       	ldd	r24, Y+36	; 0x24
    174a:	9d a1       	ldd	r25, Y+37	; 0x25
    174c:	0e 94 30 30 	call	0x6060	; 0x6060 <__gesf2>
    1750:	88 23       	and	r24, r24
    1752:	09 f0       	breq	.+2      	; 0x1756 <L0^A>

00001754 <L0^A>:
    1754:	0c f4       	brge	.+2      	; 0x1758 <.LM162>

00001756 <L0^A>:
    1756:	52 c0       	rjmp	.+164    	; 0x17fc <.L177>

00001758 <.LM162>:
    1758:	20 e0       	ldi	r18, 0x00	; 0
    175a:	30 e0       	ldi	r19, 0x00	; 0
    175c:	40 e2       	ldi	r20, 0x20	; 32
    175e:	51 e4       	ldi	r21, 0x41	; 65
    1760:	6e 8d       	ldd	r22, Y+30	; 0x1e
    1762:	7f 8d       	ldd	r23, Y+31	; 0x1f
    1764:	88 a1       	ldd	r24, Y+32	; 0x20
    1766:	99 a1       	ldd	r25, Y+33	; 0x21
    1768:	0e 94 35 30 	call	0x606a	; 0x606a <__mulsf3>
    176c:	c8 53       	subi	r28, 0x38	; 56
    176e:	df 4f       	sbci	r29, 0xFF	; 255
    1770:	68 83       	st	Y, r22
    1772:	79 83       	std	Y+1, r23	; 0x01
    1774:	8a 83       	std	Y+2, r24	; 0x02
    1776:	9b 83       	std	Y+3, r25	; 0x03
    1778:	c8 5c       	subi	r28, 0xC8	; 200
    177a:	d0 40       	sbci	r29, 0x00	; 0
    177c:	c8 53       	subi	r28, 0x38	; 56
    177e:	df 4f       	sbci	r29, 0xFF	; 255
    1780:	88 81       	ld	r24, Y
    1782:	99 81       	ldd	r25, Y+1	; 0x01
    1784:	aa 81       	ldd	r26, Y+2	; 0x02
    1786:	bb 81       	ldd	r27, Y+3	; 0x03
    1788:	c8 5c       	subi	r28, 0xC8	; 200
    178a:	d0 40       	sbci	r29, 0x00	; 0
    178c:	c8 57       	subi	r28, 0x78	; 120
    178e:	df 4f       	sbci	r29, 0xFF	; 255
    1790:	88 83       	st	Y, r24
    1792:	99 83       	std	Y+1, r25	; 0x01
    1794:	aa 83       	std	Y+2, r26	; 0x02
    1796:	bb 83       	std	Y+3, r27	; 0x03
    1798:	c8 58       	subi	r28, 0x88	; 136
    179a:	d0 40       	sbci	r29, 0x00	; 0

0000179c <.LM163>:
    179c:	c8 57       	subi	r28, 0x78	; 120
    179e:	df 4f       	sbci	r29, 0xFF	; 255
    17a0:	68 81       	ld	r22, Y
    17a2:	79 81       	ldd	r23, Y+1	; 0x01
    17a4:	8a 81       	ldd	r24, Y+2	; 0x02
    17a6:	9b 81       	ldd	r25, Y+3	; 0x03
    17a8:	c8 58       	subi	r28, 0x88	; 136
    17aa:	d0 40       	sbci	r29, 0x00	; 0
    17ac:	0e 94 b4 2f 	call	0x5f68	; 0x5f68 <__fixunssfsi>
    17b0:	c4 53       	subi	r28, 0x34	; 52
    17b2:	df 4f       	sbci	r29, 0xFF	; 255
    17b4:	68 83       	st	Y, r22
    17b6:	79 83       	std	Y+1, r23	; 0x01
    17b8:	8a 83       	std	Y+2, r24	; 0x02
    17ba:	9b 83       	std	Y+3, r25	; 0x03
    17bc:	cc 5c       	subi	r28, 0xCC	; 204
    17be:	d0 40       	sbci	r29, 0x00	; 0
    17c0:	c4 53       	subi	r28, 0x34	; 52
    17c2:	df 4f       	sbci	r29, 0xFF	; 255
    17c4:	a8 81       	ld	r26, Y
    17c6:	b9 81       	ldd	r27, Y+1	; 0x01
    17c8:	cc 5c       	subi	r28, 0xCC	; 204
    17ca:	d0 40       	sbci	r29, 0x00	; 0
    17cc:	bf a3       	std	Y+39, r27	; 0x27
    17ce:	ae a3       	std	Y+38, r26	; 0x26

000017d0 <.LM164>:
    17d0:	10 c0       	rjmp	.+32     	; 0x17f2 <.L103>

000017d2 <.L104>:
    17d2:	88 ec       	ldi	r24, 0xC8	; 200
    17d4:	90 e0       	ldi	r25, 0x00	; 0
    17d6:	99 a7       	std	Y+41, r25	; 0x29
    17d8:	88 a7       	std	Y+40, r24	; 0x28

000017da <.LM165>:
    17da:	88 a5       	ldd	r24, Y+40	; 0x28
    17dc:	99 a5       	ldd	r25, Y+41	; 0x29

000017de <.L1^B15>:
    17de:	01 97       	sbiw	r24, 0x01	; 1
    17e0:	f1 f7       	brne	.-4      	; 0x17de <.L1^B15>
    17e2:	99 a7       	std	Y+41, r25	; 0x29
    17e4:	88 a7       	std	Y+40, r24	; 0x28

000017e6 <.LM166>:
	...

000017e8 <.LM167>:
    17e8:	8e a1       	ldd	r24, Y+38	; 0x26
    17ea:	9f a1       	ldd	r25, Y+39	; 0x27
    17ec:	01 97       	sbiw	r24, 0x01	; 1
    17ee:	9f a3       	std	Y+39, r25	; 0x27
    17f0:	8e a3       	std	Y+38, r24	; 0x26

000017f2 <.L103>:
    17f2:	8e a1       	ldd	r24, Y+38	; 0x26
    17f4:	9f a1       	ldd	r25, Y+39	; 0x27
    17f6:	00 97       	sbiw	r24, 0x00	; 0
    17f8:	61 f7       	brne	.-40     	; 0x17d2 <.L104>

000017fa <.LM169>:
    17fa:	21 c0       	rjmp	.+66     	; 0x183e <.L105>

000017fc <.L177>:
    17fc:	6a a1       	ldd	r22, Y+34	; 0x22
    17fe:	7b a1       	ldd	r23, Y+35	; 0x23
    1800:	8c a1       	ldd	r24, Y+36	; 0x24
    1802:	9d a1       	ldd	r25, Y+37	; 0x25
    1804:	0e 94 b4 2f 	call	0x5f68	; 0x5f68 <__fixunssfsi>
    1808:	c0 53       	subi	r28, 0x30	; 48
    180a:	df 4f       	sbci	r29, 0xFF	; 255
    180c:	68 83       	st	Y, r22
    180e:	79 83       	std	Y+1, r23	; 0x01
    1810:	8a 83       	std	Y+2, r24	; 0x02
    1812:	9b 83       	std	Y+3, r25	; 0x03
    1814:	c0 5d       	subi	r28, 0xD0	; 208
    1816:	d0 40       	sbci	r29, 0x00	; 0
    1818:	c0 53       	subi	r28, 0x30	; 48
    181a:	df 4f       	sbci	r29, 0xFF	; 255
    181c:	e8 81       	ld	r30, Y
    181e:	f9 81       	ldd	r31, Y+1	; 0x01
    1820:	c0 5d       	subi	r28, 0xD0	; 208
    1822:	d0 40       	sbci	r29, 0x00	; 0
    1824:	ff a3       	std	Y+39, r31	; 0x27
    1826:	ee a3       	std	Y+38, r30	; 0x26

00001828 <.L100>:
    1828:	8e a1       	ldd	r24, Y+38	; 0x26
    182a:	9f a1       	ldd	r25, Y+39	; 0x27
    182c:	9b a7       	std	Y+43, r25	; 0x2b
    182e:	8a a7       	std	Y+42, r24	; 0x2a

00001830 <.LM171>:
    1830:	8a a5       	ldd	r24, Y+42	; 0x2a
    1832:	9b a5       	ldd	r25, Y+43	; 0x2b

00001834 <.L1^B16>:
    1834:	01 97       	sbiw	r24, 0x01	; 1
    1836:	f1 f7       	brne	.-4      	; 0x1834 <.L1^B16>
    1838:	9b a7       	std	Y+43, r25	; 0x2b
    183a:	8a a7       	std	Y+42, r24	; 0x2a

0000183c <.LM172>:
	...

0000183e <.L105>:
    183e:	63 c6       	rjmp	.+3270   	; 0x2506 <.L190>

00001840 <.L78>:
    1840:	40 e0       	ldi	r20, 0x00	; 0
    1842:	60 e0       	ldi	r22, 0x00	; 0
    1844:	82 e0       	ldi	r24, 0x02	; 2
    1846:	0e 94 09 03 	call	0x612	; 0x612 <DIO_SetPinValue>

0000184a <.LM175>:
    184a:	41 e0       	ldi	r20, 0x01	; 1
    184c:	61 e0       	ldi	r22, 0x01	; 1
    184e:	82 e0       	ldi	r24, 0x02	; 2
    1850:	0e 94 09 03 	call	0x612	; 0x612 <DIO_SetPinValue>

00001854 <.LM176>:
    1854:	40 e0       	ldi	r20, 0x00	; 0
    1856:	62 e0       	ldi	r22, 0x02	; 2
    1858:	82 e0       	ldi	r24, 0x02	; 2
    185a:	0e 94 09 03 	call	0x612	; 0x612 <DIO_SetPinValue>

0000185e <.LM177>:
    185e:	40 e0       	ldi	r20, 0x00	; 0
    1860:	63 e0       	ldi	r22, 0x03	; 3
    1862:	82 e0       	ldi	r24, 0x02	; 2
    1864:	0e 94 09 03 	call	0x612	; 0x612 <DIO_SetPinValue>
    1868:	80 e0       	ldi	r24, 0x00	; 0
    186a:	90 e0       	ldi	r25, 0x00	; 0
    186c:	a0 ea       	ldi	r26, 0xA0	; 160
    186e:	b0 e4       	ldi	r27, 0x40	; 64
    1870:	8c a7       	std	Y+44, r24	; 0x2c
    1872:	9d a7       	std	Y+45, r25	; 0x2d
    1874:	ae a7       	std	Y+46, r26	; 0x2e
    1876:	bf a7       	std	Y+47, r27	; 0x2f

00001878 <.LM178>:
    1878:	20 e0       	ldi	r18, 0x00	; 0
    187a:	30 e0       	ldi	r19, 0x00	; 0
    187c:	4a ef       	ldi	r20, 0xFA	; 250
    187e:	54 e4       	ldi	r21, 0x44	; 68
    1880:	6c a5       	ldd	r22, Y+44	; 0x2c
    1882:	7d a5       	ldd	r23, Y+45	; 0x2d
    1884:	8e a5       	ldd	r24, Y+46	; 0x2e
    1886:	9f a5       	ldd	r25, Y+47	; 0x2f
    1888:	0e 94 35 30 	call	0x606a	; 0x606a <__mulsf3>
    188c:	cc 52       	subi	r28, 0x2C	; 44
    188e:	df 4f       	sbci	r29, 0xFF	; 255
    1890:	68 83       	st	Y, r22
    1892:	79 83       	std	Y+1, r23	; 0x01
    1894:	8a 83       	std	Y+2, r24	; 0x02
    1896:	9b 83       	std	Y+3, r25	; 0x03
    1898:	c4 5d       	subi	r28, 0xD4	; 212
    189a:	d0 40       	sbci	r29, 0x00	; 0
    189c:	cc 52       	subi	r28, 0x2C	; 44
    189e:	df 4f       	sbci	r29, 0xFF	; 255
    18a0:	88 81       	ld	r24, Y
    18a2:	99 81       	ldd	r25, Y+1	; 0x01
    18a4:	aa 81       	ldd	r26, Y+2	; 0x02
    18a6:	bb 81       	ldd	r27, Y+3	; 0x03
    18a8:	c4 5d       	subi	r28, 0xD4	; 212
    18aa:	d0 40       	sbci	r29, 0x00	; 0
    18ac:	88 ab       	std	Y+48, r24	; 0x30
    18ae:	99 ab       	std	Y+49, r25	; 0x31
    18b0:	aa ab       	std	Y+50, r26	; 0x32
    18b2:	bb ab       	std	Y+51, r27	; 0x33

000018b4 <.LM179>:
    18b4:	20 e0       	ldi	r18, 0x00	; 0
    18b6:	30 e0       	ldi	r19, 0x00	; 0
    18b8:	40 e8       	ldi	r20, 0x80	; 128
    18ba:	5f e3       	ldi	r21, 0x3F	; 63
    18bc:	68 a9       	ldd	r22, Y+48	; 0x30
    18be:	79 a9       	ldd	r23, Y+49	; 0x31
    18c0:	8a a9       	ldd	r24, Y+50	; 0x32
    18c2:	9b a9       	ldd	r25, Y+51	; 0x33
    18c4:	0e 94 af 2f 	call	0x5f5e	; 0x5f5e <__cmpsf2>
    18c8:	88 23       	and	r24, r24
    18ca:	2c f4       	brge	.+10     	; 0x18d6 <.L178>

000018cc <.LM180>:
    18cc:	81 e0       	ldi	r24, 0x01	; 1
    18ce:	90 e0       	ldi	r25, 0x00	; 0
    18d0:	9d ab       	std	Y+53, r25	; 0x35
    18d2:	8c ab       	std	Y+52, r24	; 0x34
    18d4:	76 c0       	rjmp	.+236    	; 0x19c2 <.L108>

000018d6 <.L178>:
    18d6:	20 e0       	ldi	r18, 0x00	; 0
    18d8:	3f ef       	ldi	r19, 0xFF	; 255
    18da:	4f e7       	ldi	r20, 0x7F	; 127
    18dc:	57 e4       	ldi	r21, 0x47	; 71
    18de:	68 a9       	ldd	r22, Y+48	; 0x30
    18e0:	79 a9       	ldd	r23, Y+49	; 0x31
    18e2:	8a a9       	ldd	r24, Y+50	; 0x32
    18e4:	9b a9       	ldd	r25, Y+51	; 0x33
    18e6:	0e 94 30 30 	call	0x6060	; 0x6060 <__gesf2>
    18ea:	88 23       	and	r24, r24
    18ec:	09 f0       	breq	.+2      	; 0x18f0 <L0^A>

000018ee <L0^A>:
    18ee:	0c f4       	brge	.+2      	; 0x18f2 <.LM182>

000018f0 <L0^A>:
    18f0:	52 c0       	rjmp	.+164    	; 0x1996 <.L179>

000018f2 <.LM182>:
    18f2:	20 e0       	ldi	r18, 0x00	; 0
    18f4:	30 e0       	ldi	r19, 0x00	; 0
    18f6:	40 e2       	ldi	r20, 0x20	; 32
    18f8:	51 e4       	ldi	r21, 0x41	; 65
    18fa:	6c a5       	ldd	r22, Y+44	; 0x2c
    18fc:	7d a5       	ldd	r23, Y+45	; 0x2d
    18fe:	8e a5       	ldd	r24, Y+46	; 0x2e
    1900:	9f a5       	ldd	r25, Y+47	; 0x2f
    1902:	0e 94 35 30 	call	0x606a	; 0x606a <__mulsf3>
    1906:	c8 52       	subi	r28, 0x28	; 40
    1908:	df 4f       	sbci	r29, 0xFF	; 255
    190a:	68 83       	st	Y, r22
    190c:	79 83       	std	Y+1, r23	; 0x01
    190e:	8a 83       	std	Y+2, r24	; 0x02
    1910:	9b 83       	std	Y+3, r25	; 0x03
    1912:	c8 5d       	subi	r28, 0xD8	; 216
    1914:	d0 40       	sbci	r29, 0x00	; 0
    1916:	c8 52       	subi	r28, 0x28	; 40
    1918:	df 4f       	sbci	r29, 0xFF	; 255
    191a:	88 81       	ld	r24, Y
    191c:	99 81       	ldd	r25, Y+1	; 0x01
    191e:	aa 81       	ldd	r26, Y+2	; 0x02
    1920:	bb 81       	ldd	r27, Y+3	; 0x03
    1922:	c8 5d       	subi	r28, 0xD8	; 216
    1924:	d0 40       	sbci	r29, 0x00	; 0
    1926:	c4 57       	subi	r28, 0x74	; 116
    1928:	df 4f       	sbci	r29, 0xFF	; 255
    192a:	88 83       	st	Y, r24
    192c:	99 83       	std	Y+1, r25	; 0x01
    192e:	aa 83       	std	Y+2, r26	; 0x02
    1930:	bb 83       	std	Y+3, r27	; 0x03
    1932:	cc 58       	subi	r28, 0x8C	; 140
    1934:	d0 40       	sbci	r29, 0x00	; 0

00001936 <.LM183>:
    1936:	c4 57       	subi	r28, 0x74	; 116
    1938:	df 4f       	sbci	r29, 0xFF	; 255
    193a:	68 81       	ld	r22, Y
    193c:	79 81       	ldd	r23, Y+1	; 0x01
    193e:	8a 81       	ldd	r24, Y+2	; 0x02
    1940:	9b 81       	ldd	r25, Y+3	; 0x03
    1942:	cc 58       	subi	r28, 0x8C	; 140
    1944:	d0 40       	sbci	r29, 0x00	; 0
    1946:	0e 94 b4 2f 	call	0x5f68	; 0x5f68 <__fixunssfsi>
    194a:	c4 52       	subi	r28, 0x24	; 36
    194c:	df 4f       	sbci	r29, 0xFF	; 255
    194e:	68 83       	st	Y, r22
    1950:	79 83       	std	Y+1, r23	; 0x01
    1952:	8a 83       	std	Y+2, r24	; 0x02
    1954:	9b 83       	std	Y+3, r25	; 0x03
    1956:	cc 5d       	subi	r28, 0xDC	; 220
    1958:	d0 40       	sbci	r29, 0x00	; 0
    195a:	c4 52       	subi	r28, 0x24	; 36
    195c:	df 4f       	sbci	r29, 0xFF	; 255
    195e:	a8 81       	ld	r26, Y
    1960:	b9 81       	ldd	r27, Y+1	; 0x01
    1962:	cc 5d       	subi	r28, 0xDC	; 220
    1964:	d0 40       	sbci	r29, 0x00	; 0
    1966:	bd ab       	std	Y+53, r27	; 0x35
    1968:	ac ab       	std	Y+52, r26	; 0x34

0000196a <.LM184>:
    196a:	10 c0       	rjmp	.+32     	; 0x198c <.L111>

0000196c <.L112>:
    196c:	88 ec       	ldi	r24, 0xC8	; 200
    196e:	90 e0       	ldi	r25, 0x00	; 0
    1970:	9f ab       	std	Y+55, r25	; 0x37
    1972:	8e ab       	std	Y+54, r24	; 0x36

00001974 <.LM185>:
    1974:	8e a9       	ldd	r24, Y+54	; 0x36
    1976:	9f a9       	ldd	r25, Y+55	; 0x37

00001978 <.L1^B17>:
    1978:	01 97       	sbiw	r24, 0x01	; 1
    197a:	f1 f7       	brne	.-4      	; 0x1978 <.L1^B17>
    197c:	9f ab       	std	Y+55, r25	; 0x37
    197e:	8e ab       	std	Y+54, r24	; 0x36

00001980 <.LM186>:
	...

00001982 <.LM187>:
    1982:	8c a9       	ldd	r24, Y+52	; 0x34
    1984:	9d a9       	ldd	r25, Y+53	; 0x35
    1986:	01 97       	sbiw	r24, 0x01	; 1
    1988:	9d ab       	std	Y+53, r25	; 0x35
    198a:	8c ab       	std	Y+52, r24	; 0x34

0000198c <.L111>:
    198c:	8c a9       	ldd	r24, Y+52	; 0x34
    198e:	9d a9       	ldd	r25, Y+53	; 0x35
    1990:	00 97       	sbiw	r24, 0x00	; 0
    1992:	61 f7       	brne	.-40     	; 0x196c <.L112>

00001994 <.LM189>:
    1994:	21 c0       	rjmp	.+66     	; 0x19d8 <.L113>

00001996 <.L179>:
    1996:	68 a9       	ldd	r22, Y+48	; 0x30
    1998:	79 a9       	ldd	r23, Y+49	; 0x31
    199a:	8a a9       	ldd	r24, Y+50	; 0x32
    199c:	9b a9       	ldd	r25, Y+51	; 0x33
    199e:	0e 94 b4 2f 	call	0x5f68	; 0x5f68 <__fixunssfsi>
    19a2:	c0 52       	subi	r28, 0x20	; 32
    19a4:	df 4f       	sbci	r29, 0xFF	; 255
    19a6:	68 83       	st	Y, r22
    19a8:	79 83       	std	Y+1, r23	; 0x01
    19aa:	8a 83       	std	Y+2, r24	; 0x02
    19ac:	9b 83       	std	Y+3, r25	; 0x03
    19ae:	c0 5e       	subi	r28, 0xE0	; 224
    19b0:	d0 40       	sbci	r29, 0x00	; 0
    19b2:	c0 52       	subi	r28, 0x20	; 32
    19b4:	df 4f       	sbci	r29, 0xFF	; 255
    19b6:	e8 81       	ld	r30, Y
    19b8:	f9 81       	ldd	r31, Y+1	; 0x01
    19ba:	c0 5e       	subi	r28, 0xE0	; 224
    19bc:	d0 40       	sbci	r29, 0x00	; 0
    19be:	fd ab       	std	Y+53, r31	; 0x35
    19c0:	ec ab       	std	Y+52, r30	; 0x34

000019c2 <.L108>:
    19c2:	8c a9       	ldd	r24, Y+52	; 0x34
    19c4:	9d a9       	ldd	r25, Y+53	; 0x35
    19c6:	99 af       	std	Y+57, r25	; 0x39
    19c8:	88 af       	std	Y+56, r24	; 0x38

000019ca <.LM191>:
    19ca:	88 ad       	ldd	r24, Y+56	; 0x38
    19cc:	99 ad       	ldd	r25, Y+57	; 0x39

000019ce <.L1^B18>:
    19ce:	01 97       	sbiw	r24, 0x01	; 1
    19d0:	f1 f7       	brne	.-4      	; 0x19ce <.L1^B18>
    19d2:	99 af       	std	Y+57, r25	; 0x39
    19d4:	88 af       	std	Y+56, r24	; 0x38

000019d6 <.LM192>:
	...

000019d8 <.L113>:
    19d8:	96 c5       	rjmp	.+2860   	; 0x2506 <.L190>

000019da <.L79>:
    19da:	40 e0       	ldi	r20, 0x00	; 0
    19dc:	60 e0       	ldi	r22, 0x00	; 0
    19de:	82 e0       	ldi	r24, 0x02	; 2
    19e0:	0e 94 09 03 	call	0x612	; 0x612 <DIO_SetPinValue>

000019e4 <.LM195>:
    19e4:	41 e0       	ldi	r20, 0x01	; 1
    19e6:	61 e0       	ldi	r22, 0x01	; 1
    19e8:	82 e0       	ldi	r24, 0x02	; 2
    19ea:	0e 94 09 03 	call	0x612	; 0x612 <DIO_SetPinValue>

000019ee <.LM196>:
    19ee:	41 e0       	ldi	r20, 0x01	; 1
    19f0:	62 e0       	ldi	r22, 0x02	; 2
    19f2:	82 e0       	ldi	r24, 0x02	; 2
    19f4:	0e 94 09 03 	call	0x612	; 0x612 <DIO_SetPinValue>

000019f8 <.LM197>:
    19f8:	40 e0       	ldi	r20, 0x00	; 0
    19fa:	63 e0       	ldi	r22, 0x03	; 3
    19fc:	82 e0       	ldi	r24, 0x02	; 2
    19fe:	0e 94 09 03 	call	0x612	; 0x612 <DIO_SetPinValue>
    1a02:	80 e0       	ldi	r24, 0x00	; 0
    1a04:	90 e0       	ldi	r25, 0x00	; 0
    1a06:	a0 ea       	ldi	r26, 0xA0	; 160
    1a08:	b0 e4       	ldi	r27, 0x40	; 64
    1a0a:	8a af       	std	Y+58, r24	; 0x3a
    1a0c:	9b af       	std	Y+59, r25	; 0x3b
    1a0e:	ac af       	std	Y+60, r26	; 0x3c
    1a10:	bd af       	std	Y+61, r27	; 0x3d

00001a12 <.LM198>:
    1a12:	8e 01       	movw	r16, r28
    1a14:	02 5c       	subi	r16, 0xC2	; 194
    1a16:	1f 4f       	sbci	r17, 0xFF	; 255
    1a18:	20 e0       	ldi	r18, 0x00	; 0
    1a1a:	30 e0       	ldi	r19, 0x00	; 0
    1a1c:	4a ef       	ldi	r20, 0xFA	; 250
    1a1e:	54 e4       	ldi	r21, 0x44	; 68
    1a20:	6a ad       	ldd	r22, Y+58	; 0x3a
    1a22:	7b ad       	ldd	r23, Y+59	; 0x3b
    1a24:	8c ad       	ldd	r24, Y+60	; 0x3c
    1a26:	9d ad       	ldd	r25, Y+61	; 0x3d
    1a28:	0e 94 35 30 	call	0x606a	; 0x606a <__mulsf3>
    1a2c:	cc 51       	subi	r28, 0x1C	; 28
    1a2e:	df 4f       	sbci	r29, 0xFF	; 255
    1a30:	68 83       	st	Y, r22
    1a32:	79 83       	std	Y+1, r23	; 0x01
    1a34:	8a 83       	std	Y+2, r24	; 0x02
    1a36:	9b 83       	std	Y+3, r25	; 0x03
    1a38:	c4 5e       	subi	r28, 0xE4	; 228
    1a3a:	d0 40       	sbci	r29, 0x00	; 0
    1a3c:	cc 51       	subi	r28, 0x1C	; 28
    1a3e:	df 4f       	sbci	r29, 0xFF	; 255
    1a40:	88 81       	ld	r24, Y
    1a42:	99 81       	ldd	r25, Y+1	; 0x01
    1a44:	aa 81       	ldd	r26, Y+2	; 0x02
    1a46:	bb 81       	ldd	r27, Y+3	; 0x03
    1a48:	c4 5e       	subi	r28, 0xE4	; 228
    1a4a:	d0 40       	sbci	r29, 0x00	; 0
    1a4c:	f8 01       	movw	r30, r16
    1a4e:	80 83       	st	Z, r24
    1a50:	91 83       	std	Z+1, r25	; 0x01
    1a52:	a2 83       	std	Z+2, r26	; 0x02
    1a54:	b3 83       	std	Z+3, r27	; 0x03

00001a56 <.LM199>:
    1a56:	ce 01       	movw	r24, r28
    1a58:	ce 96       	adiw	r24, 0x3e	; 62
    1a5a:	20 e0       	ldi	r18, 0x00	; 0
    1a5c:	30 e0       	ldi	r19, 0x00	; 0
    1a5e:	40 e8       	ldi	r20, 0x80	; 128
    1a60:	5f e3       	ldi	r21, 0x3F	; 63
    1a62:	dc 01       	movw	r26, r24
    1a64:	6d 91       	ld	r22, X+
    1a66:	7d 91       	ld	r23, X+
    1a68:	8d 91       	ld	r24, X+
    1a6a:	9c 91       	ld	r25, X
    1a6c:	0e 94 af 2f 	call	0x5f5e	; 0x5f5e <__cmpsf2>
    1a70:	88 23       	and	r24, r24
    1a72:	4c f4       	brge	.+18     	; 0x1a86 <.L180>

00001a74 <.LM200>:
    1a74:	ce 01       	movw	r24, r28
    1a76:	8e 5b       	subi	r24, 0xBE	; 190
    1a78:	9f 4f       	sbci	r25, 0xFF	; 255
    1a7a:	21 e0       	ldi	r18, 0x01	; 1
    1a7c:	30 e0       	ldi	r19, 0x00	; 0
    1a7e:	fc 01       	movw	r30, r24
    1a80:	31 83       	std	Z+1, r19	; 0x01
    1a82:	20 83       	st	Z, r18
    1a84:	9f c0       	rjmp	.+318    	; 0x1bc4 <.L116>

00001a86 <.L180>:
    1a86:	ce 01       	movw	r24, r28
    1a88:	ce 96       	adiw	r24, 0x3e	; 62
    1a8a:	20 e0       	ldi	r18, 0x00	; 0
    1a8c:	3f ef       	ldi	r19, 0xFF	; 255
    1a8e:	4f e7       	ldi	r20, 0x7F	; 127
    1a90:	57 e4       	ldi	r21, 0x47	; 71
    1a92:	dc 01       	movw	r26, r24
    1a94:	6d 91       	ld	r22, X+
    1a96:	7d 91       	ld	r23, X+
    1a98:	8d 91       	ld	r24, X+
    1a9a:	9c 91       	ld	r25, X
    1a9c:	0e 94 30 30 	call	0x6060	; 0x6060 <__gesf2>
    1aa0:	88 23       	and	r24, r24
    1aa2:	09 f0       	breq	.+2      	; 0x1aa6 <L0^A>

00001aa4 <L0^A>:
    1aa4:	0c f4       	brge	.+2      	; 0x1aa8 <.LM202>

00001aa6 <L0^A>:
    1aa6:	71 c0       	rjmp	.+226    	; 0x1b8a <.L181>

00001aa8 <.LM202>:
    1aa8:	20 e0       	ldi	r18, 0x00	; 0
    1aaa:	30 e0       	ldi	r19, 0x00	; 0
    1aac:	40 e2       	ldi	r20, 0x20	; 32
    1aae:	51 e4       	ldi	r21, 0x41	; 65
    1ab0:	6a ad       	ldd	r22, Y+58	; 0x3a
    1ab2:	7b ad       	ldd	r23, Y+59	; 0x3b
    1ab4:	8c ad       	ldd	r24, Y+60	; 0x3c
    1ab6:	9d ad       	ldd	r25, Y+61	; 0x3d
    1ab8:	0e 94 35 30 	call	0x606a	; 0x606a <__mulsf3>
    1abc:	c8 51       	subi	r28, 0x18	; 24
    1abe:	df 4f       	sbci	r29, 0xFF	; 255
    1ac0:	68 83       	st	Y, r22
    1ac2:	79 83       	std	Y+1, r23	; 0x01
    1ac4:	8a 83       	std	Y+2, r24	; 0x02
    1ac6:	9b 83       	std	Y+3, r25	; 0x03
    1ac8:	c8 5e       	subi	r28, 0xE8	; 232
    1aca:	d0 40       	sbci	r29, 0x00	; 0
    1acc:	c8 51       	subi	r28, 0x18	; 24
    1ace:	df 4f       	sbci	r29, 0xFF	; 255
    1ad0:	88 81       	ld	r24, Y
    1ad2:	99 81       	ldd	r25, Y+1	; 0x01
    1ad4:	aa 81       	ldd	r26, Y+2	; 0x02
    1ad6:	bb 81       	ldd	r27, Y+3	; 0x03
    1ad8:	c8 5e       	subi	r28, 0xE8	; 232
    1ada:	d0 40       	sbci	r29, 0x00	; 0
    1adc:	c0 57       	subi	r28, 0x70	; 112
    1ade:	df 4f       	sbci	r29, 0xFF	; 255
    1ae0:	88 83       	st	Y, r24
    1ae2:	99 83       	std	Y+1, r25	; 0x01
    1ae4:	aa 83       	std	Y+2, r26	; 0x02
    1ae6:	bb 83       	std	Y+3, r27	; 0x03
    1ae8:	c0 59       	subi	r28, 0x90	; 144
    1aea:	d0 40       	sbci	r29, 0x00	; 0

00001aec <.LM203>:
    1aec:	8e 01       	movw	r16, r28
    1aee:	0e 5b       	subi	r16, 0xBE	; 190
    1af0:	1f 4f       	sbci	r17, 0xFF	; 255
    1af2:	c0 57       	subi	r28, 0x70	; 112
    1af4:	df 4f       	sbci	r29, 0xFF	; 255
    1af6:	68 81       	ld	r22, Y
    1af8:	79 81       	ldd	r23, Y+1	; 0x01
    1afa:	8a 81       	ldd	r24, Y+2	; 0x02
    1afc:	9b 81       	ldd	r25, Y+3	; 0x03
    1afe:	c0 59       	subi	r28, 0x90	; 144
    1b00:	d0 40       	sbci	r29, 0x00	; 0
    1b02:	0e 94 b4 2f 	call	0x5f68	; 0x5f68 <__fixunssfsi>
    1b06:	c4 51       	subi	r28, 0x14	; 20
    1b08:	df 4f       	sbci	r29, 0xFF	; 255
    1b0a:	68 83       	st	Y, r22
    1b0c:	79 83       	std	Y+1, r23	; 0x01
    1b0e:	8a 83       	std	Y+2, r24	; 0x02
    1b10:	9b 83       	std	Y+3, r25	; 0x03
    1b12:	cc 5e       	subi	r28, 0xEC	; 236
    1b14:	d0 40       	sbci	r29, 0x00	; 0
    1b16:	c4 51       	subi	r28, 0x14	; 20
    1b18:	df 4f       	sbci	r29, 0xFF	; 255
    1b1a:	e8 81       	ld	r30, Y
    1b1c:	f9 81       	ldd	r31, Y+1	; 0x01
    1b1e:	cc 5e       	subi	r28, 0xEC	; 236
    1b20:	d0 40       	sbci	r29, 0x00	; 0
    1b22:	d8 01       	movw	r26, r16
    1b24:	11 96       	adiw	r26, 0x01	; 1
    1b26:	fc 93       	st	X, r31
    1b28:	ee 93       	st	-X, r30

00001b2a <.LM204>:
    1b2a:	26 c0       	rjmp	.+76     	; 0x1b78 <.L119>

00001b2c <.L120>:
    1b2c:	ce 01       	movw	r24, r28
    1b2e:	8c 5b       	subi	r24, 0xBC	; 188
    1b30:	9f 4f       	sbci	r25, 0xFF	; 255
    1b32:	28 ec       	ldi	r18, 0xC8	; 200
    1b34:	30 e0       	ldi	r19, 0x00	; 0
    1b36:	dc 01       	movw	r26, r24
    1b38:	2d 93       	st	X+, r18
    1b3a:	3c 93       	st	X, r19

00001b3c <.LM205>:
    1b3c:	ce 01       	movw	r24, r28
    1b3e:	8c 5b       	subi	r24, 0xBC	; 188
    1b40:	9f 4f       	sbci	r25, 0xFF	; 255
    1b42:	fc 01       	movw	r30, r24
    1b44:	80 81       	ld	r24, Z
    1b46:	91 81       	ldd	r25, Z+1	; 0x01

00001b48 <.L1^B19>:
    1b48:	01 97       	sbiw	r24, 0x01	; 1
    1b4a:	f1 f7       	brne	.-4      	; 0x1b48 <.L1^B19>
    1b4c:	9e 01       	movw	r18, r28
    1b4e:	2c 5b       	subi	r18, 0xBC	; 188
    1b50:	3f 4f       	sbci	r19, 0xFF	; 255
    1b52:	d9 01       	movw	r26, r18
    1b54:	8d 93       	st	X+, r24
    1b56:	9c 93       	st	X, r25

00001b58 <.LM206>:
	...

00001b5a <.LM207>:
    1b5a:	ce 01       	movw	r24, r28
    1b5c:	8e 5b       	subi	r24, 0xBE	; 190
    1b5e:	9f 4f       	sbci	r25, 0xFF	; 255
    1b60:	9e 01       	movw	r18, r28
    1b62:	2e 5b       	subi	r18, 0xBE	; 190
    1b64:	3f 4f       	sbci	r19, 0xFF	; 255
    1b66:	f9 01       	movw	r30, r18
    1b68:	20 81       	ld	r18, Z
    1b6a:	31 81       	ldd	r19, Z+1	; 0x01
    1b6c:	21 50       	subi	r18, 0x01	; 1
    1b6e:	31 09       	sbc	r19, r1
    1b70:	dc 01       	movw	r26, r24
    1b72:	11 96       	adiw	r26, 0x01	; 1
    1b74:	3c 93       	st	X, r19
    1b76:	2e 93       	st	-X, r18

00001b78 <.L119>:
    1b78:	ce 01       	movw	r24, r28
    1b7a:	8e 5b       	subi	r24, 0xBE	; 190
    1b7c:	9f 4f       	sbci	r25, 0xFF	; 255
    1b7e:	fc 01       	movw	r30, r24
    1b80:	80 81       	ld	r24, Z
    1b82:	91 81       	ldd	r25, Z+1	; 0x01
    1b84:	00 97       	sbiw	r24, 0x00	; 0
    1b86:	91 f6       	brne	.-92     	; 0x1b2c <.L120>

00001b88 <.LM209>:
    1b88:	39 c0       	rjmp	.+114    	; 0x1bfc <.L121>

00001b8a <.L181>:
    1b8a:	8e 01       	movw	r16, r28
    1b8c:	0e 5b       	subi	r16, 0xBE	; 190
    1b8e:	1f 4f       	sbci	r17, 0xFF	; 255
    1b90:	ce 01       	movw	r24, r28
    1b92:	ce 96       	adiw	r24, 0x3e	; 62
    1b94:	dc 01       	movw	r26, r24
    1b96:	6d 91       	ld	r22, X+
    1b98:	7d 91       	ld	r23, X+
    1b9a:	8d 91       	ld	r24, X+
    1b9c:	9c 91       	ld	r25, X
    1b9e:	0e 94 b4 2f 	call	0x5f68	; 0x5f68 <__fixunssfsi>
    1ba2:	c0 51       	subi	r28, 0x10	; 16
    1ba4:	df 4f       	sbci	r29, 0xFF	; 255
    1ba6:	68 83       	st	Y, r22
    1ba8:	79 83       	std	Y+1, r23	; 0x01
    1baa:	8a 83       	std	Y+2, r24	; 0x02
    1bac:	9b 83       	std	Y+3, r25	; 0x03
    1bae:	c0 5f       	subi	r28, 0xF0	; 240
    1bb0:	d0 40       	sbci	r29, 0x00	; 0
    1bb2:	c0 51       	subi	r28, 0x10	; 16
    1bb4:	df 4f       	sbci	r29, 0xFF	; 255
    1bb6:	88 81       	ld	r24, Y
    1bb8:	99 81       	ldd	r25, Y+1	; 0x01
    1bba:	c0 5f       	subi	r28, 0xF0	; 240
    1bbc:	d0 40       	sbci	r29, 0x00	; 0
    1bbe:	f8 01       	movw	r30, r16
    1bc0:	91 83       	std	Z+1, r25	; 0x01
    1bc2:	80 83       	st	Z, r24

00001bc4 <.L116>:
    1bc4:	ce 01       	movw	r24, r28
    1bc6:	8a 5b       	subi	r24, 0xBA	; 186
    1bc8:	9f 4f       	sbci	r25, 0xFF	; 255
    1bca:	9e 01       	movw	r18, r28
    1bcc:	2e 5b       	subi	r18, 0xBE	; 190
    1bce:	3f 4f       	sbci	r19, 0xFF	; 255
    1bd0:	d9 01       	movw	r26, r18
    1bd2:	2d 91       	ld	r18, X+
    1bd4:	3c 91       	ld	r19, X
    1bd6:	fc 01       	movw	r30, r24
    1bd8:	31 83       	std	Z+1, r19	; 0x01
    1bda:	20 83       	st	Z, r18

00001bdc <.LM211>:
    1bdc:	ce 01       	movw	r24, r28
    1bde:	8a 5b       	subi	r24, 0xBA	; 186
    1be0:	9f 4f       	sbci	r25, 0xFF	; 255
    1be2:	dc 01       	movw	r26, r24
    1be4:	8d 91       	ld	r24, X+
    1be6:	9c 91       	ld	r25, X
    1be8:	11 97       	sbiw	r26, 0x01	; 1

00001bea <.L1^B20>:
    1bea:	01 97       	sbiw	r24, 0x01	; 1
    1bec:	f1 f7       	brne	.-4      	; 0x1bea <.L1^B20>
    1bee:	9e 01       	movw	r18, r28
    1bf0:	2a 5b       	subi	r18, 0xBA	; 186
    1bf2:	3f 4f       	sbci	r19, 0xFF	; 255
    1bf4:	f9 01       	movw	r30, r18
    1bf6:	91 83       	std	Z+1, r25	; 0x01
    1bf8:	80 83       	st	Z, r24

00001bfa <.LM212>:
	...

00001bfc <.L121>:
    1bfc:	84 c4       	rjmp	.+2312   	; 0x2506 <.L190>

00001bfe <.L76>:
    1bfe:	40 e0       	ldi	r20, 0x00	; 0
    1c00:	60 e0       	ldi	r22, 0x00	; 0
    1c02:	82 e0       	ldi	r24, 0x02	; 2
    1c04:	0e 94 09 03 	call	0x612	; 0x612 <DIO_SetPinValue>

00001c08 <.LM215>:
    1c08:	40 e0       	ldi	r20, 0x00	; 0
    1c0a:	61 e0       	ldi	r22, 0x01	; 1
    1c0c:	82 e0       	ldi	r24, 0x02	; 2
    1c0e:	0e 94 09 03 	call	0x612	; 0x612 <DIO_SetPinValue>

00001c12 <.LM216>:
    1c12:	41 e0       	ldi	r20, 0x01	; 1
    1c14:	62 e0       	ldi	r22, 0x02	; 2
    1c16:	82 e0       	ldi	r24, 0x02	; 2
    1c18:	0e 94 09 03 	call	0x612	; 0x612 <DIO_SetPinValue>

00001c1c <.LM217>:
    1c1c:	40 e0       	ldi	r20, 0x00	; 0
    1c1e:	63 e0       	ldi	r22, 0x03	; 3
    1c20:	82 e0       	ldi	r24, 0x02	; 2
    1c22:	0e 94 09 03 	call	0x612	; 0x612 <DIO_SetPinValue>
    1c26:	9e 01       	movw	r18, r28
    1c28:	28 5b       	subi	r18, 0xB8	; 184
    1c2a:	3f 4f       	sbci	r19, 0xFF	; 255
    1c2c:	80 e0       	ldi	r24, 0x00	; 0
    1c2e:	90 e0       	ldi	r25, 0x00	; 0
    1c30:	a0 ea       	ldi	r26, 0xA0	; 160
    1c32:	b0 e4       	ldi	r27, 0x40	; 64
    1c34:	f9 01       	movw	r30, r18
    1c36:	80 83       	st	Z, r24
    1c38:	91 83       	std	Z+1, r25	; 0x01
    1c3a:	a2 83       	std	Z+2, r26	; 0x02
    1c3c:	b3 83       	std	Z+3, r27	; 0x03

00001c3e <.LM218>:
    1c3e:	8e 01       	movw	r16, r28
    1c40:	04 5b       	subi	r16, 0xB4	; 180
    1c42:	1f 4f       	sbci	r17, 0xFF	; 255
    1c44:	ce 01       	movw	r24, r28
    1c46:	88 5b       	subi	r24, 0xB8	; 184
    1c48:	9f 4f       	sbci	r25, 0xFF	; 255
    1c4a:	20 e0       	ldi	r18, 0x00	; 0
    1c4c:	30 e0       	ldi	r19, 0x00	; 0
    1c4e:	4a ef       	ldi	r20, 0xFA	; 250
    1c50:	54 e4       	ldi	r21, 0x44	; 68
    1c52:	dc 01       	movw	r26, r24
    1c54:	6d 91       	ld	r22, X+
    1c56:	7d 91       	ld	r23, X+
    1c58:	8d 91       	ld	r24, X+
    1c5a:	9c 91       	ld	r25, X
    1c5c:	0e 94 35 30 	call	0x606a	; 0x606a <__mulsf3>
    1c60:	cc 50       	subi	r28, 0x0C	; 12
    1c62:	df 4f       	sbci	r29, 0xFF	; 255
    1c64:	68 83       	st	Y, r22
    1c66:	79 83       	std	Y+1, r23	; 0x01
    1c68:	8a 83       	std	Y+2, r24	; 0x02
    1c6a:	9b 83       	std	Y+3, r25	; 0x03
    1c6c:	c4 5f       	subi	r28, 0xF4	; 244
    1c6e:	d0 40       	sbci	r29, 0x00	; 0
    1c70:	cc 50       	subi	r28, 0x0C	; 12
    1c72:	df 4f       	sbci	r29, 0xFF	; 255
    1c74:	88 81       	ld	r24, Y
    1c76:	99 81       	ldd	r25, Y+1	; 0x01
    1c78:	aa 81       	ldd	r26, Y+2	; 0x02
    1c7a:	bb 81       	ldd	r27, Y+3	; 0x03
    1c7c:	c4 5f       	subi	r28, 0xF4	; 244
    1c7e:	d0 40       	sbci	r29, 0x00	; 0
    1c80:	f8 01       	movw	r30, r16
    1c82:	80 83       	st	Z, r24
    1c84:	91 83       	std	Z+1, r25	; 0x01
    1c86:	a2 83       	std	Z+2, r26	; 0x02
    1c88:	b3 83       	std	Z+3, r27	; 0x03

00001c8a <.LM219>:
    1c8a:	ce 01       	movw	r24, r28
    1c8c:	84 5b       	subi	r24, 0xB4	; 180
    1c8e:	9f 4f       	sbci	r25, 0xFF	; 255
    1c90:	20 e0       	ldi	r18, 0x00	; 0
    1c92:	30 e0       	ldi	r19, 0x00	; 0
    1c94:	40 e8       	ldi	r20, 0x80	; 128
    1c96:	5f e3       	ldi	r21, 0x3F	; 63
    1c98:	dc 01       	movw	r26, r24
    1c9a:	6d 91       	ld	r22, X+
    1c9c:	7d 91       	ld	r23, X+
    1c9e:	8d 91       	ld	r24, X+
    1ca0:	9c 91       	ld	r25, X
    1ca2:	0e 94 af 2f 	call	0x5f5e	; 0x5f5e <__cmpsf2>
    1ca6:	88 23       	and	r24, r24
    1ca8:	4c f4       	brge	.+18     	; 0x1cbc <.L182>

00001caa <.LM220>:
    1caa:	ce 01       	movw	r24, r28
    1cac:	80 5b       	subi	r24, 0xB0	; 176
    1cae:	9f 4f       	sbci	r25, 0xFF	; 255
    1cb0:	21 e0       	ldi	r18, 0x01	; 1
    1cb2:	30 e0       	ldi	r19, 0x00	; 0
    1cb4:	fc 01       	movw	r30, r24
    1cb6:	31 83       	std	Z+1, r19	; 0x01
    1cb8:	20 83       	st	Z, r18
    1cba:	a5 c0       	rjmp	.+330    	; 0x1e06 <.L124>

00001cbc <.L182>:
    1cbc:	ce 01       	movw	r24, r28
    1cbe:	84 5b       	subi	r24, 0xB4	; 180
    1cc0:	9f 4f       	sbci	r25, 0xFF	; 255
    1cc2:	20 e0       	ldi	r18, 0x00	; 0
    1cc4:	3f ef       	ldi	r19, 0xFF	; 255
    1cc6:	4f e7       	ldi	r20, 0x7F	; 127
    1cc8:	57 e4       	ldi	r21, 0x47	; 71
    1cca:	dc 01       	movw	r26, r24
    1ccc:	6d 91       	ld	r22, X+
    1cce:	7d 91       	ld	r23, X+
    1cd0:	8d 91       	ld	r24, X+
    1cd2:	9c 91       	ld	r25, X
    1cd4:	0e 94 30 30 	call	0x6060	; 0x6060 <__gesf2>
    1cd8:	88 23       	and	r24, r24
    1cda:	09 f0       	breq	.+2      	; 0x1cde <L0^A>

00001cdc <L0^A>:
    1cdc:	0c f4       	brge	.+2      	; 0x1ce0 <.LM222>

00001cde <L0^A>:
    1cde:	75 c0       	rjmp	.+234    	; 0x1dca <.L183>

00001ce0 <.LM222>:
    1ce0:	ce 01       	movw	r24, r28
    1ce2:	88 5b       	subi	r24, 0xB8	; 184
    1ce4:	9f 4f       	sbci	r25, 0xFF	; 255
    1ce6:	20 e0       	ldi	r18, 0x00	; 0
    1ce8:	30 e0       	ldi	r19, 0x00	; 0
    1cea:	40 e2       	ldi	r20, 0x20	; 32
    1cec:	51 e4       	ldi	r21, 0x41	; 65
    1cee:	fc 01       	movw	r30, r24
    1cf0:	60 81       	ld	r22, Z
    1cf2:	71 81       	ldd	r23, Z+1	; 0x01
    1cf4:	82 81       	ldd	r24, Z+2	; 0x02
    1cf6:	93 81       	ldd	r25, Z+3	; 0x03
    1cf8:	0e 94 35 30 	call	0x606a	; 0x606a <__mulsf3>
    1cfc:	c8 50       	subi	r28, 0x08	; 8
    1cfe:	df 4f       	sbci	r29, 0xFF	; 255
    1d00:	68 83       	st	Y, r22
    1d02:	79 83       	std	Y+1, r23	; 0x01
    1d04:	8a 83       	std	Y+2, r24	; 0x02
    1d06:	9b 83       	std	Y+3, r25	; 0x03
    1d08:	c8 5f       	subi	r28, 0xF8	; 248
    1d0a:	d0 40       	sbci	r29, 0x00	; 0
    1d0c:	c8 50       	subi	r28, 0x08	; 8
    1d0e:	df 4f       	sbci	r29, 0xFF	; 255
    1d10:	88 81       	ld	r24, Y
    1d12:	99 81       	ldd	r25, Y+1	; 0x01
    1d14:	aa 81       	ldd	r26, Y+2	; 0x02
    1d16:	bb 81       	ldd	r27, Y+3	; 0x03
    1d18:	c8 5f       	subi	r28, 0xF8	; 248
    1d1a:	d0 40       	sbci	r29, 0x00	; 0
    1d1c:	cc 56       	subi	r28, 0x6C	; 108
    1d1e:	df 4f       	sbci	r29, 0xFF	; 255
    1d20:	88 83       	st	Y, r24
    1d22:	99 83       	std	Y+1, r25	; 0x01
    1d24:	aa 83       	std	Y+2, r26	; 0x02
    1d26:	bb 83       	std	Y+3, r27	; 0x03
    1d28:	c4 59       	subi	r28, 0x94	; 148
    1d2a:	d0 40       	sbci	r29, 0x00	; 0

00001d2c <.LM223>:
    1d2c:	8e 01       	movw	r16, r28
    1d2e:	00 5b       	subi	r16, 0xB0	; 176
    1d30:	1f 4f       	sbci	r17, 0xFF	; 255
    1d32:	cc 56       	subi	r28, 0x6C	; 108
    1d34:	df 4f       	sbci	r29, 0xFF	; 255
    1d36:	68 81       	ld	r22, Y
    1d38:	79 81       	ldd	r23, Y+1	; 0x01
    1d3a:	8a 81       	ldd	r24, Y+2	; 0x02
    1d3c:	9b 81       	ldd	r25, Y+3	; 0x03
    1d3e:	c4 59       	subi	r28, 0x94	; 148
    1d40:	d0 40       	sbci	r29, 0x00	; 0
    1d42:	0e 94 b4 2f 	call	0x5f68	; 0x5f68 <__fixunssfsi>
    1d46:	c4 50       	subi	r28, 0x04	; 4
    1d48:	df 4f       	sbci	r29, 0xFF	; 255
    1d4a:	68 83       	st	Y, r22
    1d4c:	79 83       	std	Y+1, r23	; 0x01
    1d4e:	8a 83       	std	Y+2, r24	; 0x02
    1d50:	9b 83       	std	Y+3, r25	; 0x03
    1d52:	cc 5f       	subi	r28, 0xFC	; 252
    1d54:	d0 40       	sbci	r29, 0x00	; 0
    1d56:	c4 50       	subi	r28, 0x04	; 4
    1d58:	df 4f       	sbci	r29, 0xFF	; 255
    1d5a:	e8 81       	ld	r30, Y
    1d5c:	f9 81       	ldd	r31, Y+1	; 0x01
    1d5e:	cc 5f       	subi	r28, 0xFC	; 252
    1d60:	d0 40       	sbci	r29, 0x00	; 0
    1d62:	d8 01       	movw	r26, r16
    1d64:	11 96       	adiw	r26, 0x01	; 1
    1d66:	fc 93       	st	X, r31
    1d68:	ee 93       	st	-X, r30

00001d6a <.LM224>:
    1d6a:	26 c0       	rjmp	.+76     	; 0x1db8 <.L127>

00001d6c <.L128>:
    1d6c:	ce 01       	movw	r24, r28
    1d6e:	8e 5a       	subi	r24, 0xAE	; 174
    1d70:	9f 4f       	sbci	r25, 0xFF	; 255
    1d72:	28 ec       	ldi	r18, 0xC8	; 200
    1d74:	30 e0       	ldi	r19, 0x00	; 0
    1d76:	dc 01       	movw	r26, r24
    1d78:	2d 93       	st	X+, r18
    1d7a:	3c 93       	st	X, r19

00001d7c <.LM225>:
    1d7c:	ce 01       	movw	r24, r28
    1d7e:	8e 5a       	subi	r24, 0xAE	; 174
    1d80:	9f 4f       	sbci	r25, 0xFF	; 255
    1d82:	fc 01       	movw	r30, r24
    1d84:	80 81       	ld	r24, Z
    1d86:	91 81       	ldd	r25, Z+1	; 0x01

00001d88 <.L1^B21>:
    1d88:	01 97       	sbiw	r24, 0x01	; 1
    1d8a:	f1 f7       	brne	.-4      	; 0x1d88 <.L1^B21>
    1d8c:	9e 01       	movw	r18, r28
    1d8e:	2e 5a       	subi	r18, 0xAE	; 174
    1d90:	3f 4f       	sbci	r19, 0xFF	; 255
    1d92:	d9 01       	movw	r26, r18
    1d94:	8d 93       	st	X+, r24
    1d96:	9c 93       	st	X, r25

00001d98 <.LM226>:
	...

00001d9a <.LM227>:
    1d9a:	ce 01       	movw	r24, r28
    1d9c:	80 5b       	subi	r24, 0xB0	; 176
    1d9e:	9f 4f       	sbci	r25, 0xFF	; 255
    1da0:	9e 01       	movw	r18, r28
    1da2:	20 5b       	subi	r18, 0xB0	; 176
    1da4:	3f 4f       	sbci	r19, 0xFF	; 255
    1da6:	f9 01       	movw	r30, r18
    1da8:	20 81       	ld	r18, Z
    1daa:	31 81       	ldd	r19, Z+1	; 0x01
    1dac:	21 50       	subi	r18, 0x01	; 1
    1dae:	31 09       	sbc	r19, r1
    1db0:	dc 01       	movw	r26, r24
    1db2:	11 96       	adiw	r26, 0x01	; 1
    1db4:	3c 93       	st	X, r19
    1db6:	2e 93       	st	-X, r18

00001db8 <.L127>:
    1db8:	ce 01       	movw	r24, r28
    1dba:	80 5b       	subi	r24, 0xB0	; 176
    1dbc:	9f 4f       	sbci	r25, 0xFF	; 255
    1dbe:	fc 01       	movw	r30, r24
    1dc0:	80 81       	ld	r24, Z
    1dc2:	91 81       	ldd	r25, Z+1	; 0x01
    1dc4:	00 97       	sbiw	r24, 0x00	; 0
    1dc6:	91 f6       	brne	.-92     	; 0x1d6c <.L128>

00001dc8 <.LM229>:
    1dc8:	3a c0       	rjmp	.+116    	; 0x1e3e <.L129>

00001dca <.L183>:
    1dca:	8e 01       	movw	r16, r28
    1dcc:	00 5b       	subi	r16, 0xB0	; 176
    1dce:	1f 4f       	sbci	r17, 0xFF	; 255
    1dd0:	ce 01       	movw	r24, r28
    1dd2:	84 5b       	subi	r24, 0xB4	; 180
    1dd4:	9f 4f       	sbci	r25, 0xFF	; 255
    1dd6:	dc 01       	movw	r26, r24
    1dd8:	6d 91       	ld	r22, X+
    1dda:	7d 91       	ld	r23, X+
    1ddc:	8d 91       	ld	r24, X+
    1dde:	9c 91       	ld	r25, X
    1de0:	0e 94 b4 2f 	call	0x5f68	; 0x5f68 <__fixunssfsi>
    1de4:	c0 50       	subi	r28, 0x00	; 0
    1de6:	df 4f       	sbci	r29, 0xFF	; 255
    1de8:	68 83       	st	Y, r22
    1dea:	79 83       	std	Y+1, r23	; 0x01
    1dec:	8a 83       	std	Y+2, r24	; 0x02
    1dee:	9b 83       	std	Y+3, r25	; 0x03
    1df0:	c0 50       	subi	r28, 0x00	; 0
    1df2:	d1 40       	sbci	r29, 0x01	; 1
    1df4:	c0 50       	subi	r28, 0x00	; 0
    1df6:	df 4f       	sbci	r29, 0xFF	; 255
    1df8:	88 81       	ld	r24, Y
    1dfa:	99 81       	ldd	r25, Y+1	; 0x01
    1dfc:	c0 50       	subi	r28, 0x00	; 0
    1dfe:	d1 40       	sbci	r29, 0x01	; 1
    1e00:	f8 01       	movw	r30, r16
    1e02:	91 83       	std	Z+1, r25	; 0x01
    1e04:	80 83       	st	Z, r24

00001e06 <.L124>:
    1e06:	ce 01       	movw	r24, r28
    1e08:	8c 5a       	subi	r24, 0xAC	; 172
    1e0a:	9f 4f       	sbci	r25, 0xFF	; 255
    1e0c:	9e 01       	movw	r18, r28
    1e0e:	20 5b       	subi	r18, 0xB0	; 176
    1e10:	3f 4f       	sbci	r19, 0xFF	; 255
    1e12:	d9 01       	movw	r26, r18
    1e14:	2d 91       	ld	r18, X+
    1e16:	3c 91       	ld	r19, X
    1e18:	fc 01       	movw	r30, r24
    1e1a:	31 83       	std	Z+1, r19	; 0x01
    1e1c:	20 83       	st	Z, r18

00001e1e <.LM231>:
    1e1e:	ce 01       	movw	r24, r28
    1e20:	8c 5a       	subi	r24, 0xAC	; 172
    1e22:	9f 4f       	sbci	r25, 0xFF	; 255
    1e24:	dc 01       	movw	r26, r24
    1e26:	8d 91       	ld	r24, X+
    1e28:	9c 91       	ld	r25, X
    1e2a:	11 97       	sbiw	r26, 0x01	; 1

00001e2c <.L1^B22>:
    1e2c:	01 97       	sbiw	r24, 0x01	; 1
    1e2e:	f1 f7       	brne	.-4      	; 0x1e2c <.L1^B22>
    1e30:	9e 01       	movw	r18, r28
    1e32:	2c 5a       	subi	r18, 0xAC	; 172
    1e34:	3f 4f       	sbci	r19, 0xFF	; 255
    1e36:	f9 01       	movw	r30, r18
    1e38:	91 83       	std	Z+1, r25	; 0x01
    1e3a:	80 83       	st	Z, r24

00001e3c <.LM232>:
	...

00001e3e <.L129>:
    1e3e:	63 c3       	rjmp	.+1734   	; 0x2506 <.L190>

00001e40 <.L77>:
    1e40:	40 e0       	ldi	r20, 0x00	; 0
    1e42:	60 e0       	ldi	r22, 0x00	; 0
    1e44:	82 e0       	ldi	r24, 0x02	; 2
    1e46:	0e 94 09 03 	call	0x612	; 0x612 <DIO_SetPinValue>

00001e4a <.LM235>:
    1e4a:	40 e0       	ldi	r20, 0x00	; 0
    1e4c:	61 e0       	ldi	r22, 0x01	; 1
    1e4e:	82 e0       	ldi	r24, 0x02	; 2
    1e50:	0e 94 09 03 	call	0x612	; 0x612 <DIO_SetPinValue>

00001e54 <.LM236>:
    1e54:	41 e0       	ldi	r20, 0x01	; 1
    1e56:	62 e0       	ldi	r22, 0x02	; 2
    1e58:	82 e0       	ldi	r24, 0x02	; 2
    1e5a:	0e 94 09 03 	call	0x612	; 0x612 <DIO_SetPinValue>

00001e5e <.LM237>:
    1e5e:	41 e0       	ldi	r20, 0x01	; 1
    1e60:	63 e0       	ldi	r22, 0x03	; 3
    1e62:	82 e0       	ldi	r24, 0x02	; 2
    1e64:	0e 94 09 03 	call	0x612	; 0x612 <DIO_SetPinValue>
    1e68:	9e 01       	movw	r18, r28
    1e6a:	2a 5a       	subi	r18, 0xAA	; 170
    1e6c:	3f 4f       	sbci	r19, 0xFF	; 255
    1e6e:	80 e0       	ldi	r24, 0x00	; 0
    1e70:	90 e0       	ldi	r25, 0x00	; 0
    1e72:	a0 ea       	ldi	r26, 0xA0	; 160
    1e74:	b0 e4       	ldi	r27, 0x40	; 64
    1e76:	f9 01       	movw	r30, r18
    1e78:	80 83       	st	Z, r24
    1e7a:	91 83       	std	Z+1, r25	; 0x01
    1e7c:	a2 83       	std	Z+2, r26	; 0x02
    1e7e:	b3 83       	std	Z+3, r27	; 0x03

00001e80 <.LM238>:
    1e80:	8e 01       	movw	r16, r28
    1e82:	06 5a       	subi	r16, 0xA6	; 166
    1e84:	1f 4f       	sbci	r17, 0xFF	; 255
    1e86:	ce 01       	movw	r24, r28
    1e88:	8a 5a       	subi	r24, 0xAA	; 170
    1e8a:	9f 4f       	sbci	r25, 0xFF	; 255
    1e8c:	20 e0       	ldi	r18, 0x00	; 0
    1e8e:	30 e0       	ldi	r19, 0x00	; 0
    1e90:	4a ef       	ldi	r20, 0xFA	; 250
    1e92:	54 e4       	ldi	r21, 0x44	; 68
    1e94:	dc 01       	movw	r26, r24
    1e96:	6d 91       	ld	r22, X+
    1e98:	7d 91       	ld	r23, X+
    1e9a:	8d 91       	ld	r24, X+
    1e9c:	9c 91       	ld	r25, X
    1e9e:	0e 94 35 30 	call	0x606a	; 0x606a <__mulsf3>
    1ea2:	cc 5f       	subi	r28, 0xFC	; 252
    1ea4:	de 4f       	sbci	r29, 0xFE	; 254
    1ea6:	68 83       	st	Y, r22
    1ea8:	79 83       	std	Y+1, r23	; 0x01
    1eaa:	8a 83       	std	Y+2, r24	; 0x02
    1eac:	9b 83       	std	Y+3, r25	; 0x03
    1eae:	c4 50       	subi	r28, 0x04	; 4
    1eb0:	d1 40       	sbci	r29, 0x01	; 1
    1eb2:	cc 5f       	subi	r28, 0xFC	; 252
    1eb4:	de 4f       	sbci	r29, 0xFE	; 254
    1eb6:	88 81       	ld	r24, Y
    1eb8:	99 81       	ldd	r25, Y+1	; 0x01
    1eba:	aa 81       	ldd	r26, Y+2	; 0x02
    1ebc:	bb 81       	ldd	r27, Y+3	; 0x03
    1ebe:	c4 50       	subi	r28, 0x04	; 4
    1ec0:	d1 40       	sbci	r29, 0x01	; 1
    1ec2:	f8 01       	movw	r30, r16
    1ec4:	80 83       	st	Z, r24
    1ec6:	91 83       	std	Z+1, r25	; 0x01
    1ec8:	a2 83       	std	Z+2, r26	; 0x02
    1eca:	b3 83       	std	Z+3, r27	; 0x03

00001ecc <.LM239>:
    1ecc:	ce 01       	movw	r24, r28
    1ece:	86 5a       	subi	r24, 0xA6	; 166
    1ed0:	9f 4f       	sbci	r25, 0xFF	; 255
    1ed2:	20 e0       	ldi	r18, 0x00	; 0
    1ed4:	30 e0       	ldi	r19, 0x00	; 0
    1ed6:	40 e8       	ldi	r20, 0x80	; 128
    1ed8:	5f e3       	ldi	r21, 0x3F	; 63
    1eda:	dc 01       	movw	r26, r24
    1edc:	6d 91       	ld	r22, X+
    1ede:	7d 91       	ld	r23, X+
    1ee0:	8d 91       	ld	r24, X+
    1ee2:	9c 91       	ld	r25, X
    1ee4:	0e 94 af 2f 	call	0x5f5e	; 0x5f5e <__cmpsf2>
    1ee8:	88 23       	and	r24, r24
    1eea:	4c f4       	brge	.+18     	; 0x1efe <.L184>

00001eec <.LM240>:
    1eec:	ce 01       	movw	r24, r28
    1eee:	82 5a       	subi	r24, 0xA2	; 162
    1ef0:	9f 4f       	sbci	r25, 0xFF	; 255
    1ef2:	21 e0       	ldi	r18, 0x01	; 1
    1ef4:	30 e0       	ldi	r19, 0x00	; 0
    1ef6:	fc 01       	movw	r30, r24
    1ef8:	31 83       	std	Z+1, r19	; 0x01
    1efa:	20 83       	st	Z, r18
    1efc:	a5 c0       	rjmp	.+330    	; 0x2048 <.L132>

00001efe <.L184>:
    1efe:	ce 01       	movw	r24, r28
    1f00:	86 5a       	subi	r24, 0xA6	; 166
    1f02:	9f 4f       	sbci	r25, 0xFF	; 255
    1f04:	20 e0       	ldi	r18, 0x00	; 0
    1f06:	3f ef       	ldi	r19, 0xFF	; 255
    1f08:	4f e7       	ldi	r20, 0x7F	; 127
    1f0a:	57 e4       	ldi	r21, 0x47	; 71
    1f0c:	dc 01       	movw	r26, r24
    1f0e:	6d 91       	ld	r22, X+
    1f10:	7d 91       	ld	r23, X+
    1f12:	8d 91       	ld	r24, X+
    1f14:	9c 91       	ld	r25, X
    1f16:	0e 94 30 30 	call	0x6060	; 0x6060 <__gesf2>
    1f1a:	88 23       	and	r24, r24
    1f1c:	09 f0       	breq	.+2      	; 0x1f20 <L0^A>

00001f1e <L0^A>:
    1f1e:	0c f4       	brge	.+2      	; 0x1f22 <.LM242>

00001f20 <L0^A>:
    1f20:	75 c0       	rjmp	.+234    	; 0x200c <.L185>

00001f22 <.LM242>:
    1f22:	ce 01       	movw	r24, r28
    1f24:	8a 5a       	subi	r24, 0xAA	; 170
    1f26:	9f 4f       	sbci	r25, 0xFF	; 255
    1f28:	20 e0       	ldi	r18, 0x00	; 0
    1f2a:	30 e0       	ldi	r19, 0x00	; 0
    1f2c:	40 e2       	ldi	r20, 0x20	; 32
    1f2e:	51 e4       	ldi	r21, 0x41	; 65
    1f30:	fc 01       	movw	r30, r24
    1f32:	60 81       	ld	r22, Z
    1f34:	71 81       	ldd	r23, Z+1	; 0x01
    1f36:	82 81       	ldd	r24, Z+2	; 0x02
    1f38:	93 81       	ldd	r25, Z+3	; 0x03
    1f3a:	0e 94 35 30 	call	0x606a	; 0x606a <__mulsf3>
    1f3e:	c8 5f       	subi	r28, 0xF8	; 248
    1f40:	de 4f       	sbci	r29, 0xFE	; 254
    1f42:	68 83       	st	Y, r22
    1f44:	79 83       	std	Y+1, r23	; 0x01
    1f46:	8a 83       	std	Y+2, r24	; 0x02
    1f48:	9b 83       	std	Y+3, r25	; 0x03
    1f4a:	c8 50       	subi	r28, 0x08	; 8
    1f4c:	d1 40       	sbci	r29, 0x01	; 1
    1f4e:	c8 5f       	subi	r28, 0xF8	; 248
    1f50:	de 4f       	sbci	r29, 0xFE	; 254
    1f52:	88 81       	ld	r24, Y
    1f54:	99 81       	ldd	r25, Y+1	; 0x01
    1f56:	aa 81       	ldd	r26, Y+2	; 0x02
    1f58:	bb 81       	ldd	r27, Y+3	; 0x03
    1f5a:	c8 50       	subi	r28, 0x08	; 8
    1f5c:	d1 40       	sbci	r29, 0x01	; 1
    1f5e:	c8 56       	subi	r28, 0x68	; 104
    1f60:	df 4f       	sbci	r29, 0xFF	; 255
    1f62:	88 83       	st	Y, r24
    1f64:	99 83       	std	Y+1, r25	; 0x01
    1f66:	aa 83       	std	Y+2, r26	; 0x02
    1f68:	bb 83       	std	Y+3, r27	; 0x03
    1f6a:	c8 59       	subi	r28, 0x98	; 152
    1f6c:	d0 40       	sbci	r29, 0x00	; 0

00001f6e <.LM243>:
    1f6e:	8e 01       	movw	r16, r28
    1f70:	02 5a       	subi	r16, 0xA2	; 162
    1f72:	1f 4f       	sbci	r17, 0xFF	; 255
    1f74:	c8 56       	subi	r28, 0x68	; 104
    1f76:	df 4f       	sbci	r29, 0xFF	; 255
    1f78:	68 81       	ld	r22, Y
    1f7a:	79 81       	ldd	r23, Y+1	; 0x01
    1f7c:	8a 81       	ldd	r24, Y+2	; 0x02
    1f7e:	9b 81       	ldd	r25, Y+3	; 0x03
    1f80:	c8 59       	subi	r28, 0x98	; 152
    1f82:	d0 40       	sbci	r29, 0x00	; 0
    1f84:	0e 94 b4 2f 	call	0x5f68	; 0x5f68 <__fixunssfsi>
    1f88:	c4 5f       	subi	r28, 0xF4	; 244
    1f8a:	de 4f       	sbci	r29, 0xFE	; 254
    1f8c:	68 83       	st	Y, r22
    1f8e:	79 83       	std	Y+1, r23	; 0x01
    1f90:	8a 83       	std	Y+2, r24	; 0x02
    1f92:	9b 83       	std	Y+3, r25	; 0x03
    1f94:	cc 50       	subi	r28, 0x0C	; 12
    1f96:	d1 40       	sbci	r29, 0x01	; 1
    1f98:	c4 5f       	subi	r28, 0xF4	; 244
    1f9a:	de 4f       	sbci	r29, 0xFE	; 254
    1f9c:	e8 81       	ld	r30, Y
    1f9e:	f9 81       	ldd	r31, Y+1	; 0x01
    1fa0:	cc 50       	subi	r28, 0x0C	; 12
    1fa2:	d1 40       	sbci	r29, 0x01	; 1
    1fa4:	d8 01       	movw	r26, r16
    1fa6:	11 96       	adiw	r26, 0x01	; 1
    1fa8:	fc 93       	st	X, r31
    1faa:	ee 93       	st	-X, r30

00001fac <.LM244>:
    1fac:	26 c0       	rjmp	.+76     	; 0x1ffa <.L135>

00001fae <.L136>:
    1fae:	ce 01       	movw	r24, r28
    1fb0:	80 5a       	subi	r24, 0xA0	; 160
    1fb2:	9f 4f       	sbci	r25, 0xFF	; 255
    1fb4:	28 ec       	ldi	r18, 0xC8	; 200
    1fb6:	30 e0       	ldi	r19, 0x00	; 0
    1fb8:	dc 01       	movw	r26, r24
    1fba:	2d 93       	st	X+, r18
    1fbc:	3c 93       	st	X, r19

00001fbe <.LM245>:
    1fbe:	ce 01       	movw	r24, r28
    1fc0:	80 5a       	subi	r24, 0xA0	; 160
    1fc2:	9f 4f       	sbci	r25, 0xFF	; 255
    1fc4:	fc 01       	movw	r30, r24
    1fc6:	80 81       	ld	r24, Z
    1fc8:	91 81       	ldd	r25, Z+1	; 0x01

00001fca <.L1^B23>:
    1fca:	01 97       	sbiw	r24, 0x01	; 1
    1fcc:	f1 f7       	brne	.-4      	; 0x1fca <.L1^B23>
    1fce:	9e 01       	movw	r18, r28
    1fd0:	20 5a       	subi	r18, 0xA0	; 160
    1fd2:	3f 4f       	sbci	r19, 0xFF	; 255
    1fd4:	d9 01       	movw	r26, r18
    1fd6:	8d 93       	st	X+, r24
    1fd8:	9c 93       	st	X, r25

00001fda <.LM246>:
	...

00001fdc <.LM247>:
    1fdc:	ce 01       	movw	r24, r28
    1fde:	82 5a       	subi	r24, 0xA2	; 162
    1fe0:	9f 4f       	sbci	r25, 0xFF	; 255
    1fe2:	9e 01       	movw	r18, r28
    1fe4:	22 5a       	subi	r18, 0xA2	; 162
    1fe6:	3f 4f       	sbci	r19, 0xFF	; 255
    1fe8:	f9 01       	movw	r30, r18
    1fea:	20 81       	ld	r18, Z
    1fec:	31 81       	ldd	r19, Z+1	; 0x01
    1fee:	21 50       	subi	r18, 0x01	; 1
    1ff0:	31 09       	sbc	r19, r1
    1ff2:	dc 01       	movw	r26, r24
    1ff4:	11 96       	adiw	r26, 0x01	; 1
    1ff6:	3c 93       	st	X, r19
    1ff8:	2e 93       	st	-X, r18

00001ffa <.L135>:
    1ffa:	ce 01       	movw	r24, r28
    1ffc:	82 5a       	subi	r24, 0xA2	; 162
    1ffe:	9f 4f       	sbci	r25, 0xFF	; 255
    2000:	fc 01       	movw	r30, r24
    2002:	80 81       	ld	r24, Z
    2004:	91 81       	ldd	r25, Z+1	; 0x01
    2006:	00 97       	sbiw	r24, 0x00	; 0
    2008:	91 f6       	brne	.-92     	; 0x1fae <.L136>

0000200a <.LM249>:
    200a:	3a c0       	rjmp	.+116    	; 0x2080 <.L137>

0000200c <.L185>:
    200c:	8e 01       	movw	r16, r28
    200e:	02 5a       	subi	r16, 0xA2	; 162
    2010:	1f 4f       	sbci	r17, 0xFF	; 255
    2012:	ce 01       	movw	r24, r28
    2014:	86 5a       	subi	r24, 0xA6	; 166
    2016:	9f 4f       	sbci	r25, 0xFF	; 255
    2018:	dc 01       	movw	r26, r24
    201a:	6d 91       	ld	r22, X+
    201c:	7d 91       	ld	r23, X+
    201e:	8d 91       	ld	r24, X+
    2020:	9c 91       	ld	r25, X
    2022:	0e 94 b4 2f 	call	0x5f68	; 0x5f68 <__fixunssfsi>
    2026:	c0 5f       	subi	r28, 0xF0	; 240
    2028:	de 4f       	sbci	r29, 0xFE	; 254
    202a:	68 83       	st	Y, r22
    202c:	79 83       	std	Y+1, r23	; 0x01
    202e:	8a 83       	std	Y+2, r24	; 0x02
    2030:	9b 83       	std	Y+3, r25	; 0x03
    2032:	c0 51       	subi	r28, 0x10	; 16
    2034:	d1 40       	sbci	r29, 0x01	; 1
    2036:	c0 5f       	subi	r28, 0xF0	; 240
    2038:	de 4f       	sbci	r29, 0xFE	; 254
    203a:	88 81       	ld	r24, Y
    203c:	99 81       	ldd	r25, Y+1	; 0x01
    203e:	c0 51       	subi	r28, 0x10	; 16
    2040:	d1 40       	sbci	r29, 0x01	; 1
    2042:	f8 01       	movw	r30, r16
    2044:	91 83       	std	Z+1, r25	; 0x01
    2046:	80 83       	st	Z, r24

00002048 <.L132>:
    2048:	ce 01       	movw	r24, r28
    204a:	8e 59       	subi	r24, 0x9E	; 158
    204c:	9f 4f       	sbci	r25, 0xFF	; 255
    204e:	9e 01       	movw	r18, r28
    2050:	22 5a       	subi	r18, 0xA2	; 162
    2052:	3f 4f       	sbci	r19, 0xFF	; 255
    2054:	d9 01       	movw	r26, r18
    2056:	2d 91       	ld	r18, X+
    2058:	3c 91       	ld	r19, X
    205a:	fc 01       	movw	r30, r24
    205c:	31 83       	std	Z+1, r19	; 0x01
    205e:	20 83       	st	Z, r18

00002060 <.LM251>:
    2060:	ce 01       	movw	r24, r28
    2062:	8e 59       	subi	r24, 0x9E	; 158
    2064:	9f 4f       	sbci	r25, 0xFF	; 255
    2066:	dc 01       	movw	r26, r24
    2068:	8d 91       	ld	r24, X+
    206a:	9c 91       	ld	r25, X
    206c:	11 97       	sbiw	r26, 0x01	; 1

0000206e <.L1^B24>:
    206e:	01 97       	sbiw	r24, 0x01	; 1
    2070:	f1 f7       	brne	.-4      	; 0x206e <.L1^B24>
    2072:	9e 01       	movw	r18, r28
    2074:	2e 59       	subi	r18, 0x9E	; 158
    2076:	3f 4f       	sbci	r19, 0xFF	; 255
    2078:	f9 01       	movw	r30, r18
    207a:	91 83       	std	Z+1, r25	; 0x01
    207c:	80 83       	st	Z, r24

0000207e <.LM252>:
	...

00002080 <.L137>:
    2080:	42 c2       	rjmp	.+1156   	; 0x2506 <.L190>

00002082 <.L72>:
    2082:	40 e0       	ldi	r20, 0x00	; 0
    2084:	60 e0       	ldi	r22, 0x00	; 0
    2086:	82 e0       	ldi	r24, 0x02	; 2
    2088:	0e 94 09 03 	call	0x612	; 0x612 <DIO_SetPinValue>

0000208c <.LM255>:
    208c:	40 e0       	ldi	r20, 0x00	; 0
    208e:	61 e0       	ldi	r22, 0x01	; 1
    2090:	82 e0       	ldi	r24, 0x02	; 2
    2092:	0e 94 09 03 	call	0x612	; 0x612 <DIO_SetPinValue>

00002096 <.LM256>:
    2096:	40 e0       	ldi	r20, 0x00	; 0
    2098:	62 e0       	ldi	r22, 0x02	; 2
    209a:	82 e0       	ldi	r24, 0x02	; 2
    209c:	0e 94 09 03 	call	0x612	; 0x612 <DIO_SetPinValue>

000020a0 <.LM257>:
    20a0:	41 e0       	ldi	r20, 0x01	; 1
    20a2:	63 e0       	ldi	r22, 0x03	; 3
    20a4:	82 e0       	ldi	r24, 0x02	; 2
    20a6:	0e 94 09 03 	call	0x612	; 0x612 <DIO_SetPinValue>
    20aa:	9e 01       	movw	r18, r28
    20ac:	2c 59       	subi	r18, 0x9C	; 156
    20ae:	3f 4f       	sbci	r19, 0xFF	; 255
    20b0:	80 e0       	ldi	r24, 0x00	; 0
    20b2:	90 e0       	ldi	r25, 0x00	; 0
    20b4:	a0 ea       	ldi	r26, 0xA0	; 160
    20b6:	b0 e4       	ldi	r27, 0x40	; 64
    20b8:	f9 01       	movw	r30, r18
    20ba:	80 83       	st	Z, r24
    20bc:	91 83       	std	Z+1, r25	; 0x01
    20be:	a2 83       	std	Z+2, r26	; 0x02
    20c0:	b3 83       	std	Z+3, r27	; 0x03

000020c2 <.LM258>:
    20c2:	8e 01       	movw	r16, r28
    20c4:	08 59       	subi	r16, 0x98	; 152
    20c6:	1f 4f       	sbci	r17, 0xFF	; 255
    20c8:	ce 01       	movw	r24, r28
    20ca:	8c 59       	subi	r24, 0x9C	; 156
    20cc:	9f 4f       	sbci	r25, 0xFF	; 255
    20ce:	20 e0       	ldi	r18, 0x00	; 0
    20d0:	30 e0       	ldi	r19, 0x00	; 0
    20d2:	4a ef       	ldi	r20, 0xFA	; 250
    20d4:	54 e4       	ldi	r21, 0x44	; 68
    20d6:	dc 01       	movw	r26, r24
    20d8:	6d 91       	ld	r22, X+
    20da:	7d 91       	ld	r23, X+
    20dc:	8d 91       	ld	r24, X+
    20de:	9c 91       	ld	r25, X
    20e0:	0e 94 35 30 	call	0x606a	; 0x606a <__mulsf3>
    20e4:	cc 5e       	subi	r28, 0xEC	; 236
    20e6:	de 4f       	sbci	r29, 0xFE	; 254
    20e8:	68 83       	st	Y, r22
    20ea:	79 83       	std	Y+1, r23	; 0x01
    20ec:	8a 83       	std	Y+2, r24	; 0x02
    20ee:	9b 83       	std	Y+3, r25	; 0x03
    20f0:	c4 51       	subi	r28, 0x14	; 20
    20f2:	d1 40       	sbci	r29, 0x01	; 1
    20f4:	cc 5e       	subi	r28, 0xEC	; 236
    20f6:	de 4f       	sbci	r29, 0xFE	; 254
    20f8:	88 81       	ld	r24, Y
    20fa:	99 81       	ldd	r25, Y+1	; 0x01
    20fc:	aa 81       	ldd	r26, Y+2	; 0x02
    20fe:	bb 81       	ldd	r27, Y+3	; 0x03
    2100:	c4 51       	subi	r28, 0x14	; 20
    2102:	d1 40       	sbci	r29, 0x01	; 1
    2104:	f8 01       	movw	r30, r16
    2106:	80 83       	st	Z, r24
    2108:	91 83       	std	Z+1, r25	; 0x01
    210a:	a2 83       	std	Z+2, r26	; 0x02
    210c:	b3 83       	std	Z+3, r27	; 0x03

0000210e <.LM259>:
    210e:	ce 01       	movw	r24, r28
    2110:	88 59       	subi	r24, 0x98	; 152
    2112:	9f 4f       	sbci	r25, 0xFF	; 255
    2114:	20 e0       	ldi	r18, 0x00	; 0
    2116:	30 e0       	ldi	r19, 0x00	; 0
    2118:	40 e8       	ldi	r20, 0x80	; 128
    211a:	5f e3       	ldi	r21, 0x3F	; 63
    211c:	dc 01       	movw	r26, r24
    211e:	6d 91       	ld	r22, X+
    2120:	7d 91       	ld	r23, X+
    2122:	8d 91       	ld	r24, X+
    2124:	9c 91       	ld	r25, X
    2126:	0e 94 af 2f 	call	0x5f5e	; 0x5f5e <__cmpsf2>
    212a:	88 23       	and	r24, r24
    212c:	4c f4       	brge	.+18     	; 0x2140 <.L186>

0000212e <.LM260>:
    212e:	ce 01       	movw	r24, r28
    2130:	84 59       	subi	r24, 0x94	; 148
    2132:	9f 4f       	sbci	r25, 0xFF	; 255
    2134:	21 e0       	ldi	r18, 0x01	; 1
    2136:	30 e0       	ldi	r19, 0x00	; 0
    2138:	fc 01       	movw	r30, r24
    213a:	31 83       	std	Z+1, r19	; 0x01
    213c:	20 83       	st	Z, r18
    213e:	a5 c0       	rjmp	.+330    	; 0x228a <.L140>

00002140 <.L186>:
    2140:	ce 01       	movw	r24, r28
    2142:	88 59       	subi	r24, 0x98	; 152
    2144:	9f 4f       	sbci	r25, 0xFF	; 255
    2146:	20 e0       	ldi	r18, 0x00	; 0
    2148:	3f ef       	ldi	r19, 0xFF	; 255
    214a:	4f e7       	ldi	r20, 0x7F	; 127
    214c:	57 e4       	ldi	r21, 0x47	; 71
    214e:	dc 01       	movw	r26, r24
    2150:	6d 91       	ld	r22, X+
    2152:	7d 91       	ld	r23, X+
    2154:	8d 91       	ld	r24, X+
    2156:	9c 91       	ld	r25, X
    2158:	0e 94 30 30 	call	0x6060	; 0x6060 <__gesf2>
    215c:	88 23       	and	r24, r24
    215e:	09 f0       	breq	.+2      	; 0x2162 <L0^A>

00002160 <L0^A>:
    2160:	0c f4       	brge	.+2      	; 0x2164 <.LM262>

00002162 <L0^A>:
    2162:	75 c0       	rjmp	.+234    	; 0x224e <.L187>

00002164 <.LM262>:
    2164:	ce 01       	movw	r24, r28
    2166:	8c 59       	subi	r24, 0x9C	; 156
    2168:	9f 4f       	sbci	r25, 0xFF	; 255
    216a:	20 e0       	ldi	r18, 0x00	; 0
    216c:	30 e0       	ldi	r19, 0x00	; 0
    216e:	40 e2       	ldi	r20, 0x20	; 32
    2170:	51 e4       	ldi	r21, 0x41	; 65
    2172:	fc 01       	movw	r30, r24
    2174:	60 81       	ld	r22, Z
    2176:	71 81       	ldd	r23, Z+1	; 0x01
    2178:	82 81       	ldd	r24, Z+2	; 0x02
    217a:	93 81       	ldd	r25, Z+3	; 0x03
    217c:	0e 94 35 30 	call	0x606a	; 0x606a <__mulsf3>
    2180:	c8 5e       	subi	r28, 0xE8	; 232
    2182:	de 4f       	sbci	r29, 0xFE	; 254
    2184:	68 83       	st	Y, r22
    2186:	79 83       	std	Y+1, r23	; 0x01
    2188:	8a 83       	std	Y+2, r24	; 0x02
    218a:	9b 83       	std	Y+3, r25	; 0x03
    218c:	c8 51       	subi	r28, 0x18	; 24
    218e:	d1 40       	sbci	r29, 0x01	; 1
    2190:	c8 5e       	subi	r28, 0xE8	; 232
    2192:	de 4f       	sbci	r29, 0xFE	; 254
    2194:	88 81       	ld	r24, Y
    2196:	99 81       	ldd	r25, Y+1	; 0x01
    2198:	aa 81       	ldd	r26, Y+2	; 0x02
    219a:	bb 81       	ldd	r27, Y+3	; 0x03
    219c:	c8 51       	subi	r28, 0x18	; 24
    219e:	d1 40       	sbci	r29, 0x01	; 1
    21a0:	c4 56       	subi	r28, 0x64	; 100
    21a2:	df 4f       	sbci	r29, 0xFF	; 255
    21a4:	88 83       	st	Y, r24
    21a6:	99 83       	std	Y+1, r25	; 0x01
    21a8:	aa 83       	std	Y+2, r26	; 0x02
    21aa:	bb 83       	std	Y+3, r27	; 0x03
    21ac:	cc 59       	subi	r28, 0x9C	; 156
    21ae:	d0 40       	sbci	r29, 0x00	; 0

000021b0 <.LM263>:
    21b0:	8e 01       	movw	r16, r28
    21b2:	04 59       	subi	r16, 0x94	; 148
    21b4:	1f 4f       	sbci	r17, 0xFF	; 255
    21b6:	c4 56       	subi	r28, 0x64	; 100
    21b8:	df 4f       	sbci	r29, 0xFF	; 255
    21ba:	68 81       	ld	r22, Y
    21bc:	79 81       	ldd	r23, Y+1	; 0x01
    21be:	8a 81       	ldd	r24, Y+2	; 0x02
    21c0:	9b 81       	ldd	r25, Y+3	; 0x03
    21c2:	cc 59       	subi	r28, 0x9C	; 156
    21c4:	d0 40       	sbci	r29, 0x00	; 0
    21c6:	0e 94 b4 2f 	call	0x5f68	; 0x5f68 <__fixunssfsi>
    21ca:	c4 5e       	subi	r28, 0xE4	; 228
    21cc:	de 4f       	sbci	r29, 0xFE	; 254
    21ce:	68 83       	st	Y, r22
    21d0:	79 83       	std	Y+1, r23	; 0x01
    21d2:	8a 83       	std	Y+2, r24	; 0x02
    21d4:	9b 83       	std	Y+3, r25	; 0x03
    21d6:	cc 51       	subi	r28, 0x1C	; 28
    21d8:	d1 40       	sbci	r29, 0x01	; 1
    21da:	c4 5e       	subi	r28, 0xE4	; 228
    21dc:	de 4f       	sbci	r29, 0xFE	; 254
    21de:	e8 81       	ld	r30, Y
    21e0:	f9 81       	ldd	r31, Y+1	; 0x01
    21e2:	cc 51       	subi	r28, 0x1C	; 28
    21e4:	d1 40       	sbci	r29, 0x01	; 1
    21e6:	d8 01       	movw	r26, r16
    21e8:	11 96       	adiw	r26, 0x01	; 1
    21ea:	fc 93       	st	X, r31
    21ec:	ee 93       	st	-X, r30

000021ee <.LM264>:
    21ee:	26 c0       	rjmp	.+76     	; 0x223c <.L143>

000021f0 <.L144>:
    21f0:	ce 01       	movw	r24, r28
    21f2:	82 59       	subi	r24, 0x92	; 146
    21f4:	9f 4f       	sbci	r25, 0xFF	; 255
    21f6:	28 ec       	ldi	r18, 0xC8	; 200
    21f8:	30 e0       	ldi	r19, 0x00	; 0
    21fa:	dc 01       	movw	r26, r24
    21fc:	2d 93       	st	X+, r18
    21fe:	3c 93       	st	X, r19

00002200 <.LM265>:
    2200:	ce 01       	movw	r24, r28
    2202:	82 59       	subi	r24, 0x92	; 146
    2204:	9f 4f       	sbci	r25, 0xFF	; 255
    2206:	fc 01       	movw	r30, r24
    2208:	80 81       	ld	r24, Z
    220a:	91 81       	ldd	r25, Z+1	; 0x01

0000220c <.L1^B25>:
    220c:	01 97       	sbiw	r24, 0x01	; 1
    220e:	f1 f7       	brne	.-4      	; 0x220c <.L1^B25>
    2210:	9e 01       	movw	r18, r28
    2212:	22 59       	subi	r18, 0x92	; 146
    2214:	3f 4f       	sbci	r19, 0xFF	; 255
    2216:	d9 01       	movw	r26, r18
    2218:	8d 93       	st	X+, r24
    221a:	9c 93       	st	X, r25

0000221c <.LM266>:
	...

0000221e <.LM267>:
    221e:	ce 01       	movw	r24, r28
    2220:	84 59       	subi	r24, 0x94	; 148
    2222:	9f 4f       	sbci	r25, 0xFF	; 255
    2224:	9e 01       	movw	r18, r28
    2226:	24 59       	subi	r18, 0x94	; 148
    2228:	3f 4f       	sbci	r19, 0xFF	; 255
    222a:	f9 01       	movw	r30, r18
    222c:	20 81       	ld	r18, Z
    222e:	31 81       	ldd	r19, Z+1	; 0x01
    2230:	21 50       	subi	r18, 0x01	; 1
    2232:	31 09       	sbc	r19, r1
    2234:	dc 01       	movw	r26, r24
    2236:	11 96       	adiw	r26, 0x01	; 1
    2238:	3c 93       	st	X, r19
    223a:	2e 93       	st	-X, r18

0000223c <.L143>:
    223c:	ce 01       	movw	r24, r28
    223e:	84 59       	subi	r24, 0x94	; 148
    2240:	9f 4f       	sbci	r25, 0xFF	; 255
    2242:	fc 01       	movw	r30, r24
    2244:	80 81       	ld	r24, Z
    2246:	91 81       	ldd	r25, Z+1	; 0x01
    2248:	00 97       	sbiw	r24, 0x00	; 0
    224a:	91 f6       	brne	.-92     	; 0x21f0 <.L144>

0000224c <.LM269>:
    224c:	3a c0       	rjmp	.+116    	; 0x22c2 <.L145>

0000224e <.L187>:
    224e:	8e 01       	movw	r16, r28
    2250:	04 59       	subi	r16, 0x94	; 148
    2252:	1f 4f       	sbci	r17, 0xFF	; 255
    2254:	ce 01       	movw	r24, r28
    2256:	88 59       	subi	r24, 0x98	; 152
    2258:	9f 4f       	sbci	r25, 0xFF	; 255
    225a:	dc 01       	movw	r26, r24
    225c:	6d 91       	ld	r22, X+
    225e:	7d 91       	ld	r23, X+
    2260:	8d 91       	ld	r24, X+
    2262:	9c 91       	ld	r25, X
    2264:	0e 94 b4 2f 	call	0x5f68	; 0x5f68 <__fixunssfsi>
    2268:	c0 5e       	subi	r28, 0xE0	; 224
    226a:	de 4f       	sbci	r29, 0xFE	; 254
    226c:	68 83       	st	Y, r22
    226e:	79 83       	std	Y+1, r23	; 0x01
    2270:	8a 83       	std	Y+2, r24	; 0x02
    2272:	9b 83       	std	Y+3, r25	; 0x03
    2274:	c0 52       	subi	r28, 0x20	; 32
    2276:	d1 40       	sbci	r29, 0x01	; 1
    2278:	c0 5e       	subi	r28, 0xE0	; 224
    227a:	de 4f       	sbci	r29, 0xFE	; 254
    227c:	88 81       	ld	r24, Y
    227e:	99 81       	ldd	r25, Y+1	; 0x01
    2280:	c0 52       	subi	r28, 0x20	; 32
    2282:	d1 40       	sbci	r29, 0x01	; 1
    2284:	f8 01       	movw	r30, r16
    2286:	91 83       	std	Z+1, r25	; 0x01
    2288:	80 83       	st	Z, r24

0000228a <.L140>:
    228a:	ce 01       	movw	r24, r28
    228c:	80 59       	subi	r24, 0x90	; 144
    228e:	9f 4f       	sbci	r25, 0xFF	; 255
    2290:	9e 01       	movw	r18, r28
    2292:	24 59       	subi	r18, 0x94	; 148
    2294:	3f 4f       	sbci	r19, 0xFF	; 255
    2296:	d9 01       	movw	r26, r18
    2298:	2d 91       	ld	r18, X+
    229a:	3c 91       	ld	r19, X
    229c:	fc 01       	movw	r30, r24
    229e:	31 83       	std	Z+1, r19	; 0x01
    22a0:	20 83       	st	Z, r18

000022a2 <.LM271>:
    22a2:	ce 01       	movw	r24, r28
    22a4:	80 59       	subi	r24, 0x90	; 144
    22a6:	9f 4f       	sbci	r25, 0xFF	; 255
    22a8:	dc 01       	movw	r26, r24
    22aa:	8d 91       	ld	r24, X+
    22ac:	9c 91       	ld	r25, X
    22ae:	11 97       	sbiw	r26, 0x01	; 1

000022b0 <.L1^B26>:
    22b0:	01 97       	sbiw	r24, 0x01	; 1
    22b2:	f1 f7       	brne	.-4      	; 0x22b0 <.L1^B26>
    22b4:	9e 01       	movw	r18, r28
    22b6:	20 59       	subi	r18, 0x90	; 144
    22b8:	3f 4f       	sbci	r19, 0xFF	; 255
    22ba:	f9 01       	movw	r30, r18
    22bc:	91 83       	std	Z+1, r25	; 0x01
    22be:	80 83       	st	Z, r24

000022c0 <.LM272>:
	...

000022c2 <.L145>:
    22c2:	21 c1       	rjmp	.+578    	; 0x2506 <.L190>

000022c4 <.L75>:
    22c4:	41 e0       	ldi	r20, 0x01	; 1
    22c6:	60 e0       	ldi	r22, 0x00	; 0
    22c8:	82 e0       	ldi	r24, 0x02	; 2
    22ca:	0e 94 09 03 	call	0x612	; 0x612 <DIO_SetPinValue>

000022ce <.LM275>:
    22ce:	40 e0       	ldi	r20, 0x00	; 0
    22d0:	61 e0       	ldi	r22, 0x01	; 1
    22d2:	82 e0       	ldi	r24, 0x02	; 2
    22d4:	0e 94 09 03 	call	0x612	; 0x612 <DIO_SetPinValue>

000022d8 <.LM276>:
    22d8:	40 e0       	ldi	r20, 0x00	; 0
    22da:	62 e0       	ldi	r22, 0x02	; 2
    22dc:	82 e0       	ldi	r24, 0x02	; 2
    22de:	0e 94 09 03 	call	0x612	; 0x612 <DIO_SetPinValue>

000022e2 <.LM277>:
    22e2:	41 e0       	ldi	r20, 0x01	; 1
    22e4:	63 e0       	ldi	r22, 0x03	; 3
    22e6:	82 e0       	ldi	r24, 0x02	; 2
    22e8:	0e 94 09 03 	call	0x612	; 0x612 <DIO_SetPinValue>
    22ec:	9e 01       	movw	r18, r28
    22ee:	2e 58       	subi	r18, 0x8E	; 142
    22f0:	3f 4f       	sbci	r19, 0xFF	; 255
    22f2:	80 e0       	ldi	r24, 0x00	; 0
    22f4:	90 e0       	ldi	r25, 0x00	; 0
    22f6:	a0 ea       	ldi	r26, 0xA0	; 160
    22f8:	b0 e4       	ldi	r27, 0x40	; 64
    22fa:	f9 01       	movw	r30, r18
    22fc:	80 83       	st	Z, r24
    22fe:	91 83       	std	Z+1, r25	; 0x01
    2300:	a2 83       	std	Z+2, r26	; 0x02
    2302:	b3 83       	std	Z+3, r27	; 0x03

00002304 <.LM278>:
    2304:	8e 01       	movw	r16, r28
    2306:	0a 58       	subi	r16, 0x8A	; 138
    2308:	1f 4f       	sbci	r17, 0xFF	; 255
    230a:	ce 01       	movw	r24, r28
    230c:	8e 58       	subi	r24, 0x8E	; 142
    230e:	9f 4f       	sbci	r25, 0xFF	; 255
    2310:	20 e0       	ldi	r18, 0x00	; 0
    2312:	30 e0       	ldi	r19, 0x00	; 0
    2314:	4a ef       	ldi	r20, 0xFA	; 250
    2316:	54 e4       	ldi	r21, 0x44	; 68
    2318:	dc 01       	movw	r26, r24
    231a:	6d 91       	ld	r22, X+
    231c:	7d 91       	ld	r23, X+
    231e:	8d 91       	ld	r24, X+
    2320:	9c 91       	ld	r25, X
    2322:	0e 94 35 30 	call	0x606a	; 0x606a <__mulsf3>
    2326:	cc 5d       	subi	r28, 0xDC	; 220
    2328:	de 4f       	sbci	r29, 0xFE	; 254
    232a:	68 83       	st	Y, r22
    232c:	79 83       	std	Y+1, r23	; 0x01
    232e:	8a 83       	std	Y+2, r24	; 0x02
    2330:	9b 83       	std	Y+3, r25	; 0x03
    2332:	c4 52       	subi	r28, 0x24	; 36
    2334:	d1 40       	sbci	r29, 0x01	; 1
    2336:	cc 5d       	subi	r28, 0xDC	; 220
    2338:	de 4f       	sbci	r29, 0xFE	; 254
    233a:	88 81       	ld	r24, Y
    233c:	99 81       	ldd	r25, Y+1	; 0x01
    233e:	aa 81       	ldd	r26, Y+2	; 0x02
    2340:	bb 81       	ldd	r27, Y+3	; 0x03
    2342:	c4 52       	subi	r28, 0x24	; 36
    2344:	d1 40       	sbci	r29, 0x01	; 1
    2346:	f8 01       	movw	r30, r16
    2348:	80 83       	st	Z, r24
    234a:	91 83       	std	Z+1, r25	; 0x01
    234c:	a2 83       	std	Z+2, r26	; 0x02
    234e:	b3 83       	std	Z+3, r27	; 0x03

00002350 <.LM279>:
    2350:	ce 01       	movw	r24, r28
    2352:	8a 58       	subi	r24, 0x8A	; 138
    2354:	9f 4f       	sbci	r25, 0xFF	; 255
    2356:	20 e0       	ldi	r18, 0x00	; 0
    2358:	30 e0       	ldi	r19, 0x00	; 0
    235a:	40 e8       	ldi	r20, 0x80	; 128
    235c:	5f e3       	ldi	r21, 0x3F	; 63
    235e:	dc 01       	movw	r26, r24
    2360:	6d 91       	ld	r22, X+
    2362:	7d 91       	ld	r23, X+
    2364:	8d 91       	ld	r24, X+
    2366:	9c 91       	ld	r25, X
    2368:	0e 94 af 2f 	call	0x5f5e	; 0x5f5e <__cmpsf2>
    236c:	88 23       	and	r24, r24
    236e:	4c f4       	brge	.+18     	; 0x2382 <.L188>

00002370 <.LM280>:
    2370:	ce 01       	movw	r24, r28
    2372:	86 58       	subi	r24, 0x86	; 134
    2374:	9f 4f       	sbci	r25, 0xFF	; 255
    2376:	21 e0       	ldi	r18, 0x01	; 1
    2378:	30 e0       	ldi	r19, 0x00	; 0
    237a:	fc 01       	movw	r30, r24
    237c:	31 83       	std	Z+1, r19	; 0x01
    237e:	20 83       	st	Z, r18
    2380:	a5 c0       	rjmp	.+330    	; 0x24cc <.L148>

00002382 <.L188>:
    2382:	ce 01       	movw	r24, r28
    2384:	8a 58       	subi	r24, 0x8A	; 138
    2386:	9f 4f       	sbci	r25, 0xFF	; 255
    2388:	20 e0       	ldi	r18, 0x00	; 0
    238a:	3f ef       	ldi	r19, 0xFF	; 255
    238c:	4f e7       	ldi	r20, 0x7F	; 127
    238e:	57 e4       	ldi	r21, 0x47	; 71
    2390:	dc 01       	movw	r26, r24
    2392:	6d 91       	ld	r22, X+
    2394:	7d 91       	ld	r23, X+
    2396:	8d 91       	ld	r24, X+
    2398:	9c 91       	ld	r25, X
    239a:	0e 94 30 30 	call	0x6060	; 0x6060 <__gesf2>
    239e:	88 23       	and	r24, r24
    23a0:	09 f0       	breq	.+2      	; 0x23a4 <L0^A>

000023a2 <L0^A>:
    23a2:	0c f4       	brge	.+2      	; 0x23a6 <.LM282>

000023a4 <L0^A>:
    23a4:	75 c0       	rjmp	.+234    	; 0x2490 <.L189>

000023a6 <.LM282>:
    23a6:	ce 01       	movw	r24, r28
    23a8:	8e 58       	subi	r24, 0x8E	; 142
    23aa:	9f 4f       	sbci	r25, 0xFF	; 255
    23ac:	20 e0       	ldi	r18, 0x00	; 0
    23ae:	30 e0       	ldi	r19, 0x00	; 0
    23b0:	40 e2       	ldi	r20, 0x20	; 32
    23b2:	51 e4       	ldi	r21, 0x41	; 65
    23b4:	fc 01       	movw	r30, r24
    23b6:	60 81       	ld	r22, Z
    23b8:	71 81       	ldd	r23, Z+1	; 0x01
    23ba:	82 81       	ldd	r24, Z+2	; 0x02
    23bc:	93 81       	ldd	r25, Z+3	; 0x03
    23be:	0e 94 35 30 	call	0x606a	; 0x606a <__mulsf3>
    23c2:	c8 5d       	subi	r28, 0xD8	; 216
    23c4:	de 4f       	sbci	r29, 0xFE	; 254
    23c6:	68 83       	st	Y, r22
    23c8:	79 83       	std	Y+1, r23	; 0x01
    23ca:	8a 83       	std	Y+2, r24	; 0x02
    23cc:	9b 83       	std	Y+3, r25	; 0x03
    23ce:	c8 52       	subi	r28, 0x28	; 40
    23d0:	d1 40       	sbci	r29, 0x01	; 1
    23d2:	c8 5d       	subi	r28, 0xD8	; 216
    23d4:	de 4f       	sbci	r29, 0xFE	; 254
    23d6:	88 81       	ld	r24, Y
    23d8:	99 81       	ldd	r25, Y+1	; 0x01
    23da:	aa 81       	ldd	r26, Y+2	; 0x02
    23dc:	bb 81       	ldd	r27, Y+3	; 0x03
    23de:	c8 52       	subi	r28, 0x28	; 40
    23e0:	d1 40       	sbci	r29, 0x01	; 1
    23e2:	c0 56       	subi	r28, 0x60	; 96
    23e4:	df 4f       	sbci	r29, 0xFF	; 255
    23e6:	88 83       	st	Y, r24
    23e8:	99 83       	std	Y+1, r25	; 0x01
    23ea:	aa 83       	std	Y+2, r26	; 0x02
    23ec:	bb 83       	std	Y+3, r27	; 0x03
    23ee:	c0 5a       	subi	r28, 0xA0	; 160
    23f0:	d0 40       	sbci	r29, 0x00	; 0

000023f2 <.LM283>:
    23f2:	8e 01       	movw	r16, r28
    23f4:	06 58       	subi	r16, 0x86	; 134
    23f6:	1f 4f       	sbci	r17, 0xFF	; 255
    23f8:	c0 56       	subi	r28, 0x60	; 96
    23fa:	df 4f       	sbci	r29, 0xFF	; 255
    23fc:	68 81       	ld	r22, Y
    23fe:	79 81       	ldd	r23, Y+1	; 0x01
    2400:	8a 81       	ldd	r24, Y+2	; 0x02
    2402:	9b 81       	ldd	r25, Y+3	; 0x03
    2404:	c0 5a       	subi	r28, 0xA0	; 160
    2406:	d0 40       	sbci	r29, 0x00	; 0
    2408:	0e 94 b4 2f 	call	0x5f68	; 0x5f68 <__fixunssfsi>
    240c:	c4 5d       	subi	r28, 0xD4	; 212
    240e:	de 4f       	sbci	r29, 0xFE	; 254
    2410:	68 83       	st	Y, r22
    2412:	79 83       	std	Y+1, r23	; 0x01
    2414:	8a 83       	std	Y+2, r24	; 0x02
    2416:	9b 83       	std	Y+3, r25	; 0x03
    2418:	cc 52       	subi	r28, 0x2C	; 44
    241a:	d1 40       	sbci	r29, 0x01	; 1
    241c:	c4 5d       	subi	r28, 0xD4	; 212
    241e:	de 4f       	sbci	r29, 0xFE	; 254
    2420:	e8 81       	ld	r30, Y
    2422:	f9 81       	ldd	r31, Y+1	; 0x01
    2424:	cc 52       	subi	r28, 0x2C	; 44
    2426:	d1 40       	sbci	r29, 0x01	; 1
    2428:	d8 01       	movw	r26, r16
    242a:	11 96       	adiw	r26, 0x01	; 1
    242c:	fc 93       	st	X, r31
    242e:	ee 93       	st	-X, r30

00002430 <.LM284>:
    2430:	26 c0       	rjmp	.+76     	; 0x247e <.L151>

00002432 <.L152>:
    2432:	ce 01       	movw	r24, r28
    2434:	84 58       	subi	r24, 0x84	; 132
    2436:	9f 4f       	sbci	r25, 0xFF	; 255
    2438:	28 ec       	ldi	r18, 0xC8	; 200
    243a:	30 e0       	ldi	r19, 0x00	; 0
    243c:	dc 01       	movw	r26, r24
    243e:	2d 93       	st	X+, r18
    2440:	3c 93       	st	X, r19

00002442 <.LM285>:
    2442:	ce 01       	movw	r24, r28
    2444:	84 58       	subi	r24, 0x84	; 132
    2446:	9f 4f       	sbci	r25, 0xFF	; 255
    2448:	fc 01       	movw	r30, r24
    244a:	80 81       	ld	r24, Z
    244c:	91 81       	ldd	r25, Z+1	; 0x01

0000244e <.L1^B27>:
    244e:	01 97       	sbiw	r24, 0x01	; 1
    2450:	f1 f7       	brne	.-4      	; 0x244e <.L1^B27>
    2452:	9e 01       	movw	r18, r28
    2454:	24 58       	subi	r18, 0x84	; 132
    2456:	3f 4f       	sbci	r19, 0xFF	; 255
    2458:	d9 01       	movw	r26, r18
    245a:	8d 93       	st	X+, r24
    245c:	9c 93       	st	X, r25

0000245e <.LM286>:
	...

00002460 <.LM287>:
    2460:	ce 01       	movw	r24, r28
    2462:	86 58       	subi	r24, 0x86	; 134
    2464:	9f 4f       	sbci	r25, 0xFF	; 255
    2466:	9e 01       	movw	r18, r28
    2468:	26 58       	subi	r18, 0x86	; 134
    246a:	3f 4f       	sbci	r19, 0xFF	; 255
    246c:	f9 01       	movw	r30, r18
    246e:	20 81       	ld	r18, Z
    2470:	31 81       	ldd	r19, Z+1	; 0x01
    2472:	21 50       	subi	r18, 0x01	; 1
    2474:	31 09       	sbc	r19, r1
    2476:	dc 01       	movw	r26, r24
    2478:	11 96       	adiw	r26, 0x01	; 1
    247a:	3c 93       	st	X, r19
    247c:	2e 93       	st	-X, r18

0000247e <.L151>:
    247e:	ce 01       	movw	r24, r28
    2480:	86 58       	subi	r24, 0x86	; 134
    2482:	9f 4f       	sbci	r25, 0xFF	; 255
    2484:	fc 01       	movw	r30, r24
    2486:	80 81       	ld	r24, Z
    2488:	91 81       	ldd	r25, Z+1	; 0x01
    248a:	00 97       	sbiw	r24, 0x00	; 0
    248c:	91 f6       	brne	.-92     	; 0x2432 <.L152>

0000248e <.LM289>:
    248e:	3a c0       	rjmp	.+116    	; 0x2504 <.L153>

00002490 <.L189>:
    2490:	8e 01       	movw	r16, r28
    2492:	06 58       	subi	r16, 0x86	; 134
    2494:	1f 4f       	sbci	r17, 0xFF	; 255
    2496:	ce 01       	movw	r24, r28
    2498:	8a 58       	subi	r24, 0x8A	; 138
    249a:	9f 4f       	sbci	r25, 0xFF	; 255
    249c:	dc 01       	movw	r26, r24
    249e:	6d 91       	ld	r22, X+
    24a0:	7d 91       	ld	r23, X+
    24a2:	8d 91       	ld	r24, X+
    24a4:	9c 91       	ld	r25, X
    24a6:	0e 94 b4 2f 	call	0x5f68	; 0x5f68 <__fixunssfsi>
    24aa:	c0 5d       	subi	r28, 0xD0	; 208
    24ac:	de 4f       	sbci	r29, 0xFE	; 254
    24ae:	68 83       	st	Y, r22
    24b0:	79 83       	std	Y+1, r23	; 0x01
    24b2:	8a 83       	std	Y+2, r24	; 0x02
    24b4:	9b 83       	std	Y+3, r25	; 0x03
    24b6:	c0 53       	subi	r28, 0x30	; 48
    24b8:	d1 40       	sbci	r29, 0x01	; 1
    24ba:	c0 5d       	subi	r28, 0xD0	; 208
    24bc:	de 4f       	sbci	r29, 0xFE	; 254
    24be:	88 81       	ld	r24, Y
    24c0:	99 81       	ldd	r25, Y+1	; 0x01
    24c2:	c0 53       	subi	r28, 0x30	; 48
    24c4:	d1 40       	sbci	r29, 0x01	; 1
    24c6:	f8 01       	movw	r30, r16
    24c8:	91 83       	std	Z+1, r25	; 0x01
    24ca:	80 83       	st	Z, r24

000024cc <.L148>:
    24cc:	ce 01       	movw	r24, r28
    24ce:	82 58       	subi	r24, 0x82	; 130
    24d0:	9f 4f       	sbci	r25, 0xFF	; 255
    24d2:	9e 01       	movw	r18, r28
    24d4:	26 58       	subi	r18, 0x86	; 134
    24d6:	3f 4f       	sbci	r19, 0xFF	; 255
    24d8:	d9 01       	movw	r26, r18
    24da:	2d 91       	ld	r18, X+
    24dc:	3c 91       	ld	r19, X
    24de:	fc 01       	movw	r30, r24
    24e0:	31 83       	std	Z+1, r19	; 0x01
    24e2:	20 83       	st	Z, r18

000024e4 <.LM291>:
    24e4:	ce 01       	movw	r24, r28
    24e6:	82 58       	subi	r24, 0x82	; 130
    24e8:	9f 4f       	sbci	r25, 0xFF	; 255
    24ea:	dc 01       	movw	r26, r24
    24ec:	8d 91       	ld	r24, X+
    24ee:	9c 91       	ld	r25, X
    24f0:	11 97       	sbiw	r26, 0x01	; 1

000024f2 <.L1^B28>:
    24f2:	01 97       	sbiw	r24, 0x01	; 1
    24f4:	f1 f7       	brne	.-4      	; 0x24f2 <.L1^B28>
    24f6:	9e 01       	movw	r18, r28
    24f8:	22 58       	subi	r18, 0x82	; 130
    24fa:	3f 4f       	sbci	r19, 0xFF	; 255
    24fc:	f9 01       	movw	r30, r18
    24fe:	91 83       	std	Z+1, r25	; 0x01
    2500:	80 83       	st	Z, r24

00002502 <.LM292>:
	...

00002504 <.L153>:
	...

00002506 <.L190>:
    2506:	00 00       	nop
    2508:	cd 5c       	subi	r28, 0xCD	; 205
    250a:	de 4f       	sbci	r29, 0xFE	; 254
    250c:	0f b6       	in	r0, 0x3f	; 63
    250e:	f8 94       	cli
    2510:	de bf       	out	0x3e, r29	; 62
    2512:	0f be       	out	0x3f, r0	; 63
    2514:	cd bf       	out	0x3d, r28	; 61
    2516:	df 91       	pop	r29
    2518:	cf 91       	pop	r28
    251a:	1f 91       	pop	r17
    251c:	0f 91       	pop	r16
    251e:	08 95       	ret

00002520 <LCD_Init>:
    2520:	cf 93       	push	r28
    2522:	df 93       	push	r29
    2524:	cd b7       	in	r28, 0x3d	; 61
    2526:	de b7       	in	r29, 0x3e	; 62
    2528:	c8 58       	subi	r28, 0x88	; 136
    252a:	d1 09       	sbc	r29, r1
    252c:	0f b6       	in	r0, 0x3f	; 63
    252e:	f8 94       	cli
    2530:	de bf       	out	0x3e, r29	; 62
    2532:	0f be       	out	0x3f, r0	; 63
    2534:	cd bf       	out	0x3d, r28	; 61

00002536 <.LM1>:
    2536:	41 e0       	ldi	r20, 0x01	; 1
    2538:	61 e0       	ldi	r22, 0x01	; 1
    253a:	81 e0       	ldi	r24, 0x01	; 1
    253c:	0e 94 08 02 	call	0x410	; 0x410 <DIO_SetPinDiriction>

00002540 <.LM2>:
    2540:	41 e0       	ldi	r20, 0x01	; 1
    2542:	63 e0       	ldi	r22, 0x03	; 3
    2544:	81 e0       	ldi	r24, 0x01	; 1
    2546:	0e 94 08 02 	call	0x410	; 0x410 <DIO_SetPinDiriction>

0000254a <.LM3>:
    254a:	41 e0       	ldi	r20, 0x01	; 1
    254c:	62 e0       	ldi	r22, 0x02	; 2
    254e:	81 e0       	ldi	r24, 0x01	; 1
    2550:	0e 94 08 02 	call	0x410	; 0x410 <DIO_SetPinDiriction>

00002554 <.LM4>:
    2554:	60 ef       	ldi	r22, 0xF0	; 240
    2556:	80 e0       	ldi	r24, 0x00	; 0
    2558:	0e 94 74 04 	call	0x8e8	; 0x8e8 <DIO_SetPortDiriction>
    255c:	80 e0       	ldi	r24, 0x00	; 0
    255e:	90 e0       	ldi	r25, 0x00	; 0
    2560:	a8 ec       	ldi	r26, 0xC8	; 200
    2562:	b2 e4       	ldi	r27, 0x42	; 66
    2564:	8b a7       	std	Y+43, r24	; 0x2b
    2566:	9c a7       	std	Y+44, r25	; 0x2c
    2568:	ad a7       	std	Y+45, r26	; 0x2d
    256a:	be a7       	std	Y+46, r27	; 0x2e

0000256c <.LM5>:
    256c:	20 e0       	ldi	r18, 0x00	; 0
    256e:	30 e0       	ldi	r19, 0x00	; 0
    2570:	4a ef       	ldi	r20, 0xFA	; 250
    2572:	54 e4       	ldi	r21, 0x44	; 68
    2574:	6b a5       	ldd	r22, Y+43	; 0x2b
    2576:	7c a5       	ldd	r23, Y+44	; 0x2c
    2578:	8d a5       	ldd	r24, Y+45	; 0x2d
    257a:	9e a5       	ldd	r25, Y+46	; 0x2e
    257c:	0e 94 35 30 	call	0x606a	; 0x606a <__mulsf3>
    2580:	2d 96       	adiw	r28, 0x0d	; 13
    2582:	6c af       	std	Y+60, r22	; 0x3c
    2584:	7d af       	std	Y+61, r23	; 0x3d
    2586:	8e af       	std	Y+62, r24	; 0x3e
    2588:	9f af       	std	Y+63, r25	; 0x3f
    258a:	2d 97       	sbiw	r28, 0x0d	; 13
    258c:	2d 96       	adiw	r28, 0x0d	; 13
    258e:	8c ad       	ldd	r24, Y+60	; 0x3c
    2590:	9d ad       	ldd	r25, Y+61	; 0x3d
    2592:	ae ad       	ldd	r26, Y+62	; 0x3e
    2594:	bf ad       	ldd	r27, Y+63	; 0x3f
    2596:	2d 97       	sbiw	r28, 0x0d	; 13
    2598:	8f a7       	std	Y+47, r24	; 0x2f
    259a:	98 ab       	std	Y+48, r25	; 0x30
    259c:	a9 ab       	std	Y+49, r26	; 0x31
    259e:	ba ab       	std	Y+50, r27	; 0x32

000025a0 <.LM6>:
    25a0:	20 e0       	ldi	r18, 0x00	; 0
    25a2:	30 e0       	ldi	r19, 0x00	; 0
    25a4:	40 e8       	ldi	r20, 0x80	; 128
    25a6:	5f e3       	ldi	r21, 0x3F	; 63
    25a8:	6f a5       	ldd	r22, Y+47	; 0x2f
    25aa:	78 a9       	ldd	r23, Y+48	; 0x30
    25ac:	89 a9       	ldd	r24, Y+49	; 0x31
    25ae:	9a a9       	ldd	r25, Y+50	; 0x32
    25b0:	0e 94 af 2f 	call	0x5f5e	; 0x5f5e <__cmpsf2>
    25b4:	88 23       	and	r24, r24
    25b6:	2c f4       	brge	.+10     	; 0x25c2 <.L42>

000025b8 <.LM7>:
    25b8:	81 e0       	ldi	r24, 0x01	; 1
    25ba:	90 e0       	ldi	r25, 0x00	; 0
    25bc:	9c ab       	std	Y+52, r25	; 0x34
    25be:	8b ab       	std	Y+51, r24	; 0x33
    25c0:	66 c0       	rjmp	.+204    	; 0x268e <.L4>

000025c2 <.L42>:
    25c2:	20 e0       	ldi	r18, 0x00	; 0
    25c4:	3f ef       	ldi	r19, 0xFF	; 255
    25c6:	4f e7       	ldi	r20, 0x7F	; 127
    25c8:	57 e4       	ldi	r21, 0x47	; 71
    25ca:	6f a5       	ldd	r22, Y+47	; 0x2f
    25cc:	78 a9       	ldd	r23, Y+48	; 0x30
    25ce:	89 a9       	ldd	r24, Y+49	; 0x31
    25d0:	9a a9       	ldd	r25, Y+50	; 0x32
    25d2:	0e 94 30 30 	call	0x6060	; 0x6060 <__gesf2>
    25d6:	88 23       	and	r24, r24
    25d8:	09 f0       	breq	.+2      	; 0x25dc <L0^A>

000025da <L0^A>:
    25da:	0c f4       	brge	.+2      	; 0x25de <.LM9>

000025dc <L0^A>:
    25dc:	46 c0       	rjmp	.+140    	; 0x266a <.L43>

000025de <.LM9>:
    25de:	20 e0       	ldi	r18, 0x00	; 0
    25e0:	30 e0       	ldi	r19, 0x00	; 0
    25e2:	40 e2       	ldi	r20, 0x20	; 32
    25e4:	51 e4       	ldi	r21, 0x41	; 65
    25e6:	6b a5       	ldd	r22, Y+43	; 0x2b
    25e8:	7c a5       	ldd	r23, Y+44	; 0x2c
    25ea:	8d a5       	ldd	r24, Y+45	; 0x2d
    25ec:	9e a5       	ldd	r25, Y+46	; 0x2e
    25ee:	0e 94 35 30 	call	0x606a	; 0x606a <__mulsf3>
    25f2:	61 96       	adiw	r28, 0x11	; 17
    25f4:	6c af       	std	Y+60, r22	; 0x3c
    25f6:	7d af       	std	Y+61, r23	; 0x3d
    25f8:	8e af       	std	Y+62, r24	; 0x3e
    25fa:	9f af       	std	Y+63, r25	; 0x3f
    25fc:	61 97       	sbiw	r28, 0x11	; 17
    25fe:	61 96       	adiw	r28, 0x11	; 17
    2600:	8c ad       	ldd	r24, Y+60	; 0x3c
    2602:	9d ad       	ldd	r25, Y+61	; 0x3d
    2604:	ae ad       	ldd	r26, Y+62	; 0x3e
    2606:	bf ad       	ldd	r27, Y+63	; 0x3f
    2608:	61 97       	sbiw	r28, 0x11	; 17
    260a:	29 96       	adiw	r28, 0x09	; 9
    260c:	8c af       	std	Y+60, r24	; 0x3c
    260e:	9d af       	std	Y+61, r25	; 0x3d
    2610:	ae af       	std	Y+62, r26	; 0x3e
    2612:	bf af       	std	Y+63, r27	; 0x3f
    2614:	29 97       	sbiw	r28, 0x09	; 9

00002616 <.LM10>:
    2616:	29 96       	adiw	r28, 0x09	; 9
    2618:	6c ad       	ldd	r22, Y+60	; 0x3c
    261a:	7d ad       	ldd	r23, Y+61	; 0x3d
    261c:	8e ad       	ldd	r24, Y+62	; 0x3e
    261e:	9f ad       	ldd	r25, Y+63	; 0x3f
    2620:	29 97       	sbiw	r28, 0x09	; 9
    2622:	0e 94 b4 2f 	call	0x5f68	; 0x5f68 <__fixunssfsi>
    2626:	65 96       	adiw	r28, 0x15	; 21
    2628:	6c af       	std	Y+60, r22	; 0x3c
    262a:	7d af       	std	Y+61, r23	; 0x3d
    262c:	8e af       	std	Y+62, r24	; 0x3e
    262e:	9f af       	std	Y+63, r25	; 0x3f
    2630:	65 97       	sbiw	r28, 0x15	; 21
    2632:	63 96       	adiw	r28, 0x13	; 19
    2634:	ae ad       	ldd	r26, Y+62	; 0x3e
    2636:	bf ad       	ldd	r27, Y+63	; 0x3f
    2638:	63 97       	sbiw	r28, 0x13	; 19
    263a:	bc ab       	std	Y+52, r27	; 0x34
    263c:	ab ab       	std	Y+51, r26	; 0x33

0000263e <.LM11>:
    263e:	10 c0       	rjmp	.+32     	; 0x2660 <.L7>

00002640 <.L8>:
    2640:	88 ec       	ldi	r24, 0xC8	; 200
    2642:	90 e0       	ldi	r25, 0x00	; 0
    2644:	9e ab       	std	Y+54, r25	; 0x36
    2646:	8d ab       	std	Y+53, r24	; 0x35

00002648 <.LM12>:
    2648:	8d a9       	ldd	r24, Y+53	; 0x35
    264a:	9e a9       	ldd	r25, Y+54	; 0x36

0000264c <.L1^B1>:
    264c:	01 97       	sbiw	r24, 0x01	; 1
    264e:	f1 f7       	brne	.-4      	; 0x264c <.L1^B1>
    2650:	9e ab       	std	Y+54, r25	; 0x36
    2652:	8d ab       	std	Y+53, r24	; 0x35

00002654 <.LM13>:
	...

00002656 <.LM14>:
    2656:	8b a9       	ldd	r24, Y+51	; 0x33
    2658:	9c a9       	ldd	r25, Y+52	; 0x34
    265a:	01 97       	sbiw	r24, 0x01	; 1
    265c:	9c ab       	std	Y+52, r25	; 0x34
    265e:	8b ab       	std	Y+51, r24	; 0x33

00002660 <.L7>:
    2660:	8b a9       	ldd	r24, Y+51	; 0x33
    2662:	9c a9       	ldd	r25, Y+52	; 0x34
    2664:	00 97       	sbiw	r24, 0x00	; 0
    2666:	61 f7       	brne	.-40     	; 0x2640 <.L8>

00002668 <.LM16>:
    2668:	1d c0       	rjmp	.+58     	; 0x26a4 <.L9>

0000266a <.L43>:
    266a:	6f a5       	ldd	r22, Y+47	; 0x2f
    266c:	78 a9       	ldd	r23, Y+48	; 0x30
    266e:	89 a9       	ldd	r24, Y+49	; 0x31
    2670:	9a a9       	ldd	r25, Y+50	; 0x32
    2672:	0e 94 b4 2f 	call	0x5f68	; 0x5f68 <__fixunssfsi>
    2676:	69 96       	adiw	r28, 0x19	; 25
    2678:	6c af       	std	Y+60, r22	; 0x3c
    267a:	7d af       	std	Y+61, r23	; 0x3d
    267c:	8e af       	std	Y+62, r24	; 0x3e
    267e:	9f af       	std	Y+63, r25	; 0x3f
    2680:	69 97       	sbiw	r28, 0x19	; 25
    2682:	67 96       	adiw	r28, 0x17	; 23
    2684:	8e ad       	ldd	r24, Y+62	; 0x3e
    2686:	9f ad       	ldd	r25, Y+63	; 0x3f
    2688:	67 97       	sbiw	r28, 0x17	; 23
    268a:	9c ab       	std	Y+52, r25	; 0x34
    268c:	8b ab       	std	Y+51, r24	; 0x33

0000268e <.L4>:
    268e:	8b a9       	ldd	r24, Y+51	; 0x33
    2690:	9c a9       	ldd	r25, Y+52	; 0x34
    2692:	98 af       	std	Y+56, r25	; 0x38
    2694:	8f ab       	std	Y+55, r24	; 0x37

00002696 <.LM18>:
    2696:	8f a9       	ldd	r24, Y+55	; 0x37
    2698:	98 ad       	ldd	r25, Y+56	; 0x38

0000269a <.L1^B2>:
    269a:	01 97       	sbiw	r24, 0x01	; 1
    269c:	f1 f7       	brne	.-4      	; 0x269a <.L1^B2>
    269e:	98 af       	std	Y+56, r25	; 0x38
    26a0:	8f ab       	std	Y+55, r24	; 0x37

000026a2 <.LM19>:
	...

000026a4 <.L9>:
    26a4:	80 e2       	ldi	r24, 0x20	; 32
    26a6:	0e 94 66 15 	call	0x2acc	; 0x2acc <LCD_WriteCommand>

000026aa <.LM21>:
    26aa:	80 e2       	ldi	r24, 0x20	; 32
    26ac:	0e 94 66 15 	call	0x2acc	; 0x2acc <LCD_WriteCommand>

000026b0 <.LM22>:
    26b0:	80 e8       	ldi	r24, 0x80	; 128
    26b2:	0e 94 66 15 	call	0x2acc	; 0x2acc <LCD_WriteCommand>

000026b6 <.LM23>:
    26b6:	81 e0       	ldi	r24, 0x01	; 1
    26b8:	80 93 3c 01 	sts	0x013C, r24	; 0x80013c <init_flag>
    26bc:	80 e0       	ldi	r24, 0x00	; 0
    26be:	90 e0       	ldi	r25, 0x00	; 0
    26c0:	a0 e8       	ldi	r26, 0x80	; 128
    26c2:	bf e3       	ldi	r27, 0x3F	; 63
    26c4:	8d 8f       	std	Y+29, r24	; 0x1d
    26c6:	9e 8f       	std	Y+30, r25	; 0x1e
    26c8:	af 8f       	std	Y+31, r26	; 0x1f
    26ca:	b8 a3       	std	Y+32, r27	; 0x20

000026cc <.LM24>:
    26cc:	20 e0       	ldi	r18, 0x00	; 0
    26ce:	30 e0       	ldi	r19, 0x00	; 0
    26d0:	4a ef       	ldi	r20, 0xFA	; 250
    26d2:	54 e4       	ldi	r21, 0x44	; 68
    26d4:	6d 8d       	ldd	r22, Y+29	; 0x1d
    26d6:	7e 8d       	ldd	r23, Y+30	; 0x1e
    26d8:	8f 8d       	ldd	r24, Y+31	; 0x1f
    26da:	98 a1       	ldd	r25, Y+32	; 0x20
    26dc:	0e 94 35 30 	call	0x606a	; 0x606a <__mulsf3>
    26e0:	6d 96       	adiw	r28, 0x1d	; 29
    26e2:	6c af       	std	Y+60, r22	; 0x3c
    26e4:	7d af       	std	Y+61, r23	; 0x3d
    26e6:	8e af       	std	Y+62, r24	; 0x3e
    26e8:	9f af       	std	Y+63, r25	; 0x3f
    26ea:	6d 97       	sbiw	r28, 0x1d	; 29
    26ec:	6d 96       	adiw	r28, 0x1d	; 29
    26ee:	8c ad       	ldd	r24, Y+60	; 0x3c
    26f0:	9d ad       	ldd	r25, Y+61	; 0x3d
    26f2:	ae ad       	ldd	r26, Y+62	; 0x3e
    26f4:	bf ad       	ldd	r27, Y+63	; 0x3f
    26f6:	6d 97       	sbiw	r28, 0x1d	; 29
    26f8:	89 a3       	std	Y+33, r24	; 0x21
    26fa:	9a a3       	std	Y+34, r25	; 0x22
    26fc:	ab a3       	std	Y+35, r26	; 0x23
    26fe:	bc a3       	std	Y+36, r27	; 0x24

00002700 <.LM25>:
    2700:	20 e0       	ldi	r18, 0x00	; 0
    2702:	30 e0       	ldi	r19, 0x00	; 0
    2704:	40 e8       	ldi	r20, 0x80	; 128
    2706:	5f e3       	ldi	r21, 0x3F	; 63
    2708:	69 a1       	ldd	r22, Y+33	; 0x21
    270a:	7a a1       	ldd	r23, Y+34	; 0x22
    270c:	8b a1       	ldd	r24, Y+35	; 0x23
    270e:	9c a1       	ldd	r25, Y+36	; 0x24
    2710:	0e 94 af 2f 	call	0x5f5e	; 0x5f5e <__cmpsf2>
    2714:	88 23       	and	r24, r24
    2716:	2c f4       	brge	.+10     	; 0x2722 <.L44>

00002718 <.LM26>:
    2718:	81 e0       	ldi	r24, 0x01	; 1
    271a:	90 e0       	ldi	r25, 0x00	; 0
    271c:	9e a3       	std	Y+38, r25	; 0x26
    271e:	8d a3       	std	Y+37, r24	; 0x25
    2720:	66 c0       	rjmp	.+204    	; 0x27ee <.L12>

00002722 <.L44>:
    2722:	20 e0       	ldi	r18, 0x00	; 0
    2724:	3f ef       	ldi	r19, 0xFF	; 255
    2726:	4f e7       	ldi	r20, 0x7F	; 127
    2728:	57 e4       	ldi	r21, 0x47	; 71
    272a:	69 a1       	ldd	r22, Y+33	; 0x21
    272c:	7a a1       	ldd	r23, Y+34	; 0x22
    272e:	8b a1       	ldd	r24, Y+35	; 0x23
    2730:	9c a1       	ldd	r25, Y+36	; 0x24
    2732:	0e 94 30 30 	call	0x6060	; 0x6060 <__gesf2>
    2736:	88 23       	and	r24, r24
    2738:	09 f0       	breq	.+2      	; 0x273c <L0^A>

0000273a <L0^A>:
    273a:	0c f4       	brge	.+2      	; 0x273e <.LM28>

0000273c <L0^A>:
    273c:	46 c0       	rjmp	.+140    	; 0x27ca <.L45>

0000273e <.LM28>:
    273e:	20 e0       	ldi	r18, 0x00	; 0
    2740:	30 e0       	ldi	r19, 0x00	; 0
    2742:	40 e2       	ldi	r20, 0x20	; 32
    2744:	51 e4       	ldi	r21, 0x41	; 65
    2746:	6d 8d       	ldd	r22, Y+29	; 0x1d
    2748:	7e 8d       	ldd	r23, Y+30	; 0x1e
    274a:	8f 8d       	ldd	r24, Y+31	; 0x1f
    274c:	98 a1       	ldd	r25, Y+32	; 0x20
    274e:	0e 94 35 30 	call	0x606a	; 0x606a <__mulsf3>
    2752:	a1 96       	adiw	r28, 0x21	; 33
    2754:	6c af       	std	Y+60, r22	; 0x3c
    2756:	7d af       	std	Y+61, r23	; 0x3d
    2758:	8e af       	std	Y+62, r24	; 0x3e
    275a:	9f af       	std	Y+63, r25	; 0x3f
    275c:	a1 97       	sbiw	r28, 0x21	; 33
    275e:	a1 96       	adiw	r28, 0x21	; 33
    2760:	8c ad       	ldd	r24, Y+60	; 0x3c
    2762:	9d ad       	ldd	r25, Y+61	; 0x3d
    2764:	ae ad       	ldd	r26, Y+62	; 0x3e
    2766:	bf ad       	ldd	r27, Y+63	; 0x3f
    2768:	a1 97       	sbiw	r28, 0x21	; 33
    276a:	25 96       	adiw	r28, 0x05	; 5
    276c:	8c af       	std	Y+60, r24	; 0x3c
    276e:	9d af       	std	Y+61, r25	; 0x3d
    2770:	ae af       	std	Y+62, r26	; 0x3e
    2772:	bf af       	std	Y+63, r27	; 0x3f
    2774:	25 97       	sbiw	r28, 0x05	; 5

00002776 <.LM29>:
    2776:	25 96       	adiw	r28, 0x05	; 5
    2778:	6c ad       	ldd	r22, Y+60	; 0x3c
    277a:	7d ad       	ldd	r23, Y+61	; 0x3d
    277c:	8e ad       	ldd	r24, Y+62	; 0x3e
    277e:	9f ad       	ldd	r25, Y+63	; 0x3f
    2780:	25 97       	sbiw	r28, 0x05	; 5
    2782:	0e 94 b4 2f 	call	0x5f68	; 0x5f68 <__fixunssfsi>
    2786:	a5 96       	adiw	r28, 0x25	; 37
    2788:	6c af       	std	Y+60, r22	; 0x3c
    278a:	7d af       	std	Y+61, r23	; 0x3d
    278c:	8e af       	std	Y+62, r24	; 0x3e
    278e:	9f af       	std	Y+63, r25	; 0x3f
    2790:	a5 97       	sbiw	r28, 0x25	; 37
    2792:	a3 96       	adiw	r28, 0x23	; 35
    2794:	ae ad       	ldd	r26, Y+62	; 0x3e
    2796:	bf ad       	ldd	r27, Y+63	; 0x3f
    2798:	a3 97       	sbiw	r28, 0x23	; 35
    279a:	be a3       	std	Y+38, r27	; 0x26
    279c:	ad a3       	std	Y+37, r26	; 0x25

0000279e <.LM30>:
    279e:	10 c0       	rjmp	.+32     	; 0x27c0 <.L15>

000027a0 <.L16>:
    27a0:	88 ec       	ldi	r24, 0xC8	; 200
    27a2:	90 e0       	ldi	r25, 0x00	; 0
    27a4:	98 a7       	std	Y+40, r25	; 0x28
    27a6:	8f a3       	std	Y+39, r24	; 0x27

000027a8 <.LM31>:
    27a8:	8f a1       	ldd	r24, Y+39	; 0x27
    27aa:	98 a5       	ldd	r25, Y+40	; 0x28

000027ac <.L1^B3>:
    27ac:	01 97       	sbiw	r24, 0x01	; 1
    27ae:	f1 f7       	brne	.-4      	; 0x27ac <.L1^B3>
    27b0:	98 a7       	std	Y+40, r25	; 0x28
    27b2:	8f a3       	std	Y+39, r24	; 0x27

000027b4 <.LM32>:
	...

000027b6 <.LM33>:
    27b6:	8d a1       	ldd	r24, Y+37	; 0x25
    27b8:	9e a1       	ldd	r25, Y+38	; 0x26
    27ba:	01 97       	sbiw	r24, 0x01	; 1
    27bc:	9e a3       	std	Y+38, r25	; 0x26
    27be:	8d a3       	std	Y+37, r24	; 0x25

000027c0 <.L15>:
    27c0:	8d a1       	ldd	r24, Y+37	; 0x25
    27c2:	9e a1       	ldd	r25, Y+38	; 0x26
    27c4:	00 97       	sbiw	r24, 0x00	; 0
    27c6:	61 f7       	brne	.-40     	; 0x27a0 <.L16>

000027c8 <.LM35>:
    27c8:	1d c0       	rjmp	.+58     	; 0x2804 <.L17>

000027ca <.L45>:
    27ca:	69 a1       	ldd	r22, Y+33	; 0x21
    27cc:	7a a1       	ldd	r23, Y+34	; 0x22
    27ce:	8b a1       	ldd	r24, Y+35	; 0x23
    27d0:	9c a1       	ldd	r25, Y+36	; 0x24
    27d2:	0e 94 b4 2f 	call	0x5f68	; 0x5f68 <__fixunssfsi>
    27d6:	a9 96       	adiw	r28, 0x29	; 41
    27d8:	6c af       	std	Y+60, r22	; 0x3c
    27da:	7d af       	std	Y+61, r23	; 0x3d
    27dc:	8e af       	std	Y+62, r24	; 0x3e
    27de:	9f af       	std	Y+63, r25	; 0x3f
    27e0:	a9 97       	sbiw	r28, 0x29	; 41
    27e2:	a7 96       	adiw	r28, 0x27	; 39
    27e4:	8e ad       	ldd	r24, Y+62	; 0x3e
    27e6:	9f ad       	ldd	r25, Y+63	; 0x3f
    27e8:	a7 97       	sbiw	r28, 0x27	; 39
    27ea:	9e a3       	std	Y+38, r25	; 0x26
    27ec:	8d a3       	std	Y+37, r24	; 0x25

000027ee <.L12>:
    27ee:	8d a1       	ldd	r24, Y+37	; 0x25
    27f0:	9e a1       	ldd	r25, Y+38	; 0x26
    27f2:	9a a7       	std	Y+42, r25	; 0x2a
    27f4:	89 a7       	std	Y+41, r24	; 0x29

000027f6 <.LM37>:
    27f6:	89 a5       	ldd	r24, Y+41	; 0x29
    27f8:	9a a5       	ldd	r25, Y+42	; 0x2a

000027fa <.L1^B4>:
    27fa:	01 97       	sbiw	r24, 0x01	; 1
    27fc:	f1 f7       	brne	.-4      	; 0x27fa <.L1^B4>
    27fe:	9a a7       	std	Y+42, r25	; 0x2a
    2800:	89 a7       	std	Y+41, r24	; 0x29

00002802 <.LM38>:
	...

00002804 <.L17>:
    2804:	8f e0       	ldi	r24, 0x0F	; 15
    2806:	0e 94 66 15 	call	0x2acc	; 0x2acc <LCD_WriteCommand>
    280a:	80 e0       	ldi	r24, 0x00	; 0
    280c:	90 e0       	ldi	r25, 0x00	; 0
    280e:	a0 e8       	ldi	r26, 0x80	; 128
    2810:	bf e3       	ldi	r27, 0x3F	; 63
    2812:	8f 87       	std	Y+15, r24	; 0x0f
    2814:	98 8b       	std	Y+16, r25	; 0x10
    2816:	a9 8b       	std	Y+17, r26	; 0x11
    2818:	ba 8b       	std	Y+18, r27	; 0x12

0000281a <.LM40>:
    281a:	20 e0       	ldi	r18, 0x00	; 0
    281c:	30 e0       	ldi	r19, 0x00	; 0
    281e:	4a ef       	ldi	r20, 0xFA	; 250
    2820:	54 e4       	ldi	r21, 0x44	; 68
    2822:	6f 85       	ldd	r22, Y+15	; 0x0f
    2824:	78 89       	ldd	r23, Y+16	; 0x10
    2826:	89 89       	ldd	r24, Y+17	; 0x11
    2828:	9a 89       	ldd	r25, Y+18	; 0x12
    282a:	0e 94 35 30 	call	0x606a	; 0x606a <__mulsf3>
    282e:	ad 96       	adiw	r28, 0x2d	; 45
    2830:	6c af       	std	Y+60, r22	; 0x3c
    2832:	7d af       	std	Y+61, r23	; 0x3d
    2834:	8e af       	std	Y+62, r24	; 0x3e
    2836:	9f af       	std	Y+63, r25	; 0x3f
    2838:	ad 97       	sbiw	r28, 0x2d	; 45
    283a:	ad 96       	adiw	r28, 0x2d	; 45
    283c:	8c ad       	ldd	r24, Y+60	; 0x3c
    283e:	9d ad       	ldd	r25, Y+61	; 0x3d
    2840:	ae ad       	ldd	r26, Y+62	; 0x3e
    2842:	bf ad       	ldd	r27, Y+63	; 0x3f
    2844:	ad 97       	sbiw	r28, 0x2d	; 45
    2846:	8b 8b       	std	Y+19, r24	; 0x13
    2848:	9c 8b       	std	Y+20, r25	; 0x14
    284a:	ad 8b       	std	Y+21, r26	; 0x15
    284c:	be 8b       	std	Y+22, r27	; 0x16

0000284e <.LM41>:
    284e:	20 e0       	ldi	r18, 0x00	; 0
    2850:	30 e0       	ldi	r19, 0x00	; 0
    2852:	40 e8       	ldi	r20, 0x80	; 128
    2854:	5f e3       	ldi	r21, 0x3F	; 63
    2856:	6b 89       	ldd	r22, Y+19	; 0x13
    2858:	7c 89       	ldd	r23, Y+20	; 0x14
    285a:	8d 89       	ldd	r24, Y+21	; 0x15
    285c:	9e 89       	ldd	r25, Y+22	; 0x16
    285e:	0e 94 af 2f 	call	0x5f5e	; 0x5f5e <__cmpsf2>
    2862:	88 23       	and	r24, r24
    2864:	2c f4       	brge	.+10     	; 0x2870 <.L46>

00002866 <.LM42>:
    2866:	81 e0       	ldi	r24, 0x01	; 1
    2868:	90 e0       	ldi	r25, 0x00	; 0
    286a:	98 8f       	std	Y+24, r25	; 0x18
    286c:	8f 8b       	std	Y+23, r24	; 0x17
    286e:	66 c0       	rjmp	.+204    	; 0x293c <.L20>

00002870 <.L46>:
    2870:	20 e0       	ldi	r18, 0x00	; 0
    2872:	3f ef       	ldi	r19, 0xFF	; 255
    2874:	4f e7       	ldi	r20, 0x7F	; 127
    2876:	57 e4       	ldi	r21, 0x47	; 71
    2878:	6b 89       	ldd	r22, Y+19	; 0x13
    287a:	7c 89       	ldd	r23, Y+20	; 0x14
    287c:	8d 89       	ldd	r24, Y+21	; 0x15
    287e:	9e 89       	ldd	r25, Y+22	; 0x16
    2880:	0e 94 30 30 	call	0x6060	; 0x6060 <__gesf2>
    2884:	88 23       	and	r24, r24
    2886:	09 f0       	breq	.+2      	; 0x288a <L0^A>

00002888 <L0^A>:
    2888:	0c f4       	brge	.+2      	; 0x288c <.LM44>

0000288a <L0^A>:
    288a:	46 c0       	rjmp	.+140    	; 0x2918 <.L47>

0000288c <.LM44>:
    288c:	20 e0       	ldi	r18, 0x00	; 0
    288e:	30 e0       	ldi	r19, 0x00	; 0
    2890:	40 e2       	ldi	r20, 0x20	; 32
    2892:	51 e4       	ldi	r21, 0x41	; 65
    2894:	6f 85       	ldd	r22, Y+15	; 0x0f
    2896:	78 89       	ldd	r23, Y+16	; 0x10
    2898:	89 89       	ldd	r24, Y+17	; 0x11
    289a:	9a 89       	ldd	r25, Y+18	; 0x12
    289c:	0e 94 35 30 	call	0x606a	; 0x606a <__mulsf3>
    28a0:	e1 96       	adiw	r28, 0x31	; 49
    28a2:	6c af       	std	Y+60, r22	; 0x3c
    28a4:	7d af       	std	Y+61, r23	; 0x3d
    28a6:	8e af       	std	Y+62, r24	; 0x3e
    28a8:	9f af       	std	Y+63, r25	; 0x3f
    28aa:	e1 97       	sbiw	r28, 0x31	; 49
    28ac:	e1 96       	adiw	r28, 0x31	; 49
    28ae:	8c ad       	ldd	r24, Y+60	; 0x3c
    28b0:	9d ad       	ldd	r25, Y+61	; 0x3d
    28b2:	ae ad       	ldd	r26, Y+62	; 0x3e
    28b4:	bf ad       	ldd	r27, Y+63	; 0x3f
    28b6:	e1 97       	sbiw	r28, 0x31	; 49
    28b8:	21 96       	adiw	r28, 0x01	; 1
    28ba:	8c af       	std	Y+60, r24	; 0x3c
    28bc:	9d af       	std	Y+61, r25	; 0x3d
    28be:	ae af       	std	Y+62, r26	; 0x3e
    28c0:	bf af       	std	Y+63, r27	; 0x3f
    28c2:	21 97       	sbiw	r28, 0x01	; 1

000028c4 <.LM45>:
    28c4:	21 96       	adiw	r28, 0x01	; 1
    28c6:	6c ad       	ldd	r22, Y+60	; 0x3c
    28c8:	7d ad       	ldd	r23, Y+61	; 0x3d
    28ca:	8e ad       	ldd	r24, Y+62	; 0x3e
    28cc:	9f ad       	ldd	r25, Y+63	; 0x3f
    28ce:	21 97       	sbiw	r28, 0x01	; 1
    28d0:	0e 94 b4 2f 	call	0x5f68	; 0x5f68 <__fixunssfsi>
    28d4:	e5 96       	adiw	r28, 0x35	; 53
    28d6:	6c af       	std	Y+60, r22	; 0x3c
    28d8:	7d af       	std	Y+61, r23	; 0x3d
    28da:	8e af       	std	Y+62, r24	; 0x3e
    28dc:	9f af       	std	Y+63, r25	; 0x3f
    28de:	e5 97       	sbiw	r28, 0x35	; 53
    28e0:	e3 96       	adiw	r28, 0x33	; 51
    28e2:	ae ad       	ldd	r26, Y+62	; 0x3e
    28e4:	bf ad       	ldd	r27, Y+63	; 0x3f
    28e6:	e3 97       	sbiw	r28, 0x33	; 51
    28e8:	b8 8f       	std	Y+24, r27	; 0x18
    28ea:	af 8b       	std	Y+23, r26	; 0x17

000028ec <.LM46>:
    28ec:	10 c0       	rjmp	.+32     	; 0x290e <.L23>

000028ee <.L24>:
    28ee:	88 ec       	ldi	r24, 0xC8	; 200
    28f0:	90 e0       	ldi	r25, 0x00	; 0
    28f2:	9a 8f       	std	Y+26, r25	; 0x1a
    28f4:	89 8f       	std	Y+25, r24	; 0x19

000028f6 <.LM47>:
    28f6:	89 8d       	ldd	r24, Y+25	; 0x19
    28f8:	9a 8d       	ldd	r25, Y+26	; 0x1a

000028fa <.L1^B5>:
    28fa:	01 97       	sbiw	r24, 0x01	; 1
    28fc:	f1 f7       	brne	.-4      	; 0x28fa <.L1^B5>
    28fe:	9a 8f       	std	Y+26, r25	; 0x1a
    2900:	89 8f       	std	Y+25, r24	; 0x19

00002902 <.LM48>:
	...

00002904 <.LM49>:
    2904:	8f 89       	ldd	r24, Y+23	; 0x17
    2906:	98 8d       	ldd	r25, Y+24	; 0x18
    2908:	01 97       	sbiw	r24, 0x01	; 1
    290a:	98 8f       	std	Y+24, r25	; 0x18
    290c:	8f 8b       	std	Y+23, r24	; 0x17

0000290e <.L23>:
    290e:	8f 89       	ldd	r24, Y+23	; 0x17
    2910:	98 8d       	ldd	r25, Y+24	; 0x18
    2912:	00 97       	sbiw	r24, 0x00	; 0
    2914:	61 f7       	brne	.-40     	; 0x28ee <.L24>

00002916 <.LM51>:
    2916:	1d c0       	rjmp	.+58     	; 0x2952 <.L25>

00002918 <.L47>:
    2918:	6b 89       	ldd	r22, Y+19	; 0x13
    291a:	7c 89       	ldd	r23, Y+20	; 0x14
    291c:	8d 89       	ldd	r24, Y+21	; 0x15
    291e:	9e 89       	ldd	r25, Y+22	; 0x16
    2920:	0e 94 b4 2f 	call	0x5f68	; 0x5f68 <__fixunssfsi>
    2924:	e9 96       	adiw	r28, 0x39	; 57
    2926:	6c af       	std	Y+60, r22	; 0x3c
    2928:	7d af       	std	Y+61, r23	; 0x3d
    292a:	8e af       	std	Y+62, r24	; 0x3e
    292c:	9f af       	std	Y+63, r25	; 0x3f
    292e:	e9 97       	sbiw	r28, 0x39	; 57
    2930:	e7 96       	adiw	r28, 0x37	; 55
    2932:	8e ad       	ldd	r24, Y+62	; 0x3e
    2934:	9f ad       	ldd	r25, Y+63	; 0x3f
    2936:	e7 97       	sbiw	r28, 0x37	; 55
    2938:	98 8f       	std	Y+24, r25	; 0x18
    293a:	8f 8b       	std	Y+23, r24	; 0x17

0000293c <.L20>:
    293c:	8f 89       	ldd	r24, Y+23	; 0x17
    293e:	98 8d       	ldd	r25, Y+24	; 0x18
    2940:	9c 8f       	std	Y+28, r25	; 0x1c
    2942:	8b 8f       	std	Y+27, r24	; 0x1b

00002944 <.LM53>:
    2944:	8b 8d       	ldd	r24, Y+27	; 0x1b
    2946:	9c 8d       	ldd	r25, Y+28	; 0x1c

00002948 <.L1^B6>:
    2948:	01 97       	sbiw	r24, 0x01	; 1
    294a:	f1 f7       	brne	.-4      	; 0x2948 <.L1^B6>
    294c:	9c 8f       	std	Y+28, r25	; 0x1c
    294e:	8b 8f       	std	Y+27, r24	; 0x1b

00002950 <.LM54>:
	...

00002952 <.L25>:
    2952:	81 e0       	ldi	r24, 0x01	; 1
    2954:	0e 94 66 15 	call	0x2acc	; 0x2acc <LCD_WriteCommand>
    2958:	80 e0       	ldi	r24, 0x00	; 0
    295a:	90 e0       	ldi	r25, 0x00	; 0
    295c:	a0 e0       	ldi	r26, 0x00	; 0
    295e:	b0 e4       	ldi	r27, 0x40	; 64
    2960:	89 83       	std	Y+1, r24	; 0x01
    2962:	9a 83       	std	Y+2, r25	; 0x02
    2964:	ab 83       	std	Y+3, r26	; 0x03
    2966:	bc 83       	std	Y+4, r27	; 0x04

00002968 <.LM56>:
    2968:	20 e0       	ldi	r18, 0x00	; 0
    296a:	30 e0       	ldi	r19, 0x00	; 0
    296c:	4a ef       	ldi	r20, 0xFA	; 250
    296e:	54 e4       	ldi	r21, 0x44	; 68
    2970:	69 81       	ldd	r22, Y+1	; 0x01
    2972:	7a 81       	ldd	r23, Y+2	; 0x02
    2974:	8b 81       	ldd	r24, Y+3	; 0x03
    2976:	9c 81       	ldd	r25, Y+4	; 0x04
    2978:	0e 94 35 30 	call	0x606a	; 0x606a <__mulsf3>
    297c:	ed 96       	adiw	r28, 0x3d	; 61
    297e:	6c af       	std	Y+60, r22	; 0x3c
    2980:	7d af       	std	Y+61, r23	; 0x3d
    2982:	8e af       	std	Y+62, r24	; 0x3e
    2984:	9f af       	std	Y+63, r25	; 0x3f
    2986:	ed 97       	sbiw	r28, 0x3d	; 61
    2988:	ed 96       	adiw	r28, 0x3d	; 61
    298a:	8c ad       	ldd	r24, Y+60	; 0x3c
    298c:	9d ad       	ldd	r25, Y+61	; 0x3d
    298e:	ae ad       	ldd	r26, Y+62	; 0x3e
    2990:	bf ad       	ldd	r27, Y+63	; 0x3f
    2992:	ed 97       	sbiw	r28, 0x3d	; 61
    2994:	8d 83       	std	Y+5, r24	; 0x05
    2996:	9e 83       	std	Y+6, r25	; 0x06
    2998:	af 83       	std	Y+7, r26	; 0x07
    299a:	b8 87       	std	Y+8, r27	; 0x08

0000299c <.LM57>:
    299c:	20 e0       	ldi	r18, 0x00	; 0
    299e:	30 e0       	ldi	r19, 0x00	; 0
    29a0:	40 e8       	ldi	r20, 0x80	; 128
    29a2:	5f e3       	ldi	r21, 0x3F	; 63
    29a4:	6d 81       	ldd	r22, Y+5	; 0x05
    29a6:	7e 81       	ldd	r23, Y+6	; 0x06
    29a8:	8f 81       	ldd	r24, Y+7	; 0x07
    29aa:	98 85       	ldd	r25, Y+8	; 0x08
    29ac:	0e 94 af 2f 	call	0x5f5e	; 0x5f5e <__cmpsf2>
    29b0:	88 23       	and	r24, r24
    29b2:	2c f4       	brge	.+10     	; 0x29be <.L48>

000029b4 <.LM58>:
    29b4:	81 e0       	ldi	r24, 0x01	; 1
    29b6:	90 e0       	ldi	r25, 0x00	; 0
    29b8:	9a 87       	std	Y+10, r25	; 0x0a
    29ba:	89 87       	std	Y+9, r24	; 0x09
    29bc:	6e c0       	rjmp	.+220    	; 0x2a9a <.L28>

000029be <.L48>:
    29be:	20 e0       	ldi	r18, 0x00	; 0
    29c0:	3f ef       	ldi	r19, 0xFF	; 255
    29c2:	4f e7       	ldi	r20, 0x7F	; 127
    29c4:	57 e4       	ldi	r21, 0x47	; 71
    29c6:	6d 81       	ldd	r22, Y+5	; 0x05
    29c8:	7e 81       	ldd	r23, Y+6	; 0x06
    29ca:	8f 81       	ldd	r24, Y+7	; 0x07
    29cc:	98 85       	ldd	r25, Y+8	; 0x08
    29ce:	0e 94 30 30 	call	0x6060	; 0x6060 <__gesf2>
    29d2:	88 23       	and	r24, r24
    29d4:	09 f0       	breq	.+2      	; 0x29d8 <L0^A>

000029d6 <L0^A>:
    29d6:	0c f4       	brge	.+2      	; 0x29da <.LM60>

000029d8 <L0^A>:
    29d8:	4a c0       	rjmp	.+148    	; 0x2a6e <.L49>

000029da <.LM60>:
    29da:	20 e0       	ldi	r18, 0x00	; 0
    29dc:	30 e0       	ldi	r19, 0x00	; 0
    29de:	40 e2       	ldi	r20, 0x20	; 32
    29e0:	51 e4       	ldi	r21, 0x41	; 65
    29e2:	69 81       	ldd	r22, Y+1	; 0x01
    29e4:	7a 81       	ldd	r23, Y+2	; 0x02
    29e6:	8b 81       	ldd	r24, Y+3	; 0x03
    29e8:	9c 81       	ldd	r25, Y+4	; 0x04
    29ea:	0e 94 35 30 	call	0x606a	; 0x606a <__mulsf3>
    29ee:	c3 58       	subi	r28, 0x83	; 131
    29f0:	df 4f       	sbci	r29, 0xFF	; 255
    29f2:	68 83       	st	Y, r22
    29f4:	79 83       	std	Y+1, r23	; 0x01
    29f6:	8a 83       	std	Y+2, r24	; 0x02
    29f8:	9b 83       	std	Y+3, r25	; 0x03
    29fa:	cd 57       	subi	r28, 0x7D	; 125
    29fc:	d0 40       	sbci	r29, 0x00	; 0
    29fe:	c3 58       	subi	r28, 0x83	; 131
    2a00:	df 4f       	sbci	r29, 0xFF	; 255
    2a02:	88 81       	ld	r24, Y
    2a04:	99 81       	ldd	r25, Y+1	; 0x01
    2a06:	aa 81       	ldd	r26, Y+2	; 0x02
    2a08:	bb 81       	ldd	r27, Y+3	; 0x03
    2a0a:	cd 57       	subi	r28, 0x7D	; 125
    2a0c:	d0 40       	sbci	r29, 0x00	; 0
    2a0e:	89 af       	std	Y+57, r24	; 0x39
    2a10:	9a af       	std	Y+58, r25	; 0x3a
    2a12:	ab af       	std	Y+59, r26	; 0x3b
    2a14:	bc af       	std	Y+60, r27	; 0x3c

00002a16 <.LM61>:
    2a16:	69 ad       	ldd	r22, Y+57	; 0x39
    2a18:	7a ad       	ldd	r23, Y+58	; 0x3a
    2a1a:	8b ad       	ldd	r24, Y+59	; 0x3b
    2a1c:	9c ad       	ldd	r25, Y+60	; 0x3c
    2a1e:	0e 94 b4 2f 	call	0x5f68	; 0x5f68 <__fixunssfsi>
    2a22:	cf 57       	subi	r28, 0x7F	; 127
    2a24:	df 4f       	sbci	r29, 0xFF	; 255
    2a26:	68 83       	st	Y, r22
    2a28:	79 83       	std	Y+1, r23	; 0x01
    2a2a:	8a 83       	std	Y+2, r24	; 0x02
    2a2c:	9b 83       	std	Y+3, r25	; 0x03
    2a2e:	c1 58       	subi	r28, 0x81	; 129
    2a30:	d0 40       	sbci	r29, 0x00	; 0
    2a32:	cf 57       	subi	r28, 0x7F	; 127
    2a34:	df 4f       	sbci	r29, 0xFF	; 255
    2a36:	a8 81       	ld	r26, Y
    2a38:	b9 81       	ldd	r27, Y+1	; 0x01
    2a3a:	c1 58       	subi	r28, 0x81	; 129
    2a3c:	d0 40       	sbci	r29, 0x00	; 0
    2a3e:	ba 87       	std	Y+10, r27	; 0x0a
    2a40:	a9 87       	std	Y+9, r26	; 0x09

00002a42 <.LM62>:
    2a42:	10 c0       	rjmp	.+32     	; 0x2a64 <.L31>

00002a44 <.L32>:
    2a44:	88 ec       	ldi	r24, 0xC8	; 200
    2a46:	90 e0       	ldi	r25, 0x00	; 0
    2a48:	9c 87       	std	Y+12, r25	; 0x0c
    2a4a:	8b 87       	std	Y+11, r24	; 0x0b

00002a4c <.LM63>:
    2a4c:	8b 85       	ldd	r24, Y+11	; 0x0b
    2a4e:	9c 85       	ldd	r25, Y+12	; 0x0c

00002a50 <.L1^B7>:
    2a50:	01 97       	sbiw	r24, 0x01	; 1
    2a52:	f1 f7       	brne	.-4      	; 0x2a50 <.L1^B7>
    2a54:	9c 87       	std	Y+12, r25	; 0x0c
    2a56:	8b 87       	std	Y+11, r24	; 0x0b

00002a58 <.LM64>:
	...

00002a5a <.LM65>:
    2a5a:	89 85       	ldd	r24, Y+9	; 0x09
    2a5c:	9a 85       	ldd	r25, Y+10	; 0x0a
    2a5e:	01 97       	sbiw	r24, 0x01	; 1
    2a60:	9a 87       	std	Y+10, r25	; 0x0a
    2a62:	89 87       	std	Y+9, r24	; 0x09

00002a64 <.L31>:
    2a64:	89 85       	ldd	r24, Y+9	; 0x09
    2a66:	9a 85       	ldd	r25, Y+10	; 0x0a
    2a68:	00 97       	sbiw	r24, 0x00	; 0
    2a6a:	61 f7       	brne	.-40     	; 0x2a44 <.L32>

00002a6c <.LM67>:
    2a6c:	21 c0       	rjmp	.+66     	; 0x2ab0 <.L33>

00002a6e <.L49>:
    2a6e:	6d 81       	ldd	r22, Y+5	; 0x05
    2a70:	7e 81       	ldd	r23, Y+6	; 0x06
    2a72:	8f 81       	ldd	r24, Y+7	; 0x07
    2a74:	98 85       	ldd	r25, Y+8	; 0x08
    2a76:	0e 94 b4 2f 	call	0x5f68	; 0x5f68 <__fixunssfsi>
    2a7a:	cb 57       	subi	r28, 0x7B	; 123
    2a7c:	df 4f       	sbci	r29, 0xFF	; 255
    2a7e:	68 83       	st	Y, r22
    2a80:	79 83       	std	Y+1, r23	; 0x01
    2a82:	8a 83       	std	Y+2, r24	; 0x02
    2a84:	9b 83       	std	Y+3, r25	; 0x03
    2a86:	c5 58       	subi	r28, 0x85	; 133
    2a88:	d0 40       	sbci	r29, 0x00	; 0
    2a8a:	cb 57       	subi	r28, 0x7B	; 123
    2a8c:	df 4f       	sbci	r29, 0xFF	; 255
    2a8e:	88 81       	ld	r24, Y
    2a90:	99 81       	ldd	r25, Y+1	; 0x01
    2a92:	c5 58       	subi	r28, 0x85	; 133
    2a94:	d0 40       	sbci	r29, 0x00	; 0
    2a96:	9a 87       	std	Y+10, r25	; 0x0a
    2a98:	89 87       	std	Y+9, r24	; 0x09

00002a9a <.L28>:
    2a9a:	89 85       	ldd	r24, Y+9	; 0x09
    2a9c:	9a 85       	ldd	r25, Y+10	; 0x0a
    2a9e:	9e 87       	std	Y+14, r25	; 0x0e
    2aa0:	8d 87       	std	Y+13, r24	; 0x0d

00002aa2 <.LM69>:
    2aa2:	8d 85       	ldd	r24, Y+13	; 0x0d
    2aa4:	9e 85       	ldd	r25, Y+14	; 0x0e

00002aa6 <.L1^B8>:
    2aa6:	01 97       	sbiw	r24, 0x01	; 1
    2aa8:	f1 f7       	brne	.-4      	; 0x2aa6 <.L1^B8>
    2aaa:	9e 87       	std	Y+14, r25	; 0x0e
    2aac:	8d 87       	std	Y+13, r24	; 0x0d

00002aae <.LM70>:
	...

00002ab0 <.L33>:
    2ab0:	86 e0       	ldi	r24, 0x06	; 6
    2ab2:	0e 94 66 15 	call	0x2acc	; 0x2acc <LCD_WriteCommand>

00002ab6 <.LM72>:
    2ab6:	00 00       	nop
    2ab8:	c8 57       	subi	r28, 0x78	; 120
    2aba:	df 4f       	sbci	r29, 0xFF	; 255
    2abc:	0f b6       	in	r0, 0x3f	; 63
    2abe:	f8 94       	cli
    2ac0:	de bf       	out	0x3e, r29	; 62
    2ac2:	0f be       	out	0x3f, r0	; 63
    2ac4:	cd bf       	out	0x3d, r28	; 61
    2ac6:	df 91       	pop	r29
    2ac8:	cf 91       	pop	r28
    2aca:	08 95       	ret

00002acc <LCD_WriteCommand>:
    2acc:	cf 93       	push	r28
    2ace:	df 93       	push	r29
    2ad0:	cd b7       	in	r28, 0x3d	; 61
    2ad2:	de b7       	in	r29, 0x3e	; 62
    2ad4:	c9 58       	subi	r28, 0x89	; 137
    2ad6:	d1 09       	sbc	r29, r1
    2ad8:	0f b6       	in	r0, 0x3f	; 63
    2ada:	f8 94       	cli
    2adc:	de bf       	out	0x3e, r29	; 62
    2ade:	0f be       	out	0x3f, r0	; 63
    2ae0:	cd bf       	out	0x3d, r28	; 61
    2ae2:	89 af       	std	Y+57, r24	; 0x39

00002ae4 <.LM74>:
    2ae4:	40 e0       	ldi	r20, 0x00	; 0
    2ae6:	61 e0       	ldi	r22, 0x01	; 1
    2ae8:	81 e0       	ldi	r24, 0x01	; 1
    2aea:	0e 94 09 03 	call	0x612	; 0x612 <DIO_SetPinValue>

00002aee <.LM75>:
    2aee:	40 e0       	ldi	r20, 0x00	; 0
    2af0:	63 e0       	ldi	r22, 0x03	; 3
    2af2:	81 e0       	ldi	r24, 0x01	; 1
    2af4:	0e 94 09 03 	call	0x612	; 0x612 <DIO_SetPinValue>

00002af8 <.LM76>:
    2af8:	41 e0       	ldi	r20, 0x01	; 1
    2afa:	62 e0       	ldi	r22, 0x02	; 2
    2afc:	81 e0       	ldi	r24, 0x01	; 1
    2afe:	0e 94 09 03 	call	0x612	; 0x612 <DIO_SetPinValue>

00002b02 <.LM77>:
    2b02:	89 ad       	ldd	r24, Y+57	; 0x39
    2b04:	82 95       	swap	r24
    2b06:	8f 70       	andi	r24, 0x0F	; 15

00002b08 <.LM78>:
    2b08:	81 70       	andi	r24, 0x01	; 1
    2b0a:	48 2f       	mov	r20, r24
    2b0c:	64 e0       	ldi	r22, 0x04	; 4
    2b0e:	80 e0       	ldi	r24, 0x00	; 0
    2b10:	0e 94 09 03 	call	0x612	; 0x612 <DIO_SetPinValue>

00002b14 <.LM79>:
    2b14:	89 ad       	ldd	r24, Y+57	; 0x39
    2b16:	82 95       	swap	r24
    2b18:	86 95       	lsr	r24
    2b1a:	87 70       	andi	r24, 0x07	; 7

00002b1c <.LM80>:
    2b1c:	81 70       	andi	r24, 0x01	; 1
    2b1e:	48 2f       	mov	r20, r24
    2b20:	65 e0       	ldi	r22, 0x05	; 5
    2b22:	80 e0       	ldi	r24, 0x00	; 0
    2b24:	0e 94 09 03 	call	0x612	; 0x612 <DIO_SetPinValue>

00002b28 <.LM81>:
    2b28:	89 ad       	ldd	r24, Y+57	; 0x39
    2b2a:	82 95       	swap	r24
    2b2c:	86 95       	lsr	r24
    2b2e:	86 95       	lsr	r24
    2b30:	83 70       	andi	r24, 0x03	; 3

00002b32 <.LM82>:
    2b32:	81 70       	andi	r24, 0x01	; 1
    2b34:	48 2f       	mov	r20, r24
    2b36:	66 e0       	ldi	r22, 0x06	; 6
    2b38:	80 e0       	ldi	r24, 0x00	; 0
    2b3a:	0e 94 09 03 	call	0x612	; 0x612 <DIO_SetPinValue>

00002b3e <.LM83>:
    2b3e:	89 ad       	ldd	r24, Y+57	; 0x39
    2b40:	88 1f       	adc	r24, r24
    2b42:	88 27       	eor	r24, r24
    2b44:	88 1f       	adc	r24, r24
    2b46:	48 2f       	mov	r20, r24
    2b48:	67 e0       	ldi	r22, 0x07	; 7
    2b4a:	80 e0       	ldi	r24, 0x00	; 0
    2b4c:	0e 94 09 03 	call	0x612	; 0x612 <DIO_SetPinValue>
    2b50:	80 e0       	ldi	r24, 0x00	; 0
    2b52:	90 e0       	ldi	r25, 0x00	; 0
    2b54:	a0 e8       	ldi	r26, 0x80	; 128
    2b56:	bf e3       	ldi	r27, 0x3F	; 63
    2b58:	89 83       	std	Y+1, r24	; 0x01
    2b5a:	9a 83       	std	Y+2, r25	; 0x02
    2b5c:	ab 83       	std	Y+3, r26	; 0x03
    2b5e:	bc 83       	std	Y+4, r27	; 0x04

00002b60 <.LM84>:
    2b60:	20 e0       	ldi	r18, 0x00	; 0
    2b62:	30 e0       	ldi	r19, 0x00	; 0
    2b64:	4a ef       	ldi	r20, 0xFA	; 250
    2b66:	54 e4       	ldi	r21, 0x44	; 68
    2b68:	69 81       	ldd	r22, Y+1	; 0x01
    2b6a:	7a 81       	ldd	r23, Y+2	; 0x02
    2b6c:	8b 81       	ldd	r24, Y+3	; 0x03
    2b6e:	9c 81       	ldd	r25, Y+4	; 0x04
    2b70:	0e 94 35 30 	call	0x606a	; 0x606a <__mulsf3>
    2b74:	2e 96       	adiw	r28, 0x0e	; 14
    2b76:	6c af       	std	Y+60, r22	; 0x3c
    2b78:	7d af       	std	Y+61, r23	; 0x3d
    2b7a:	8e af       	std	Y+62, r24	; 0x3e
    2b7c:	9f af       	std	Y+63, r25	; 0x3f
    2b7e:	2e 97       	sbiw	r28, 0x0e	; 14
    2b80:	2e 96       	adiw	r28, 0x0e	; 14
    2b82:	8c ad       	ldd	r24, Y+60	; 0x3c
    2b84:	9d ad       	ldd	r25, Y+61	; 0x3d
    2b86:	ae ad       	ldd	r26, Y+62	; 0x3e
    2b88:	bf ad       	ldd	r27, Y+63	; 0x3f
    2b8a:	2e 97       	sbiw	r28, 0x0e	; 14
    2b8c:	8d 83       	std	Y+5, r24	; 0x05
    2b8e:	9e 83       	std	Y+6, r25	; 0x06
    2b90:	af 83       	std	Y+7, r26	; 0x07
    2b92:	b8 87       	std	Y+8, r27	; 0x08

00002b94 <.LM85>:
    2b94:	20 e0       	ldi	r18, 0x00	; 0
    2b96:	30 e0       	ldi	r19, 0x00	; 0
    2b98:	40 e8       	ldi	r20, 0x80	; 128
    2b9a:	5f e3       	ldi	r21, 0x3F	; 63
    2b9c:	6d 81       	ldd	r22, Y+5	; 0x05
    2b9e:	7e 81       	ldd	r23, Y+6	; 0x06
    2ba0:	8f 81       	ldd	r24, Y+7	; 0x07
    2ba2:	98 85       	ldd	r25, Y+8	; 0x08
    2ba4:	0e 94 af 2f 	call	0x5f5e	; 0x5f5e <__cmpsf2>
    2ba8:	88 23       	and	r24, r24
    2baa:	2c f4       	brge	.+10     	; 0x2bb6 <.L92>

00002bac <.LM86>:
    2bac:	81 e0       	ldi	r24, 0x01	; 1
    2bae:	90 e0       	ldi	r25, 0x00	; 0
    2bb0:	9a 87       	std	Y+10, r25	; 0x0a
    2bb2:	89 87       	std	Y+9, r24	; 0x09
    2bb4:	62 c0       	rjmp	.+196    	; 0x2c7a <.L53>

00002bb6 <.L92>:
    2bb6:	20 e0       	ldi	r18, 0x00	; 0
    2bb8:	3f ef       	ldi	r19, 0xFF	; 255
    2bba:	4f e7       	ldi	r20, 0x7F	; 127
    2bbc:	57 e4       	ldi	r21, 0x47	; 71
    2bbe:	6d 81       	ldd	r22, Y+5	; 0x05
    2bc0:	7e 81       	ldd	r23, Y+6	; 0x06
    2bc2:	8f 81       	ldd	r24, Y+7	; 0x07
    2bc4:	98 85       	ldd	r25, Y+8	; 0x08
    2bc6:	0e 94 30 30 	call	0x6060	; 0x6060 <__gesf2>
    2bca:	88 23       	and	r24, r24
    2bcc:	09 f0       	breq	.+2      	; 0x2bd0 <L0^A>

00002bce <L0^A>:
    2bce:	0c f4       	brge	.+2      	; 0x2bd2 <.LM88>

00002bd0 <L0^A>:
    2bd0:	42 c0       	rjmp	.+132    	; 0x2c56 <.L93>

00002bd2 <.LM88>:
    2bd2:	20 e0       	ldi	r18, 0x00	; 0
    2bd4:	30 e0       	ldi	r19, 0x00	; 0
    2bd6:	40 e2       	ldi	r20, 0x20	; 32
    2bd8:	51 e4       	ldi	r21, 0x41	; 65
    2bda:	69 81       	ldd	r22, Y+1	; 0x01
    2bdc:	7a 81       	ldd	r23, Y+2	; 0x02
    2bde:	8b 81       	ldd	r24, Y+3	; 0x03
    2be0:	9c 81       	ldd	r25, Y+4	; 0x04
    2be2:	0e 94 35 30 	call	0x606a	; 0x606a <__mulsf3>
    2be6:	62 96       	adiw	r28, 0x12	; 18
    2be8:	6c af       	std	Y+60, r22	; 0x3c
    2bea:	7d af       	std	Y+61, r23	; 0x3d
    2bec:	8e af       	std	Y+62, r24	; 0x3e
    2bee:	9f af       	std	Y+63, r25	; 0x3f
    2bf0:	62 97       	sbiw	r28, 0x12	; 18
    2bf2:	62 96       	adiw	r28, 0x12	; 18
    2bf4:	8c ad       	ldd	r24, Y+60	; 0x3c
    2bf6:	9d ad       	ldd	r25, Y+61	; 0x3d
    2bf8:	ae ad       	ldd	r26, Y+62	; 0x3e
    2bfa:	bf ad       	ldd	r27, Y+63	; 0x3f
    2bfc:	62 97       	sbiw	r28, 0x12	; 18
    2bfe:	8a af       	std	Y+58, r24	; 0x3a
    2c00:	9b af       	std	Y+59, r25	; 0x3b
    2c02:	ac af       	std	Y+60, r26	; 0x3c
    2c04:	bd af       	std	Y+61, r27	; 0x3d

00002c06 <.LM89>:
    2c06:	6a ad       	ldd	r22, Y+58	; 0x3a
    2c08:	7b ad       	ldd	r23, Y+59	; 0x3b
    2c0a:	8c ad       	ldd	r24, Y+60	; 0x3c
    2c0c:	9d ad       	ldd	r25, Y+61	; 0x3d
    2c0e:	0e 94 b4 2f 	call	0x5f68	; 0x5f68 <__fixunssfsi>
    2c12:	66 96       	adiw	r28, 0x16	; 22
    2c14:	6c af       	std	Y+60, r22	; 0x3c
    2c16:	7d af       	std	Y+61, r23	; 0x3d
    2c18:	8e af       	std	Y+62, r24	; 0x3e
    2c1a:	9f af       	std	Y+63, r25	; 0x3f
    2c1c:	66 97       	sbiw	r28, 0x16	; 22
    2c1e:	64 96       	adiw	r28, 0x14	; 20
    2c20:	ae ad       	ldd	r26, Y+62	; 0x3e
    2c22:	bf ad       	ldd	r27, Y+63	; 0x3f
    2c24:	64 97       	sbiw	r28, 0x14	; 20
    2c26:	ba 87       	std	Y+10, r27	; 0x0a
    2c28:	a9 87       	std	Y+9, r26	; 0x09

00002c2a <.LM90>:
    2c2a:	10 c0       	rjmp	.+32     	; 0x2c4c <.L56>

00002c2c <.L57>:
    2c2c:	88 ec       	ldi	r24, 0xC8	; 200
    2c2e:	90 e0       	ldi	r25, 0x00	; 0
    2c30:	9c 87       	std	Y+12, r25	; 0x0c
    2c32:	8b 87       	std	Y+11, r24	; 0x0b

00002c34 <.LM91>:
    2c34:	8b 85       	ldd	r24, Y+11	; 0x0b
    2c36:	9c 85       	ldd	r25, Y+12	; 0x0c

00002c38 <.L1^B9>:
    2c38:	01 97       	sbiw	r24, 0x01	; 1
    2c3a:	f1 f7       	brne	.-4      	; 0x2c38 <.L1^B9>
    2c3c:	9c 87       	std	Y+12, r25	; 0x0c
    2c3e:	8b 87       	std	Y+11, r24	; 0x0b

00002c40 <.LM92>:
	...

00002c42 <.LM93>:
    2c42:	89 85       	ldd	r24, Y+9	; 0x09
    2c44:	9a 85       	ldd	r25, Y+10	; 0x0a
    2c46:	01 97       	sbiw	r24, 0x01	; 1
    2c48:	9a 87       	std	Y+10, r25	; 0x0a
    2c4a:	89 87       	std	Y+9, r24	; 0x09

00002c4c <.L56>:
    2c4c:	89 85       	ldd	r24, Y+9	; 0x09
    2c4e:	9a 85       	ldd	r25, Y+10	; 0x0a
    2c50:	00 97       	sbiw	r24, 0x00	; 0
    2c52:	61 f7       	brne	.-40     	; 0x2c2c <.L57>

00002c54 <.LM95>:
    2c54:	1d c0       	rjmp	.+58     	; 0x2c90 <.L58>

00002c56 <.L93>:
    2c56:	6d 81       	ldd	r22, Y+5	; 0x05
    2c58:	7e 81       	ldd	r23, Y+6	; 0x06
    2c5a:	8f 81       	ldd	r24, Y+7	; 0x07
    2c5c:	98 85       	ldd	r25, Y+8	; 0x08
    2c5e:	0e 94 b4 2f 	call	0x5f68	; 0x5f68 <__fixunssfsi>
    2c62:	6a 96       	adiw	r28, 0x1a	; 26
    2c64:	6c af       	std	Y+60, r22	; 0x3c
    2c66:	7d af       	std	Y+61, r23	; 0x3d
    2c68:	8e af       	std	Y+62, r24	; 0x3e
    2c6a:	9f af       	std	Y+63, r25	; 0x3f
    2c6c:	6a 97       	sbiw	r28, 0x1a	; 26
    2c6e:	68 96       	adiw	r28, 0x18	; 24
    2c70:	8e ad       	ldd	r24, Y+62	; 0x3e
    2c72:	9f ad       	ldd	r25, Y+63	; 0x3f
    2c74:	68 97       	sbiw	r28, 0x18	; 24
    2c76:	9a 87       	std	Y+10, r25	; 0x0a
    2c78:	89 87       	std	Y+9, r24	; 0x09

00002c7a <.L53>:
    2c7a:	89 85       	ldd	r24, Y+9	; 0x09
    2c7c:	9a 85       	ldd	r25, Y+10	; 0x0a
    2c7e:	9e 87       	std	Y+14, r25	; 0x0e
    2c80:	8d 87       	std	Y+13, r24	; 0x0d

00002c82 <.LM97>:
    2c82:	8d 85       	ldd	r24, Y+13	; 0x0d
    2c84:	9e 85       	ldd	r25, Y+14	; 0x0e

00002c86 <.L1^B10>:
    2c86:	01 97       	sbiw	r24, 0x01	; 1
    2c88:	f1 f7       	brne	.-4      	; 0x2c86 <.L1^B10>
    2c8a:	9e 87       	std	Y+14, r25	; 0x0e
    2c8c:	8d 87       	std	Y+13, r24	; 0x0d

00002c8e <.LM98>:
	...

00002c90 <.L58>:
    2c90:	40 e0       	ldi	r20, 0x00	; 0
    2c92:	62 e0       	ldi	r22, 0x02	; 2
    2c94:	81 e0       	ldi	r24, 0x01	; 1
    2c96:	0e 94 09 03 	call	0x612	; 0x612 <DIO_SetPinValue>

00002c9a <.LM100>:
    2c9a:	80 91 3c 01 	lds	r24, 0x013C	; 0x80013c <init_flag>

00002c9e <.LM101>:
    2c9e:	81 30       	cpi	r24, 0x01	; 1
    2ca0:	09 f0       	breq	.+2      	; 0x2ca4 <L0^A+0x2>

00002ca2 <L0^A>:
    2ca2:	24 c2       	rjmp	.+1096   	; 0x30ec <.L100>
    2ca4:	80 e0       	ldi	r24, 0x00	; 0
    2ca6:	90 e0       	ldi	r25, 0x00	; 0
    2ca8:	a0 e8       	ldi	r26, 0x80	; 128
    2caa:	bf e3       	ldi	r27, 0x3F	; 63
    2cac:	8b a7       	std	Y+43, r24	; 0x2b
    2cae:	9c a7       	std	Y+44, r25	; 0x2c
    2cb0:	ad a7       	std	Y+45, r26	; 0x2d
    2cb2:	be a7       	std	Y+46, r27	; 0x2e

00002cb4 <.LM102>:
    2cb4:	20 e0       	ldi	r18, 0x00	; 0
    2cb6:	30 e0       	ldi	r19, 0x00	; 0
    2cb8:	4a ef       	ldi	r20, 0xFA	; 250
    2cba:	54 e4       	ldi	r21, 0x44	; 68
    2cbc:	6b a5       	ldd	r22, Y+43	; 0x2b
    2cbe:	7c a5       	ldd	r23, Y+44	; 0x2c
    2cc0:	8d a5       	ldd	r24, Y+45	; 0x2d
    2cc2:	9e a5       	ldd	r25, Y+46	; 0x2e
    2cc4:	0e 94 35 30 	call	0x606a	; 0x606a <__mulsf3>
    2cc8:	6e 96       	adiw	r28, 0x1e	; 30
    2cca:	6c af       	std	Y+60, r22	; 0x3c
    2ccc:	7d af       	std	Y+61, r23	; 0x3d
    2cce:	8e af       	std	Y+62, r24	; 0x3e
    2cd0:	9f af       	std	Y+63, r25	; 0x3f
    2cd2:	6e 97       	sbiw	r28, 0x1e	; 30
    2cd4:	6e 96       	adiw	r28, 0x1e	; 30
    2cd6:	8c ad       	ldd	r24, Y+60	; 0x3c
    2cd8:	9d ad       	ldd	r25, Y+61	; 0x3d
    2cda:	ae ad       	ldd	r26, Y+62	; 0x3e
    2cdc:	bf ad       	ldd	r27, Y+63	; 0x3f
    2cde:	6e 97       	sbiw	r28, 0x1e	; 30
    2ce0:	8f a7       	std	Y+47, r24	; 0x2f
    2ce2:	98 ab       	std	Y+48, r25	; 0x30
    2ce4:	a9 ab       	std	Y+49, r26	; 0x31
    2ce6:	ba ab       	std	Y+50, r27	; 0x32

00002ce8 <.LM103>:
    2ce8:	20 e0       	ldi	r18, 0x00	; 0
    2cea:	30 e0       	ldi	r19, 0x00	; 0
    2cec:	40 e8       	ldi	r20, 0x80	; 128
    2cee:	5f e3       	ldi	r21, 0x3F	; 63
    2cf0:	6f a5       	ldd	r22, Y+47	; 0x2f
    2cf2:	78 a9       	ldd	r23, Y+48	; 0x30
    2cf4:	89 a9       	ldd	r24, Y+49	; 0x31
    2cf6:	9a a9       	ldd	r25, Y+50	; 0x32
    2cf8:	0e 94 af 2f 	call	0x5f5e	; 0x5f5e <__cmpsf2>
    2cfc:	88 23       	and	r24, r24
    2cfe:	2c f4       	brge	.+10     	; 0x2d0a <.L94>

00002d00 <.LM104>:
    2d00:	81 e0       	ldi	r24, 0x01	; 1
    2d02:	90 e0       	ldi	r25, 0x00	; 0
    2d04:	9c ab       	std	Y+52, r25	; 0x34
    2d06:	8b ab       	std	Y+51, r24	; 0x33
    2d08:	66 c0       	rjmp	.+204    	; 0x2dd6 <.L62>

00002d0a <.L94>:
    2d0a:	20 e0       	ldi	r18, 0x00	; 0
    2d0c:	3f ef       	ldi	r19, 0xFF	; 255
    2d0e:	4f e7       	ldi	r20, 0x7F	; 127
    2d10:	57 e4       	ldi	r21, 0x47	; 71
    2d12:	6f a5       	ldd	r22, Y+47	; 0x2f
    2d14:	78 a9       	ldd	r23, Y+48	; 0x30
    2d16:	89 a9       	ldd	r24, Y+49	; 0x31
    2d18:	9a a9       	ldd	r25, Y+50	; 0x32
    2d1a:	0e 94 30 30 	call	0x6060	; 0x6060 <__gesf2>
    2d1e:	88 23       	and	r24, r24
    2d20:	09 f0       	breq	.+2      	; 0x2d24 <L0^A>

00002d22 <L0^A>:
    2d22:	0c f4       	brge	.+2      	; 0x2d26 <.LM106>

00002d24 <L0^A>:
    2d24:	46 c0       	rjmp	.+140    	; 0x2db2 <.L95>

00002d26 <.LM106>:
    2d26:	20 e0       	ldi	r18, 0x00	; 0
    2d28:	30 e0       	ldi	r19, 0x00	; 0
    2d2a:	40 e2       	ldi	r20, 0x20	; 32
    2d2c:	51 e4       	ldi	r21, 0x41	; 65
    2d2e:	6b a5       	ldd	r22, Y+43	; 0x2b
    2d30:	7c a5       	ldd	r23, Y+44	; 0x2c
    2d32:	8d a5       	ldd	r24, Y+45	; 0x2d
    2d34:	9e a5       	ldd	r25, Y+46	; 0x2e
    2d36:	0e 94 35 30 	call	0x606a	; 0x606a <__mulsf3>
    2d3a:	a2 96       	adiw	r28, 0x22	; 34
    2d3c:	6c af       	std	Y+60, r22	; 0x3c
    2d3e:	7d af       	std	Y+61, r23	; 0x3d
    2d40:	8e af       	std	Y+62, r24	; 0x3e
    2d42:	9f af       	std	Y+63, r25	; 0x3f
    2d44:	a2 97       	sbiw	r28, 0x22	; 34
    2d46:	a2 96       	adiw	r28, 0x22	; 34
    2d48:	8c ad       	ldd	r24, Y+60	; 0x3c
    2d4a:	9d ad       	ldd	r25, Y+61	; 0x3d
    2d4c:	ae ad       	ldd	r26, Y+62	; 0x3e
    2d4e:	bf ad       	ldd	r27, Y+63	; 0x3f
    2d50:	a2 97       	sbiw	r28, 0x22	; 34
    2d52:	2a 96       	adiw	r28, 0x0a	; 10
    2d54:	8c af       	std	Y+60, r24	; 0x3c
    2d56:	9d af       	std	Y+61, r25	; 0x3d
    2d58:	ae af       	std	Y+62, r26	; 0x3e
    2d5a:	bf af       	std	Y+63, r27	; 0x3f
    2d5c:	2a 97       	sbiw	r28, 0x0a	; 10

00002d5e <.LM107>:
    2d5e:	2a 96       	adiw	r28, 0x0a	; 10
    2d60:	6c ad       	ldd	r22, Y+60	; 0x3c
    2d62:	7d ad       	ldd	r23, Y+61	; 0x3d
    2d64:	8e ad       	ldd	r24, Y+62	; 0x3e
    2d66:	9f ad       	ldd	r25, Y+63	; 0x3f
    2d68:	2a 97       	sbiw	r28, 0x0a	; 10
    2d6a:	0e 94 b4 2f 	call	0x5f68	; 0x5f68 <__fixunssfsi>
    2d6e:	a6 96       	adiw	r28, 0x26	; 38
    2d70:	6c af       	std	Y+60, r22	; 0x3c
    2d72:	7d af       	std	Y+61, r23	; 0x3d
    2d74:	8e af       	std	Y+62, r24	; 0x3e
    2d76:	9f af       	std	Y+63, r25	; 0x3f
    2d78:	a6 97       	sbiw	r28, 0x26	; 38
    2d7a:	a4 96       	adiw	r28, 0x24	; 36
    2d7c:	ae ad       	ldd	r26, Y+62	; 0x3e
    2d7e:	bf ad       	ldd	r27, Y+63	; 0x3f
    2d80:	a4 97       	sbiw	r28, 0x24	; 36
    2d82:	bc ab       	std	Y+52, r27	; 0x34
    2d84:	ab ab       	std	Y+51, r26	; 0x33

00002d86 <.LM108>:
    2d86:	10 c0       	rjmp	.+32     	; 0x2da8 <.L65>

00002d88 <.L66>:
    2d88:	88 ec       	ldi	r24, 0xC8	; 200
    2d8a:	90 e0       	ldi	r25, 0x00	; 0
    2d8c:	9e ab       	std	Y+54, r25	; 0x36
    2d8e:	8d ab       	std	Y+53, r24	; 0x35

00002d90 <.LM109>:
    2d90:	8d a9       	ldd	r24, Y+53	; 0x35
    2d92:	9e a9       	ldd	r25, Y+54	; 0x36

00002d94 <.L1^B11>:
    2d94:	01 97       	sbiw	r24, 0x01	; 1
    2d96:	f1 f7       	brne	.-4      	; 0x2d94 <.L1^B11>
    2d98:	9e ab       	std	Y+54, r25	; 0x36
    2d9a:	8d ab       	std	Y+53, r24	; 0x35

00002d9c <.LM110>:
	...

00002d9e <.LM111>:
    2d9e:	8b a9       	ldd	r24, Y+51	; 0x33
    2da0:	9c a9       	ldd	r25, Y+52	; 0x34
    2da2:	01 97       	sbiw	r24, 0x01	; 1
    2da4:	9c ab       	std	Y+52, r25	; 0x34
    2da6:	8b ab       	std	Y+51, r24	; 0x33

00002da8 <.L65>:
    2da8:	8b a9       	ldd	r24, Y+51	; 0x33
    2daa:	9c a9       	ldd	r25, Y+52	; 0x34
    2dac:	00 97       	sbiw	r24, 0x00	; 0
    2dae:	61 f7       	brne	.-40     	; 0x2d88 <.L66>

00002db0 <.LM113>:
    2db0:	1d c0       	rjmp	.+58     	; 0x2dec <.L67>

00002db2 <.L95>:
    2db2:	6f a5       	ldd	r22, Y+47	; 0x2f
    2db4:	78 a9       	ldd	r23, Y+48	; 0x30
    2db6:	89 a9       	ldd	r24, Y+49	; 0x31
    2db8:	9a a9       	ldd	r25, Y+50	; 0x32
    2dba:	0e 94 b4 2f 	call	0x5f68	; 0x5f68 <__fixunssfsi>
    2dbe:	aa 96       	adiw	r28, 0x2a	; 42
    2dc0:	6c af       	std	Y+60, r22	; 0x3c
    2dc2:	7d af       	std	Y+61, r23	; 0x3d
    2dc4:	8e af       	std	Y+62, r24	; 0x3e
    2dc6:	9f af       	std	Y+63, r25	; 0x3f
    2dc8:	aa 97       	sbiw	r28, 0x2a	; 42
    2dca:	a8 96       	adiw	r28, 0x28	; 40
    2dcc:	8e ad       	ldd	r24, Y+62	; 0x3e
    2dce:	9f ad       	ldd	r25, Y+63	; 0x3f
    2dd0:	a8 97       	sbiw	r28, 0x28	; 40
    2dd2:	9c ab       	std	Y+52, r25	; 0x34
    2dd4:	8b ab       	std	Y+51, r24	; 0x33

00002dd6 <.L62>:
    2dd6:	8b a9       	ldd	r24, Y+51	; 0x33
    2dd8:	9c a9       	ldd	r25, Y+52	; 0x34
    2dda:	98 af       	std	Y+56, r25	; 0x38
    2ddc:	8f ab       	std	Y+55, r24	; 0x37

00002dde <.LM115>:
    2dde:	8f a9       	ldd	r24, Y+55	; 0x37
    2de0:	98 ad       	ldd	r25, Y+56	; 0x38

00002de2 <.L1^B12>:
    2de2:	01 97       	sbiw	r24, 0x01	; 1
    2de4:	f1 f7       	brne	.-4      	; 0x2de2 <.L1^B12>
    2de6:	98 af       	std	Y+56, r25	; 0x38
    2de8:	8f ab       	std	Y+55, r24	; 0x37

00002dea <.LM116>:
	...

00002dec <.L67>:
    2dec:	41 e0       	ldi	r20, 0x01	; 1
    2dee:	62 e0       	ldi	r22, 0x02	; 2
    2df0:	81 e0       	ldi	r24, 0x01	; 1
    2df2:	0e 94 09 03 	call	0x612	; 0x612 <DIO_SetPinValue>

00002df6 <.LM118>:
    2df6:	89 ad       	ldd	r24, Y+57	; 0x39
    2df8:	81 70       	andi	r24, 0x01	; 1
    2dfa:	48 2f       	mov	r20, r24
    2dfc:	64 e0       	ldi	r22, 0x04	; 4
    2dfe:	80 e0       	ldi	r24, 0x00	; 0
    2e00:	0e 94 09 03 	call	0x612	; 0x612 <DIO_SetPinValue>

00002e04 <.LM119>:
    2e04:	89 ad       	ldd	r24, Y+57	; 0x39
    2e06:	86 95       	lsr	r24

00002e08 <.LM120>:
    2e08:	81 70       	andi	r24, 0x01	; 1
    2e0a:	48 2f       	mov	r20, r24
    2e0c:	65 e0       	ldi	r22, 0x05	; 5
    2e0e:	80 e0       	ldi	r24, 0x00	; 0
    2e10:	0e 94 09 03 	call	0x612	; 0x612 <DIO_SetPinValue>

00002e14 <.LM121>:
    2e14:	89 ad       	ldd	r24, Y+57	; 0x39
    2e16:	86 95       	lsr	r24
    2e18:	86 95       	lsr	r24

00002e1a <.LM122>:
    2e1a:	81 70       	andi	r24, 0x01	; 1
    2e1c:	48 2f       	mov	r20, r24
    2e1e:	66 e0       	ldi	r22, 0x06	; 6
    2e20:	80 e0       	ldi	r24, 0x00	; 0
    2e22:	0e 94 09 03 	call	0x612	; 0x612 <DIO_SetPinValue>

00002e26 <.LM123>:
    2e26:	89 ad       	ldd	r24, Y+57	; 0x39
    2e28:	86 95       	lsr	r24
    2e2a:	86 95       	lsr	r24
    2e2c:	86 95       	lsr	r24

00002e2e <.LM124>:
    2e2e:	81 70       	andi	r24, 0x01	; 1
    2e30:	48 2f       	mov	r20, r24
    2e32:	67 e0       	ldi	r22, 0x07	; 7
    2e34:	80 e0       	ldi	r24, 0x00	; 0
    2e36:	0e 94 09 03 	call	0x612	; 0x612 <DIO_SetPinValue>
    2e3a:	80 e0       	ldi	r24, 0x00	; 0
    2e3c:	90 e0       	ldi	r25, 0x00	; 0
    2e3e:	a0 e8       	ldi	r26, 0x80	; 128
    2e40:	bf e3       	ldi	r27, 0x3F	; 63
    2e42:	8d 8f       	std	Y+29, r24	; 0x1d
    2e44:	9e 8f       	std	Y+30, r25	; 0x1e
    2e46:	af 8f       	std	Y+31, r26	; 0x1f
    2e48:	b8 a3       	std	Y+32, r27	; 0x20

00002e4a <.LM125>:
    2e4a:	20 e0       	ldi	r18, 0x00	; 0
    2e4c:	30 e0       	ldi	r19, 0x00	; 0
    2e4e:	4a ef       	ldi	r20, 0xFA	; 250
    2e50:	54 e4       	ldi	r21, 0x44	; 68
    2e52:	6d 8d       	ldd	r22, Y+29	; 0x1d
    2e54:	7e 8d       	ldd	r23, Y+30	; 0x1e
    2e56:	8f 8d       	ldd	r24, Y+31	; 0x1f
    2e58:	98 a1       	ldd	r25, Y+32	; 0x20
    2e5a:	0e 94 35 30 	call	0x606a	; 0x606a <__mulsf3>
    2e5e:	ae 96       	adiw	r28, 0x2e	; 46
    2e60:	6c af       	std	Y+60, r22	; 0x3c
    2e62:	7d af       	std	Y+61, r23	; 0x3d
    2e64:	8e af       	std	Y+62, r24	; 0x3e
    2e66:	9f af       	std	Y+63, r25	; 0x3f
    2e68:	ae 97       	sbiw	r28, 0x2e	; 46
    2e6a:	ae 96       	adiw	r28, 0x2e	; 46
    2e6c:	8c ad       	ldd	r24, Y+60	; 0x3c
    2e6e:	9d ad       	ldd	r25, Y+61	; 0x3d
    2e70:	ae ad       	ldd	r26, Y+62	; 0x3e
    2e72:	bf ad       	ldd	r27, Y+63	; 0x3f
    2e74:	ae 97       	sbiw	r28, 0x2e	; 46
    2e76:	89 a3       	std	Y+33, r24	; 0x21
    2e78:	9a a3       	std	Y+34, r25	; 0x22
    2e7a:	ab a3       	std	Y+35, r26	; 0x23
    2e7c:	bc a3       	std	Y+36, r27	; 0x24

00002e7e <.LM126>:
    2e7e:	20 e0       	ldi	r18, 0x00	; 0
    2e80:	30 e0       	ldi	r19, 0x00	; 0
    2e82:	40 e8       	ldi	r20, 0x80	; 128
    2e84:	5f e3       	ldi	r21, 0x3F	; 63
    2e86:	69 a1       	ldd	r22, Y+33	; 0x21
    2e88:	7a a1       	ldd	r23, Y+34	; 0x22
    2e8a:	8b a1       	ldd	r24, Y+35	; 0x23
    2e8c:	9c a1       	ldd	r25, Y+36	; 0x24
    2e8e:	0e 94 af 2f 	call	0x5f5e	; 0x5f5e <__cmpsf2>
    2e92:	88 23       	and	r24, r24
    2e94:	2c f4       	brge	.+10     	; 0x2ea0 <.L96>

00002e96 <.LM127>:
    2e96:	81 e0       	ldi	r24, 0x01	; 1
    2e98:	90 e0       	ldi	r25, 0x00	; 0
    2e9a:	9e a3       	std	Y+38, r25	; 0x26
    2e9c:	8d a3       	std	Y+37, r24	; 0x25
    2e9e:	66 c0       	rjmp	.+204    	; 0x2f6c <.L70>

00002ea0 <.L96>:
    2ea0:	20 e0       	ldi	r18, 0x00	; 0
    2ea2:	3f ef       	ldi	r19, 0xFF	; 255
    2ea4:	4f e7       	ldi	r20, 0x7F	; 127
    2ea6:	57 e4       	ldi	r21, 0x47	; 71
    2ea8:	69 a1       	ldd	r22, Y+33	; 0x21
    2eaa:	7a a1       	ldd	r23, Y+34	; 0x22
    2eac:	8b a1       	ldd	r24, Y+35	; 0x23
    2eae:	9c a1       	ldd	r25, Y+36	; 0x24
    2eb0:	0e 94 30 30 	call	0x6060	; 0x6060 <__gesf2>
    2eb4:	88 23       	and	r24, r24
    2eb6:	09 f0       	breq	.+2      	; 0x2eba <L0^A>

00002eb8 <L0^A>:
    2eb8:	0c f4       	brge	.+2      	; 0x2ebc <.LM129>

00002eba <L0^A>:
    2eba:	46 c0       	rjmp	.+140    	; 0x2f48 <.L97>

00002ebc <.LM129>:
    2ebc:	20 e0       	ldi	r18, 0x00	; 0
    2ebe:	30 e0       	ldi	r19, 0x00	; 0
    2ec0:	40 e2       	ldi	r20, 0x20	; 32
    2ec2:	51 e4       	ldi	r21, 0x41	; 65
    2ec4:	6d 8d       	ldd	r22, Y+29	; 0x1d
    2ec6:	7e 8d       	ldd	r23, Y+30	; 0x1e
    2ec8:	8f 8d       	ldd	r24, Y+31	; 0x1f
    2eca:	98 a1       	ldd	r25, Y+32	; 0x20
    2ecc:	0e 94 35 30 	call	0x606a	; 0x606a <__mulsf3>
    2ed0:	e2 96       	adiw	r28, 0x32	; 50
    2ed2:	6c af       	std	Y+60, r22	; 0x3c
    2ed4:	7d af       	std	Y+61, r23	; 0x3d
    2ed6:	8e af       	std	Y+62, r24	; 0x3e
    2ed8:	9f af       	std	Y+63, r25	; 0x3f
    2eda:	e2 97       	sbiw	r28, 0x32	; 50
    2edc:	e2 96       	adiw	r28, 0x32	; 50
    2ede:	8c ad       	ldd	r24, Y+60	; 0x3c
    2ee0:	9d ad       	ldd	r25, Y+61	; 0x3d
    2ee2:	ae ad       	ldd	r26, Y+62	; 0x3e
    2ee4:	bf ad       	ldd	r27, Y+63	; 0x3f
    2ee6:	e2 97       	sbiw	r28, 0x32	; 50
    2ee8:	26 96       	adiw	r28, 0x06	; 6
    2eea:	8c af       	std	Y+60, r24	; 0x3c
    2eec:	9d af       	std	Y+61, r25	; 0x3d
    2eee:	ae af       	std	Y+62, r26	; 0x3e
    2ef0:	bf af       	std	Y+63, r27	; 0x3f
    2ef2:	26 97       	sbiw	r28, 0x06	; 6

00002ef4 <.LM130>:
    2ef4:	26 96       	adiw	r28, 0x06	; 6
    2ef6:	6c ad       	ldd	r22, Y+60	; 0x3c
    2ef8:	7d ad       	ldd	r23, Y+61	; 0x3d
    2efa:	8e ad       	ldd	r24, Y+62	; 0x3e
    2efc:	9f ad       	ldd	r25, Y+63	; 0x3f
    2efe:	26 97       	sbiw	r28, 0x06	; 6
    2f00:	0e 94 b4 2f 	call	0x5f68	; 0x5f68 <__fixunssfsi>
    2f04:	e6 96       	adiw	r28, 0x36	; 54
    2f06:	6c af       	std	Y+60, r22	; 0x3c
    2f08:	7d af       	std	Y+61, r23	; 0x3d
    2f0a:	8e af       	std	Y+62, r24	; 0x3e
    2f0c:	9f af       	std	Y+63, r25	; 0x3f
    2f0e:	e6 97       	sbiw	r28, 0x36	; 54
    2f10:	e4 96       	adiw	r28, 0x34	; 52
    2f12:	ae ad       	ldd	r26, Y+62	; 0x3e
    2f14:	bf ad       	ldd	r27, Y+63	; 0x3f
    2f16:	e4 97       	sbiw	r28, 0x34	; 52
    2f18:	be a3       	std	Y+38, r27	; 0x26
    2f1a:	ad a3       	std	Y+37, r26	; 0x25

00002f1c <.LM131>:
    2f1c:	10 c0       	rjmp	.+32     	; 0x2f3e <.L73>

00002f1e <.L74>:
    2f1e:	88 ec       	ldi	r24, 0xC8	; 200
    2f20:	90 e0       	ldi	r25, 0x00	; 0
    2f22:	98 a7       	std	Y+40, r25	; 0x28
    2f24:	8f a3       	std	Y+39, r24	; 0x27

00002f26 <.LM132>:
    2f26:	8f a1       	ldd	r24, Y+39	; 0x27
    2f28:	98 a5       	ldd	r25, Y+40	; 0x28

00002f2a <.L1^B13>:
    2f2a:	01 97       	sbiw	r24, 0x01	; 1
    2f2c:	f1 f7       	brne	.-4      	; 0x2f2a <.L1^B13>
    2f2e:	98 a7       	std	Y+40, r25	; 0x28
    2f30:	8f a3       	std	Y+39, r24	; 0x27

00002f32 <.LM133>:
	...

00002f34 <.LM134>:
    2f34:	8d a1       	ldd	r24, Y+37	; 0x25
    2f36:	9e a1       	ldd	r25, Y+38	; 0x26
    2f38:	01 97       	sbiw	r24, 0x01	; 1
    2f3a:	9e a3       	std	Y+38, r25	; 0x26
    2f3c:	8d a3       	std	Y+37, r24	; 0x25

00002f3e <.L73>:
    2f3e:	8d a1       	ldd	r24, Y+37	; 0x25
    2f40:	9e a1       	ldd	r25, Y+38	; 0x26
    2f42:	00 97       	sbiw	r24, 0x00	; 0
    2f44:	61 f7       	brne	.-40     	; 0x2f1e <.L74>

00002f46 <.LM136>:
    2f46:	1d c0       	rjmp	.+58     	; 0x2f82 <.L75>

00002f48 <.L97>:
    2f48:	69 a1       	ldd	r22, Y+33	; 0x21
    2f4a:	7a a1       	ldd	r23, Y+34	; 0x22
    2f4c:	8b a1       	ldd	r24, Y+35	; 0x23
    2f4e:	9c a1       	ldd	r25, Y+36	; 0x24
    2f50:	0e 94 b4 2f 	call	0x5f68	; 0x5f68 <__fixunssfsi>
    2f54:	ea 96       	adiw	r28, 0x3a	; 58
    2f56:	6c af       	std	Y+60, r22	; 0x3c
    2f58:	7d af       	std	Y+61, r23	; 0x3d
    2f5a:	8e af       	std	Y+62, r24	; 0x3e
    2f5c:	9f af       	std	Y+63, r25	; 0x3f
    2f5e:	ea 97       	sbiw	r28, 0x3a	; 58
    2f60:	e8 96       	adiw	r28, 0x38	; 56
    2f62:	8e ad       	ldd	r24, Y+62	; 0x3e
    2f64:	9f ad       	ldd	r25, Y+63	; 0x3f
    2f66:	e8 97       	sbiw	r28, 0x38	; 56
    2f68:	9e a3       	std	Y+38, r25	; 0x26
    2f6a:	8d a3       	std	Y+37, r24	; 0x25

00002f6c <.L70>:
    2f6c:	8d a1       	ldd	r24, Y+37	; 0x25
    2f6e:	9e a1       	ldd	r25, Y+38	; 0x26
    2f70:	9a a7       	std	Y+42, r25	; 0x2a
    2f72:	89 a7       	std	Y+41, r24	; 0x29

00002f74 <.LM138>:
    2f74:	89 a5       	ldd	r24, Y+41	; 0x29
    2f76:	9a a5       	ldd	r25, Y+42	; 0x2a

00002f78 <.L1^B14>:
    2f78:	01 97       	sbiw	r24, 0x01	; 1
    2f7a:	f1 f7       	brne	.-4      	; 0x2f78 <.L1^B14>
    2f7c:	9a a7       	std	Y+42, r25	; 0x2a
    2f7e:	89 a7       	std	Y+41, r24	; 0x29

00002f80 <.LM139>:
	...

00002f82 <.L75>:
    2f82:	40 e0       	ldi	r20, 0x00	; 0
    2f84:	62 e0       	ldi	r22, 0x02	; 2
    2f86:	81 e0       	ldi	r24, 0x01	; 1
    2f88:	0e 94 09 03 	call	0x612	; 0x612 <DIO_SetPinValue>
    2f8c:	80 e0       	ldi	r24, 0x00	; 0
    2f8e:	90 e0       	ldi	r25, 0x00	; 0
    2f90:	a0 e0       	ldi	r26, 0x00	; 0
    2f92:	b0 e4       	ldi	r27, 0x40	; 64
    2f94:	8f 87       	std	Y+15, r24	; 0x0f
    2f96:	98 8b       	std	Y+16, r25	; 0x10
    2f98:	a9 8b       	std	Y+17, r26	; 0x11
    2f9a:	ba 8b       	std	Y+18, r27	; 0x12

00002f9c <.LM141>:
    2f9c:	20 e0       	ldi	r18, 0x00	; 0
    2f9e:	30 e0       	ldi	r19, 0x00	; 0
    2fa0:	4a ef       	ldi	r20, 0xFA	; 250
    2fa2:	54 e4       	ldi	r21, 0x44	; 68
    2fa4:	6f 85       	ldd	r22, Y+15	; 0x0f
    2fa6:	78 89       	ldd	r23, Y+16	; 0x10
    2fa8:	89 89       	ldd	r24, Y+17	; 0x11
    2faa:	9a 89       	ldd	r25, Y+18	; 0x12
    2fac:	0e 94 35 30 	call	0x606a	; 0x606a <__mulsf3>
    2fb0:	ee 96       	adiw	r28, 0x3e	; 62
    2fb2:	6c af       	std	Y+60, r22	; 0x3c
    2fb4:	7d af       	std	Y+61, r23	; 0x3d
    2fb6:	8e af       	std	Y+62, r24	; 0x3e
    2fb8:	9f af       	std	Y+63, r25	; 0x3f
    2fba:	ee 97       	sbiw	r28, 0x3e	; 62
    2fbc:	ee 96       	adiw	r28, 0x3e	; 62
    2fbe:	8c ad       	ldd	r24, Y+60	; 0x3c
    2fc0:	9d ad       	ldd	r25, Y+61	; 0x3d
    2fc2:	ae ad       	ldd	r26, Y+62	; 0x3e
    2fc4:	bf ad       	ldd	r27, Y+63	; 0x3f
    2fc6:	ee 97       	sbiw	r28, 0x3e	; 62
    2fc8:	8b 8b       	std	Y+19, r24	; 0x13
    2fca:	9c 8b       	std	Y+20, r25	; 0x14
    2fcc:	ad 8b       	std	Y+21, r26	; 0x15
    2fce:	be 8b       	std	Y+22, r27	; 0x16

00002fd0 <.LM142>:
    2fd0:	20 e0       	ldi	r18, 0x00	; 0
    2fd2:	30 e0       	ldi	r19, 0x00	; 0
    2fd4:	40 e8       	ldi	r20, 0x80	; 128
    2fd6:	5f e3       	ldi	r21, 0x3F	; 63
    2fd8:	6b 89       	ldd	r22, Y+19	; 0x13
    2fda:	7c 89       	ldd	r23, Y+20	; 0x14
    2fdc:	8d 89       	ldd	r24, Y+21	; 0x15
    2fde:	9e 89       	ldd	r25, Y+22	; 0x16
    2fe0:	0e 94 af 2f 	call	0x5f5e	; 0x5f5e <__cmpsf2>
    2fe4:	88 23       	and	r24, r24
    2fe6:	2c f4       	brge	.+10     	; 0x2ff2 <.L98>

00002fe8 <.LM143>:
    2fe8:	81 e0       	ldi	r24, 0x01	; 1
    2fea:	90 e0       	ldi	r25, 0x00	; 0
    2fec:	98 8f       	std	Y+24, r25	; 0x18
    2fee:	8f 8b       	std	Y+23, r24	; 0x17
    2ff0:	72 c0       	rjmp	.+228    	; 0x30d6 <.L78>

00002ff2 <.L98>:
    2ff2:	20 e0       	ldi	r18, 0x00	; 0
    2ff4:	3f ef       	ldi	r19, 0xFF	; 255
    2ff6:	4f e7       	ldi	r20, 0x7F	; 127
    2ff8:	57 e4       	ldi	r21, 0x47	; 71
    2ffa:	6b 89       	ldd	r22, Y+19	; 0x13
    2ffc:	7c 89       	ldd	r23, Y+20	; 0x14
    2ffe:	8d 89       	ldd	r24, Y+21	; 0x15
    3000:	9e 89       	ldd	r25, Y+22	; 0x16
    3002:	0e 94 30 30 	call	0x6060	; 0x6060 <__gesf2>
    3006:	88 23       	and	r24, r24
    3008:	09 f0       	breq	.+2      	; 0x300c <L0^A>

0000300a <L0^A>:
    300a:	0c f4       	brge	.+2      	; 0x300e <.LM145>

0000300c <L0^A>:
    300c:	4e c0       	rjmp	.+156    	; 0x30aa <.L99>

0000300e <.LM145>:
    300e:	20 e0       	ldi	r18, 0x00	; 0
    3010:	30 e0       	ldi	r19, 0x00	; 0
    3012:	40 e2       	ldi	r20, 0x20	; 32
    3014:	51 e4       	ldi	r21, 0x41	; 65
    3016:	6f 85       	ldd	r22, Y+15	; 0x0f
    3018:	78 89       	ldd	r23, Y+16	; 0x10
    301a:	89 89       	ldd	r24, Y+17	; 0x11
    301c:	9a 89       	ldd	r25, Y+18	; 0x12
    301e:	0e 94 35 30 	call	0x606a	; 0x606a <__mulsf3>
    3022:	c2 58       	subi	r28, 0x82	; 130
    3024:	df 4f       	sbci	r29, 0xFF	; 255
    3026:	68 83       	st	Y, r22
    3028:	79 83       	std	Y+1, r23	; 0x01
    302a:	8a 83       	std	Y+2, r24	; 0x02
    302c:	9b 83       	std	Y+3, r25	; 0x03
    302e:	ce 57       	subi	r28, 0x7E	; 126
    3030:	d0 40       	sbci	r29, 0x00	; 0
    3032:	c2 58       	subi	r28, 0x82	; 130
    3034:	df 4f       	sbci	r29, 0xFF	; 255
    3036:	88 81       	ld	r24, Y
    3038:	99 81       	ldd	r25, Y+1	; 0x01
    303a:	aa 81       	ldd	r26, Y+2	; 0x02
    303c:	bb 81       	ldd	r27, Y+3	; 0x03
    303e:	ce 57       	subi	r28, 0x7E	; 126
    3040:	d0 40       	sbci	r29, 0x00	; 0
    3042:	22 96       	adiw	r28, 0x02	; 2
    3044:	8c af       	std	Y+60, r24	; 0x3c
    3046:	9d af       	std	Y+61, r25	; 0x3d
    3048:	ae af       	std	Y+62, r26	; 0x3e
    304a:	bf af       	std	Y+63, r27	; 0x3f
    304c:	22 97       	sbiw	r28, 0x02	; 2

0000304e <.LM146>:
    304e:	22 96       	adiw	r28, 0x02	; 2
    3050:	6c ad       	ldd	r22, Y+60	; 0x3c
    3052:	7d ad       	ldd	r23, Y+61	; 0x3d
    3054:	8e ad       	ldd	r24, Y+62	; 0x3e
    3056:	9f ad       	ldd	r25, Y+63	; 0x3f
    3058:	22 97       	sbiw	r28, 0x02	; 2
    305a:	0e 94 b4 2f 	call	0x5f68	; 0x5f68 <__fixunssfsi>
    305e:	ce 57       	subi	r28, 0x7E	; 126
    3060:	df 4f       	sbci	r29, 0xFF	; 255
    3062:	68 83       	st	Y, r22
    3064:	79 83       	std	Y+1, r23	; 0x01
    3066:	8a 83       	std	Y+2, r24	; 0x02
    3068:	9b 83       	std	Y+3, r25	; 0x03
    306a:	c2 58       	subi	r28, 0x82	; 130
    306c:	d0 40       	sbci	r29, 0x00	; 0
    306e:	ce 57       	subi	r28, 0x7E	; 126
    3070:	df 4f       	sbci	r29, 0xFF	; 255
    3072:	a8 81       	ld	r26, Y
    3074:	b9 81       	ldd	r27, Y+1	; 0x01
    3076:	c2 58       	subi	r28, 0x82	; 130
    3078:	d0 40       	sbci	r29, 0x00	; 0
    307a:	b8 8f       	std	Y+24, r27	; 0x18
    307c:	af 8b       	std	Y+23, r26	; 0x17

0000307e <.LM147>:
    307e:	10 c0       	rjmp	.+32     	; 0x30a0 <.L81>

00003080 <.L82>:
    3080:	88 ec       	ldi	r24, 0xC8	; 200
    3082:	90 e0       	ldi	r25, 0x00	; 0
    3084:	9a 8f       	std	Y+26, r25	; 0x1a
    3086:	89 8f       	std	Y+25, r24	; 0x19

00003088 <.LM148>:
    3088:	89 8d       	ldd	r24, Y+25	; 0x19
    308a:	9a 8d       	ldd	r25, Y+26	; 0x1a

0000308c <.L1^B15>:
    308c:	01 97       	sbiw	r24, 0x01	; 1
    308e:	f1 f7       	brne	.-4      	; 0x308c <.L1^B15>
    3090:	9a 8f       	std	Y+26, r25	; 0x1a
    3092:	89 8f       	std	Y+25, r24	; 0x19

00003094 <.LM149>:
	...

00003096 <.LM150>:
    3096:	8f 89       	ldd	r24, Y+23	; 0x17
    3098:	98 8d       	ldd	r25, Y+24	; 0x18
    309a:	01 97       	sbiw	r24, 0x01	; 1
    309c:	98 8f       	std	Y+24, r25	; 0x18
    309e:	8f 8b       	std	Y+23, r24	; 0x17

000030a0 <.L81>:
    30a0:	8f 89       	ldd	r24, Y+23	; 0x17
    30a2:	98 8d       	ldd	r25, Y+24	; 0x18
    30a4:	00 97       	sbiw	r24, 0x00	; 0
    30a6:	61 f7       	brne	.-40     	; 0x3080 <.L82>

000030a8 <.LM152>:
    30a8:	21 c0       	rjmp	.+66     	; 0x30ec <.L100>

000030aa <.L99>:
    30aa:	6b 89       	ldd	r22, Y+19	; 0x13
    30ac:	7c 89       	ldd	r23, Y+20	; 0x14
    30ae:	8d 89       	ldd	r24, Y+21	; 0x15
    30b0:	9e 89       	ldd	r25, Y+22	; 0x16
    30b2:	0e 94 b4 2f 	call	0x5f68	; 0x5f68 <__fixunssfsi>
    30b6:	ca 57       	subi	r28, 0x7A	; 122
    30b8:	df 4f       	sbci	r29, 0xFF	; 255
    30ba:	68 83       	st	Y, r22
    30bc:	79 83       	std	Y+1, r23	; 0x01
    30be:	8a 83       	std	Y+2, r24	; 0x02
    30c0:	9b 83       	std	Y+3, r25	; 0x03
    30c2:	c6 58       	subi	r28, 0x86	; 134
    30c4:	d0 40       	sbci	r29, 0x00	; 0
    30c6:	ca 57       	subi	r28, 0x7A	; 122
    30c8:	df 4f       	sbci	r29, 0xFF	; 255
    30ca:	88 81       	ld	r24, Y
    30cc:	99 81       	ldd	r25, Y+1	; 0x01
    30ce:	c6 58       	subi	r28, 0x86	; 134
    30d0:	d0 40       	sbci	r29, 0x00	; 0
    30d2:	98 8f       	std	Y+24, r25	; 0x18
    30d4:	8f 8b       	std	Y+23, r24	; 0x17

000030d6 <.L78>:
    30d6:	8f 89       	ldd	r24, Y+23	; 0x17
    30d8:	98 8d       	ldd	r25, Y+24	; 0x18
    30da:	9c 8f       	std	Y+28, r25	; 0x1c
    30dc:	8b 8f       	std	Y+27, r24	; 0x1b

000030de <.LM154>:
    30de:	8b 8d       	ldd	r24, Y+27	; 0x1b
    30e0:	9c 8d       	ldd	r25, Y+28	; 0x1c

000030e2 <.L1^B16>:
    30e2:	01 97       	sbiw	r24, 0x01	; 1
    30e4:	f1 f7       	brne	.-4      	; 0x30e2 <.L1^B16>
    30e6:	9c 8f       	std	Y+28, r25	; 0x1c
    30e8:	8b 8f       	std	Y+27, r24	; 0x1b

000030ea <.LM155>:
	...

000030ec <.L100>:
    30ec:	00 00       	nop
    30ee:	c7 57       	subi	r28, 0x77	; 119
    30f0:	df 4f       	sbci	r29, 0xFF	; 255
    30f2:	0f b6       	in	r0, 0x3f	; 63
    30f4:	f8 94       	cli
    30f6:	de bf       	out	0x3e, r29	; 62
    30f8:	0f be       	out	0x3f, r0	; 63
    30fa:	cd bf       	out	0x3d, r28	; 61
    30fc:	df 91       	pop	r29
    30fe:	cf 91       	pop	r28
    3100:	08 95       	ret

00003102 <LCD_WriteData>:
    3102:	cf 93       	push	r28
    3104:	df 93       	push	r29
    3106:	cd b7       	in	r28, 0x3d	; 61
    3108:	de b7       	in	r29, 0x3e	; 62
    310a:	c9 58       	subi	r28, 0x89	; 137
    310c:	d1 09       	sbc	r29, r1
    310e:	0f b6       	in	r0, 0x3f	; 63
    3110:	f8 94       	cli
    3112:	de bf       	out	0x3e, r29	; 62
    3114:	0f be       	out	0x3f, r0	; 63
    3116:	cd bf       	out	0x3d, r28	; 61
    3118:	89 af       	std	Y+57, r24	; 0x39

0000311a <.LM158>:
    311a:	41 e0       	ldi	r20, 0x01	; 1
    311c:	61 e0       	ldi	r22, 0x01	; 1
    311e:	81 e0       	ldi	r24, 0x01	; 1
    3120:	0e 94 09 03 	call	0x612	; 0x612 <DIO_SetPinValue>

00003124 <.LM159>:
    3124:	40 e0       	ldi	r20, 0x00	; 0
    3126:	63 e0       	ldi	r22, 0x03	; 3
    3128:	81 e0       	ldi	r24, 0x01	; 1
    312a:	0e 94 09 03 	call	0x612	; 0x612 <DIO_SetPinValue>

0000312e <.LM160>:
    312e:	41 e0       	ldi	r20, 0x01	; 1
    3130:	62 e0       	ldi	r22, 0x02	; 2
    3132:	81 e0       	ldi	r24, 0x01	; 1
    3134:	0e 94 09 03 	call	0x612	; 0x612 <DIO_SetPinValue>

00003138 <.LM161>:
    3138:	89 ad       	ldd	r24, Y+57	; 0x39
    313a:	82 95       	swap	r24
    313c:	8f 70       	andi	r24, 0x0F	; 15

0000313e <.LM162>:
    313e:	81 70       	andi	r24, 0x01	; 1
    3140:	48 2f       	mov	r20, r24
    3142:	64 e0       	ldi	r22, 0x04	; 4
    3144:	80 e0       	ldi	r24, 0x00	; 0
    3146:	0e 94 09 03 	call	0x612	; 0x612 <DIO_SetPinValue>

0000314a <.LM163>:
    314a:	89 ad       	ldd	r24, Y+57	; 0x39
    314c:	82 95       	swap	r24
    314e:	86 95       	lsr	r24
    3150:	87 70       	andi	r24, 0x07	; 7

00003152 <.LM164>:
    3152:	81 70       	andi	r24, 0x01	; 1
    3154:	48 2f       	mov	r20, r24
    3156:	65 e0       	ldi	r22, 0x05	; 5
    3158:	80 e0       	ldi	r24, 0x00	; 0
    315a:	0e 94 09 03 	call	0x612	; 0x612 <DIO_SetPinValue>

0000315e <.LM165>:
    315e:	89 ad       	ldd	r24, Y+57	; 0x39
    3160:	82 95       	swap	r24
    3162:	86 95       	lsr	r24
    3164:	86 95       	lsr	r24
    3166:	83 70       	andi	r24, 0x03	; 3

00003168 <.LM166>:
    3168:	81 70       	andi	r24, 0x01	; 1
    316a:	48 2f       	mov	r20, r24
    316c:	66 e0       	ldi	r22, 0x06	; 6
    316e:	80 e0       	ldi	r24, 0x00	; 0
    3170:	0e 94 09 03 	call	0x612	; 0x612 <DIO_SetPinValue>

00003174 <.LM167>:
    3174:	89 ad       	ldd	r24, Y+57	; 0x39
    3176:	88 1f       	adc	r24, r24
    3178:	88 27       	eor	r24, r24
    317a:	88 1f       	adc	r24, r24
    317c:	48 2f       	mov	r20, r24
    317e:	67 e0       	ldi	r22, 0x07	; 7
    3180:	80 e0       	ldi	r24, 0x00	; 0
    3182:	0e 94 09 03 	call	0x612	; 0x612 <DIO_SetPinValue>
    3186:	80 e0       	ldi	r24, 0x00	; 0
    3188:	90 e0       	ldi	r25, 0x00	; 0
    318a:	a0 e8       	ldi	r26, 0x80	; 128
    318c:	bf e3       	ldi	r27, 0x3F	; 63
    318e:	8b a7       	std	Y+43, r24	; 0x2b
    3190:	9c a7       	std	Y+44, r25	; 0x2c
    3192:	ad a7       	std	Y+45, r26	; 0x2d
    3194:	be a7       	std	Y+46, r27	; 0x2e

00003196 <.LM168>:
    3196:	20 e0       	ldi	r18, 0x00	; 0
    3198:	30 e0       	ldi	r19, 0x00	; 0
    319a:	4a ef       	ldi	r20, 0xFA	; 250
    319c:	54 e4       	ldi	r21, 0x44	; 68
    319e:	6b a5       	ldd	r22, Y+43	; 0x2b
    31a0:	7c a5       	ldd	r23, Y+44	; 0x2c
    31a2:	8d a5       	ldd	r24, Y+45	; 0x2d
    31a4:	9e a5       	ldd	r25, Y+46	; 0x2e
    31a6:	0e 94 35 30 	call	0x606a	; 0x606a <__mulsf3>
    31aa:	2e 96       	adiw	r28, 0x0e	; 14
    31ac:	6c af       	std	Y+60, r22	; 0x3c
    31ae:	7d af       	std	Y+61, r23	; 0x3d
    31b0:	8e af       	std	Y+62, r24	; 0x3e
    31b2:	9f af       	std	Y+63, r25	; 0x3f
    31b4:	2e 97       	sbiw	r28, 0x0e	; 14
    31b6:	2e 96       	adiw	r28, 0x0e	; 14
    31b8:	8c ad       	ldd	r24, Y+60	; 0x3c
    31ba:	9d ad       	ldd	r25, Y+61	; 0x3d
    31bc:	ae ad       	ldd	r26, Y+62	; 0x3e
    31be:	bf ad       	ldd	r27, Y+63	; 0x3f
    31c0:	2e 97       	sbiw	r28, 0x0e	; 14
    31c2:	8f a7       	std	Y+47, r24	; 0x2f
    31c4:	98 ab       	std	Y+48, r25	; 0x30
    31c6:	a9 ab       	std	Y+49, r26	; 0x31
    31c8:	ba ab       	std	Y+50, r27	; 0x32

000031ca <.LM169>:
    31ca:	20 e0       	ldi	r18, 0x00	; 0
    31cc:	30 e0       	ldi	r19, 0x00	; 0
    31ce:	40 e8       	ldi	r20, 0x80	; 128
    31d0:	5f e3       	ldi	r21, 0x3F	; 63
    31d2:	6f a5       	ldd	r22, Y+47	; 0x2f
    31d4:	78 a9       	ldd	r23, Y+48	; 0x30
    31d6:	89 a9       	ldd	r24, Y+49	; 0x31
    31d8:	9a a9       	ldd	r25, Y+50	; 0x32
    31da:	0e 94 af 2f 	call	0x5f5e	; 0x5f5e <__cmpsf2>
    31de:	88 23       	and	r24, r24
    31e0:	2c f4       	brge	.+10     	; 0x31ec <.L142>

000031e2 <.LM170>:
    31e2:	81 e0       	ldi	r24, 0x01	; 1
    31e4:	90 e0       	ldi	r25, 0x00	; 0
    31e6:	9c ab       	std	Y+52, r25	; 0x34
    31e8:	8b ab       	std	Y+51, r24	; 0x33
    31ea:	66 c0       	rjmp	.+204    	; 0x32b8 <.L104>

000031ec <.L142>:
    31ec:	20 e0       	ldi	r18, 0x00	; 0
    31ee:	3f ef       	ldi	r19, 0xFF	; 255
    31f0:	4f e7       	ldi	r20, 0x7F	; 127
    31f2:	57 e4       	ldi	r21, 0x47	; 71
    31f4:	6f a5       	ldd	r22, Y+47	; 0x2f
    31f6:	78 a9       	ldd	r23, Y+48	; 0x30
    31f8:	89 a9       	ldd	r24, Y+49	; 0x31
    31fa:	9a a9       	ldd	r25, Y+50	; 0x32
    31fc:	0e 94 30 30 	call	0x6060	; 0x6060 <__gesf2>
    3200:	88 23       	and	r24, r24
    3202:	09 f0       	breq	.+2      	; 0x3206 <L0^A>

00003204 <L0^A>:
    3204:	0c f4       	brge	.+2      	; 0x3208 <.LM172>

00003206 <L0^A>:
    3206:	46 c0       	rjmp	.+140    	; 0x3294 <.L143>

00003208 <.LM172>:
    3208:	20 e0       	ldi	r18, 0x00	; 0
    320a:	30 e0       	ldi	r19, 0x00	; 0
    320c:	40 e2       	ldi	r20, 0x20	; 32
    320e:	51 e4       	ldi	r21, 0x41	; 65
    3210:	6b a5       	ldd	r22, Y+43	; 0x2b
    3212:	7c a5       	ldd	r23, Y+44	; 0x2c
    3214:	8d a5       	ldd	r24, Y+45	; 0x2d
    3216:	9e a5       	ldd	r25, Y+46	; 0x2e
    3218:	0e 94 35 30 	call	0x606a	; 0x606a <__mulsf3>
    321c:	62 96       	adiw	r28, 0x12	; 18
    321e:	6c af       	std	Y+60, r22	; 0x3c
    3220:	7d af       	std	Y+61, r23	; 0x3d
    3222:	8e af       	std	Y+62, r24	; 0x3e
    3224:	9f af       	std	Y+63, r25	; 0x3f
    3226:	62 97       	sbiw	r28, 0x12	; 18
    3228:	62 96       	adiw	r28, 0x12	; 18
    322a:	8c ad       	ldd	r24, Y+60	; 0x3c
    322c:	9d ad       	ldd	r25, Y+61	; 0x3d
    322e:	ae ad       	ldd	r26, Y+62	; 0x3e
    3230:	bf ad       	ldd	r27, Y+63	; 0x3f
    3232:	62 97       	sbiw	r28, 0x12	; 18
    3234:	2a 96       	adiw	r28, 0x0a	; 10
    3236:	8c af       	std	Y+60, r24	; 0x3c
    3238:	9d af       	std	Y+61, r25	; 0x3d
    323a:	ae af       	std	Y+62, r26	; 0x3e
    323c:	bf af       	std	Y+63, r27	; 0x3f
    323e:	2a 97       	sbiw	r28, 0x0a	; 10

00003240 <.LM173>:
    3240:	2a 96       	adiw	r28, 0x0a	; 10
    3242:	6c ad       	ldd	r22, Y+60	; 0x3c
    3244:	7d ad       	ldd	r23, Y+61	; 0x3d
    3246:	8e ad       	ldd	r24, Y+62	; 0x3e
    3248:	9f ad       	ldd	r25, Y+63	; 0x3f
    324a:	2a 97       	sbiw	r28, 0x0a	; 10
    324c:	0e 94 b4 2f 	call	0x5f68	; 0x5f68 <__fixunssfsi>
    3250:	66 96       	adiw	r28, 0x16	; 22
    3252:	6c af       	std	Y+60, r22	; 0x3c
    3254:	7d af       	std	Y+61, r23	; 0x3d
    3256:	8e af       	std	Y+62, r24	; 0x3e
    3258:	9f af       	std	Y+63, r25	; 0x3f
    325a:	66 97       	sbiw	r28, 0x16	; 22
    325c:	64 96       	adiw	r28, 0x14	; 20
    325e:	ae ad       	ldd	r26, Y+62	; 0x3e
    3260:	bf ad       	ldd	r27, Y+63	; 0x3f
    3262:	64 97       	sbiw	r28, 0x14	; 20
    3264:	bc ab       	std	Y+52, r27	; 0x34
    3266:	ab ab       	std	Y+51, r26	; 0x33

00003268 <.LM174>:
    3268:	10 c0       	rjmp	.+32     	; 0x328a <.L107>

0000326a <.L108>:
    326a:	88 ec       	ldi	r24, 0xC8	; 200
    326c:	90 e0       	ldi	r25, 0x00	; 0
    326e:	9e ab       	std	Y+54, r25	; 0x36
    3270:	8d ab       	std	Y+53, r24	; 0x35

00003272 <.LM175>:
    3272:	8d a9       	ldd	r24, Y+53	; 0x35
    3274:	9e a9       	ldd	r25, Y+54	; 0x36

00003276 <.L1^B17>:
    3276:	01 97       	sbiw	r24, 0x01	; 1
    3278:	f1 f7       	brne	.-4      	; 0x3276 <.L1^B17>
    327a:	9e ab       	std	Y+54, r25	; 0x36
    327c:	8d ab       	std	Y+53, r24	; 0x35

0000327e <.LM176>:
	...

00003280 <.LM177>:
    3280:	8b a9       	ldd	r24, Y+51	; 0x33
    3282:	9c a9       	ldd	r25, Y+52	; 0x34
    3284:	01 97       	sbiw	r24, 0x01	; 1
    3286:	9c ab       	std	Y+52, r25	; 0x34
    3288:	8b ab       	std	Y+51, r24	; 0x33

0000328a <.L107>:
    328a:	8b a9       	ldd	r24, Y+51	; 0x33
    328c:	9c a9       	ldd	r25, Y+52	; 0x34
    328e:	00 97       	sbiw	r24, 0x00	; 0
    3290:	61 f7       	brne	.-40     	; 0x326a <.L108>

00003292 <.LM179>:
    3292:	1d c0       	rjmp	.+58     	; 0x32ce <.L109>

00003294 <.L143>:
    3294:	6f a5       	ldd	r22, Y+47	; 0x2f
    3296:	78 a9       	ldd	r23, Y+48	; 0x30
    3298:	89 a9       	ldd	r24, Y+49	; 0x31
    329a:	9a a9       	ldd	r25, Y+50	; 0x32
    329c:	0e 94 b4 2f 	call	0x5f68	; 0x5f68 <__fixunssfsi>
    32a0:	6a 96       	adiw	r28, 0x1a	; 26
    32a2:	6c af       	std	Y+60, r22	; 0x3c
    32a4:	7d af       	std	Y+61, r23	; 0x3d
    32a6:	8e af       	std	Y+62, r24	; 0x3e
    32a8:	9f af       	std	Y+63, r25	; 0x3f
    32aa:	6a 97       	sbiw	r28, 0x1a	; 26
    32ac:	68 96       	adiw	r28, 0x18	; 24
    32ae:	8e ad       	ldd	r24, Y+62	; 0x3e
    32b0:	9f ad       	ldd	r25, Y+63	; 0x3f
    32b2:	68 97       	sbiw	r28, 0x18	; 24
    32b4:	9c ab       	std	Y+52, r25	; 0x34
    32b6:	8b ab       	std	Y+51, r24	; 0x33

000032b8 <.L104>:
    32b8:	8b a9       	ldd	r24, Y+51	; 0x33
    32ba:	9c a9       	ldd	r25, Y+52	; 0x34
    32bc:	98 af       	std	Y+56, r25	; 0x38
    32be:	8f ab       	std	Y+55, r24	; 0x37

000032c0 <.LM181>:
    32c0:	8f a9       	ldd	r24, Y+55	; 0x37
    32c2:	98 ad       	ldd	r25, Y+56	; 0x38

000032c4 <.L1^B18>:
    32c4:	01 97       	sbiw	r24, 0x01	; 1
    32c6:	f1 f7       	brne	.-4      	; 0x32c4 <.L1^B18>
    32c8:	98 af       	std	Y+56, r25	; 0x38
    32ca:	8f ab       	std	Y+55, r24	; 0x37

000032cc <.LM182>:
	...

000032ce <.L109>:
    32ce:	40 e0       	ldi	r20, 0x00	; 0
    32d0:	62 e0       	ldi	r22, 0x02	; 2
    32d2:	81 e0       	ldi	r24, 0x01	; 1
    32d4:	0e 94 09 03 	call	0x612	; 0x612 <DIO_SetPinValue>
    32d8:	80 e0       	ldi	r24, 0x00	; 0
    32da:	90 e0       	ldi	r25, 0x00	; 0
    32dc:	a0 e8       	ldi	r26, 0x80	; 128
    32de:	bf e3       	ldi	r27, 0x3F	; 63
    32e0:	8d 8f       	std	Y+29, r24	; 0x1d
    32e2:	9e 8f       	std	Y+30, r25	; 0x1e
    32e4:	af 8f       	std	Y+31, r26	; 0x1f
    32e6:	b8 a3       	std	Y+32, r27	; 0x20

000032e8 <.LM184>:
    32e8:	20 e0       	ldi	r18, 0x00	; 0
    32ea:	30 e0       	ldi	r19, 0x00	; 0
    32ec:	4a ef       	ldi	r20, 0xFA	; 250
    32ee:	54 e4       	ldi	r21, 0x44	; 68
    32f0:	6d 8d       	ldd	r22, Y+29	; 0x1d
    32f2:	7e 8d       	ldd	r23, Y+30	; 0x1e
    32f4:	8f 8d       	ldd	r24, Y+31	; 0x1f
    32f6:	98 a1       	ldd	r25, Y+32	; 0x20
    32f8:	0e 94 35 30 	call	0x606a	; 0x606a <__mulsf3>
    32fc:	6e 96       	adiw	r28, 0x1e	; 30
    32fe:	6c af       	std	Y+60, r22	; 0x3c
    3300:	7d af       	std	Y+61, r23	; 0x3d
    3302:	8e af       	std	Y+62, r24	; 0x3e
    3304:	9f af       	std	Y+63, r25	; 0x3f
    3306:	6e 97       	sbiw	r28, 0x1e	; 30
    3308:	6e 96       	adiw	r28, 0x1e	; 30
    330a:	8c ad       	ldd	r24, Y+60	; 0x3c
    330c:	9d ad       	ldd	r25, Y+61	; 0x3d
    330e:	ae ad       	ldd	r26, Y+62	; 0x3e
    3310:	bf ad       	ldd	r27, Y+63	; 0x3f
    3312:	6e 97       	sbiw	r28, 0x1e	; 30
    3314:	89 a3       	std	Y+33, r24	; 0x21
    3316:	9a a3       	std	Y+34, r25	; 0x22
    3318:	ab a3       	std	Y+35, r26	; 0x23
    331a:	bc a3       	std	Y+36, r27	; 0x24

0000331c <.LM185>:
    331c:	20 e0       	ldi	r18, 0x00	; 0
    331e:	30 e0       	ldi	r19, 0x00	; 0
    3320:	40 e8       	ldi	r20, 0x80	; 128
    3322:	5f e3       	ldi	r21, 0x3F	; 63
    3324:	69 a1       	ldd	r22, Y+33	; 0x21
    3326:	7a a1       	ldd	r23, Y+34	; 0x22
    3328:	8b a1       	ldd	r24, Y+35	; 0x23
    332a:	9c a1       	ldd	r25, Y+36	; 0x24
    332c:	0e 94 af 2f 	call	0x5f5e	; 0x5f5e <__cmpsf2>
    3330:	88 23       	and	r24, r24
    3332:	2c f4       	brge	.+10     	; 0x333e <.L144>

00003334 <.LM186>:
    3334:	81 e0       	ldi	r24, 0x01	; 1
    3336:	90 e0       	ldi	r25, 0x00	; 0
    3338:	9e a3       	std	Y+38, r25	; 0x26
    333a:	8d a3       	std	Y+37, r24	; 0x25
    333c:	66 c0       	rjmp	.+204    	; 0x340a <.L112>

0000333e <.L144>:
    333e:	20 e0       	ldi	r18, 0x00	; 0
    3340:	3f ef       	ldi	r19, 0xFF	; 255
    3342:	4f e7       	ldi	r20, 0x7F	; 127
    3344:	57 e4       	ldi	r21, 0x47	; 71
    3346:	69 a1       	ldd	r22, Y+33	; 0x21
    3348:	7a a1       	ldd	r23, Y+34	; 0x22
    334a:	8b a1       	ldd	r24, Y+35	; 0x23
    334c:	9c a1       	ldd	r25, Y+36	; 0x24
    334e:	0e 94 30 30 	call	0x6060	; 0x6060 <__gesf2>
    3352:	88 23       	and	r24, r24
    3354:	09 f0       	breq	.+2      	; 0x3358 <L0^A>

00003356 <L0^A>:
    3356:	0c f4       	brge	.+2      	; 0x335a <.LM188>

00003358 <L0^A>:
    3358:	46 c0       	rjmp	.+140    	; 0x33e6 <.L145>

0000335a <.LM188>:
    335a:	20 e0       	ldi	r18, 0x00	; 0
    335c:	30 e0       	ldi	r19, 0x00	; 0
    335e:	40 e2       	ldi	r20, 0x20	; 32
    3360:	51 e4       	ldi	r21, 0x41	; 65
    3362:	6d 8d       	ldd	r22, Y+29	; 0x1d
    3364:	7e 8d       	ldd	r23, Y+30	; 0x1e
    3366:	8f 8d       	ldd	r24, Y+31	; 0x1f
    3368:	98 a1       	ldd	r25, Y+32	; 0x20
    336a:	0e 94 35 30 	call	0x606a	; 0x606a <__mulsf3>
    336e:	a2 96       	adiw	r28, 0x22	; 34
    3370:	6c af       	std	Y+60, r22	; 0x3c
    3372:	7d af       	std	Y+61, r23	; 0x3d
    3374:	8e af       	std	Y+62, r24	; 0x3e
    3376:	9f af       	std	Y+63, r25	; 0x3f
    3378:	a2 97       	sbiw	r28, 0x22	; 34
    337a:	a2 96       	adiw	r28, 0x22	; 34
    337c:	8c ad       	ldd	r24, Y+60	; 0x3c
    337e:	9d ad       	ldd	r25, Y+61	; 0x3d
    3380:	ae ad       	ldd	r26, Y+62	; 0x3e
    3382:	bf ad       	ldd	r27, Y+63	; 0x3f
    3384:	a2 97       	sbiw	r28, 0x22	; 34
    3386:	26 96       	adiw	r28, 0x06	; 6
    3388:	8c af       	std	Y+60, r24	; 0x3c
    338a:	9d af       	std	Y+61, r25	; 0x3d
    338c:	ae af       	std	Y+62, r26	; 0x3e
    338e:	bf af       	std	Y+63, r27	; 0x3f
    3390:	26 97       	sbiw	r28, 0x06	; 6

00003392 <.LM189>:
    3392:	26 96       	adiw	r28, 0x06	; 6
    3394:	6c ad       	ldd	r22, Y+60	; 0x3c
    3396:	7d ad       	ldd	r23, Y+61	; 0x3d
    3398:	8e ad       	ldd	r24, Y+62	; 0x3e
    339a:	9f ad       	ldd	r25, Y+63	; 0x3f
    339c:	26 97       	sbiw	r28, 0x06	; 6
    339e:	0e 94 b4 2f 	call	0x5f68	; 0x5f68 <__fixunssfsi>
    33a2:	a6 96       	adiw	r28, 0x26	; 38
    33a4:	6c af       	std	Y+60, r22	; 0x3c
    33a6:	7d af       	std	Y+61, r23	; 0x3d
    33a8:	8e af       	std	Y+62, r24	; 0x3e
    33aa:	9f af       	std	Y+63, r25	; 0x3f
    33ac:	a6 97       	sbiw	r28, 0x26	; 38
    33ae:	a4 96       	adiw	r28, 0x24	; 36
    33b0:	ae ad       	ldd	r26, Y+62	; 0x3e
    33b2:	bf ad       	ldd	r27, Y+63	; 0x3f
    33b4:	a4 97       	sbiw	r28, 0x24	; 36
    33b6:	be a3       	std	Y+38, r27	; 0x26
    33b8:	ad a3       	std	Y+37, r26	; 0x25

000033ba <.LM190>:
    33ba:	10 c0       	rjmp	.+32     	; 0x33dc <.L115>

000033bc <.L116>:
    33bc:	88 ec       	ldi	r24, 0xC8	; 200
    33be:	90 e0       	ldi	r25, 0x00	; 0
    33c0:	98 a7       	std	Y+40, r25	; 0x28
    33c2:	8f a3       	std	Y+39, r24	; 0x27

000033c4 <.LM191>:
    33c4:	8f a1       	ldd	r24, Y+39	; 0x27
    33c6:	98 a5       	ldd	r25, Y+40	; 0x28

000033c8 <.L1^B19>:
    33c8:	01 97       	sbiw	r24, 0x01	; 1
    33ca:	f1 f7       	brne	.-4      	; 0x33c8 <.L1^B19>
    33cc:	98 a7       	std	Y+40, r25	; 0x28
    33ce:	8f a3       	std	Y+39, r24	; 0x27

000033d0 <.LM192>:
	...

000033d2 <.LM193>:
    33d2:	8d a1       	ldd	r24, Y+37	; 0x25
    33d4:	9e a1       	ldd	r25, Y+38	; 0x26
    33d6:	01 97       	sbiw	r24, 0x01	; 1
    33d8:	9e a3       	std	Y+38, r25	; 0x26
    33da:	8d a3       	std	Y+37, r24	; 0x25

000033dc <.L115>:
    33dc:	8d a1       	ldd	r24, Y+37	; 0x25
    33de:	9e a1       	ldd	r25, Y+38	; 0x26
    33e0:	00 97       	sbiw	r24, 0x00	; 0
    33e2:	61 f7       	brne	.-40     	; 0x33bc <.L116>

000033e4 <.LM195>:
    33e4:	1d c0       	rjmp	.+58     	; 0x3420 <.L117>

000033e6 <.L145>:
    33e6:	69 a1       	ldd	r22, Y+33	; 0x21
    33e8:	7a a1       	ldd	r23, Y+34	; 0x22
    33ea:	8b a1       	ldd	r24, Y+35	; 0x23
    33ec:	9c a1       	ldd	r25, Y+36	; 0x24
    33ee:	0e 94 b4 2f 	call	0x5f68	; 0x5f68 <__fixunssfsi>
    33f2:	aa 96       	adiw	r28, 0x2a	; 42
    33f4:	6c af       	std	Y+60, r22	; 0x3c
    33f6:	7d af       	std	Y+61, r23	; 0x3d
    33f8:	8e af       	std	Y+62, r24	; 0x3e
    33fa:	9f af       	std	Y+63, r25	; 0x3f
    33fc:	aa 97       	sbiw	r28, 0x2a	; 42
    33fe:	a8 96       	adiw	r28, 0x28	; 40
    3400:	8e ad       	ldd	r24, Y+62	; 0x3e
    3402:	9f ad       	ldd	r25, Y+63	; 0x3f
    3404:	a8 97       	sbiw	r28, 0x28	; 40
    3406:	9e a3       	std	Y+38, r25	; 0x26
    3408:	8d a3       	std	Y+37, r24	; 0x25

0000340a <.L112>:
    340a:	8d a1       	ldd	r24, Y+37	; 0x25
    340c:	9e a1       	ldd	r25, Y+38	; 0x26
    340e:	9a a7       	std	Y+42, r25	; 0x2a
    3410:	89 a7       	std	Y+41, r24	; 0x29

00003412 <.LM197>:
    3412:	89 a5       	ldd	r24, Y+41	; 0x29
    3414:	9a a5       	ldd	r25, Y+42	; 0x2a

00003416 <.L1^B20>:
    3416:	01 97       	sbiw	r24, 0x01	; 1
    3418:	f1 f7       	brne	.-4      	; 0x3416 <.L1^B20>
    341a:	9a a7       	std	Y+42, r25	; 0x2a
    341c:	89 a7       	std	Y+41, r24	; 0x29

0000341e <.LM198>:
	...

00003420 <.L117>:
    3420:	41 e0       	ldi	r20, 0x01	; 1
    3422:	62 e0       	ldi	r22, 0x02	; 2
    3424:	81 e0       	ldi	r24, 0x01	; 1
    3426:	0e 94 09 03 	call	0x612	; 0x612 <DIO_SetPinValue>

0000342a <.LM200>:
    342a:	89 ad       	ldd	r24, Y+57	; 0x39
    342c:	81 70       	andi	r24, 0x01	; 1
    342e:	48 2f       	mov	r20, r24
    3430:	64 e0       	ldi	r22, 0x04	; 4
    3432:	80 e0       	ldi	r24, 0x00	; 0
    3434:	0e 94 09 03 	call	0x612	; 0x612 <DIO_SetPinValue>

00003438 <.LM201>:
    3438:	89 ad       	ldd	r24, Y+57	; 0x39
    343a:	86 95       	lsr	r24

0000343c <.LM202>:
    343c:	81 70       	andi	r24, 0x01	; 1
    343e:	48 2f       	mov	r20, r24
    3440:	65 e0       	ldi	r22, 0x05	; 5
    3442:	80 e0       	ldi	r24, 0x00	; 0
    3444:	0e 94 09 03 	call	0x612	; 0x612 <DIO_SetPinValue>

00003448 <.LM203>:
    3448:	89 ad       	ldd	r24, Y+57	; 0x39
    344a:	86 95       	lsr	r24
    344c:	86 95       	lsr	r24

0000344e <.LM204>:
    344e:	81 70       	andi	r24, 0x01	; 1
    3450:	48 2f       	mov	r20, r24
    3452:	66 e0       	ldi	r22, 0x06	; 6
    3454:	80 e0       	ldi	r24, 0x00	; 0
    3456:	0e 94 09 03 	call	0x612	; 0x612 <DIO_SetPinValue>

0000345a <.LM205>:
    345a:	89 ad       	ldd	r24, Y+57	; 0x39
    345c:	86 95       	lsr	r24
    345e:	86 95       	lsr	r24
    3460:	86 95       	lsr	r24

00003462 <.LM206>:
    3462:	81 70       	andi	r24, 0x01	; 1
    3464:	48 2f       	mov	r20, r24
    3466:	67 e0       	ldi	r22, 0x07	; 7
    3468:	80 e0       	ldi	r24, 0x00	; 0
    346a:	0e 94 09 03 	call	0x612	; 0x612 <DIO_SetPinValue>
    346e:	80 e0       	ldi	r24, 0x00	; 0
    3470:	90 e0       	ldi	r25, 0x00	; 0
    3472:	a0 e8       	ldi	r26, 0x80	; 128
    3474:	bf e3       	ldi	r27, 0x3F	; 63
    3476:	8f 87       	std	Y+15, r24	; 0x0f
    3478:	98 8b       	std	Y+16, r25	; 0x10
    347a:	a9 8b       	std	Y+17, r26	; 0x11
    347c:	ba 8b       	std	Y+18, r27	; 0x12

0000347e <.LM207>:
    347e:	20 e0       	ldi	r18, 0x00	; 0
    3480:	30 e0       	ldi	r19, 0x00	; 0
    3482:	4a ef       	ldi	r20, 0xFA	; 250
    3484:	54 e4       	ldi	r21, 0x44	; 68
    3486:	6f 85       	ldd	r22, Y+15	; 0x0f
    3488:	78 89       	ldd	r23, Y+16	; 0x10
    348a:	89 89       	ldd	r24, Y+17	; 0x11
    348c:	9a 89       	ldd	r25, Y+18	; 0x12
    348e:	0e 94 35 30 	call	0x606a	; 0x606a <__mulsf3>
    3492:	ae 96       	adiw	r28, 0x2e	; 46
    3494:	6c af       	std	Y+60, r22	; 0x3c
    3496:	7d af       	std	Y+61, r23	; 0x3d
    3498:	8e af       	std	Y+62, r24	; 0x3e
    349a:	9f af       	std	Y+63, r25	; 0x3f
    349c:	ae 97       	sbiw	r28, 0x2e	; 46
    349e:	ae 96       	adiw	r28, 0x2e	; 46
    34a0:	8c ad       	ldd	r24, Y+60	; 0x3c
    34a2:	9d ad       	ldd	r25, Y+61	; 0x3d
    34a4:	ae ad       	ldd	r26, Y+62	; 0x3e
    34a6:	bf ad       	ldd	r27, Y+63	; 0x3f
    34a8:	ae 97       	sbiw	r28, 0x2e	; 46
    34aa:	8b 8b       	std	Y+19, r24	; 0x13
    34ac:	9c 8b       	std	Y+20, r25	; 0x14
    34ae:	ad 8b       	std	Y+21, r26	; 0x15
    34b0:	be 8b       	std	Y+22, r27	; 0x16

000034b2 <.LM208>:
    34b2:	20 e0       	ldi	r18, 0x00	; 0
    34b4:	30 e0       	ldi	r19, 0x00	; 0
    34b6:	40 e8       	ldi	r20, 0x80	; 128
    34b8:	5f e3       	ldi	r21, 0x3F	; 63
    34ba:	6b 89       	ldd	r22, Y+19	; 0x13
    34bc:	7c 89       	ldd	r23, Y+20	; 0x14
    34be:	8d 89       	ldd	r24, Y+21	; 0x15
    34c0:	9e 89       	ldd	r25, Y+22	; 0x16
    34c2:	0e 94 af 2f 	call	0x5f5e	; 0x5f5e <__cmpsf2>
    34c6:	88 23       	and	r24, r24
    34c8:	2c f4       	brge	.+10     	; 0x34d4 <.L146>

000034ca <.LM209>:
    34ca:	81 e0       	ldi	r24, 0x01	; 1
    34cc:	90 e0       	ldi	r25, 0x00	; 0
    34ce:	98 8f       	std	Y+24, r25	; 0x18
    34d0:	8f 8b       	std	Y+23, r24	; 0x17
    34d2:	66 c0       	rjmp	.+204    	; 0x35a0 <.L120>

000034d4 <.L146>:
    34d4:	20 e0       	ldi	r18, 0x00	; 0
    34d6:	3f ef       	ldi	r19, 0xFF	; 255
    34d8:	4f e7       	ldi	r20, 0x7F	; 127
    34da:	57 e4       	ldi	r21, 0x47	; 71
    34dc:	6b 89       	ldd	r22, Y+19	; 0x13
    34de:	7c 89       	ldd	r23, Y+20	; 0x14
    34e0:	8d 89       	ldd	r24, Y+21	; 0x15
    34e2:	9e 89       	ldd	r25, Y+22	; 0x16
    34e4:	0e 94 30 30 	call	0x6060	; 0x6060 <__gesf2>
    34e8:	88 23       	and	r24, r24
    34ea:	09 f0       	breq	.+2      	; 0x34ee <L0^A>

000034ec <L0^A>:
    34ec:	0c f4       	brge	.+2      	; 0x34f0 <.LM211>

000034ee <L0^A>:
    34ee:	46 c0       	rjmp	.+140    	; 0x357c <.L147>

000034f0 <.LM211>:
    34f0:	20 e0       	ldi	r18, 0x00	; 0
    34f2:	30 e0       	ldi	r19, 0x00	; 0
    34f4:	40 e2       	ldi	r20, 0x20	; 32
    34f6:	51 e4       	ldi	r21, 0x41	; 65
    34f8:	6f 85       	ldd	r22, Y+15	; 0x0f
    34fa:	78 89       	ldd	r23, Y+16	; 0x10
    34fc:	89 89       	ldd	r24, Y+17	; 0x11
    34fe:	9a 89       	ldd	r25, Y+18	; 0x12
    3500:	0e 94 35 30 	call	0x606a	; 0x606a <__mulsf3>
    3504:	e2 96       	adiw	r28, 0x32	; 50
    3506:	6c af       	std	Y+60, r22	; 0x3c
    3508:	7d af       	std	Y+61, r23	; 0x3d
    350a:	8e af       	std	Y+62, r24	; 0x3e
    350c:	9f af       	std	Y+63, r25	; 0x3f
    350e:	e2 97       	sbiw	r28, 0x32	; 50
    3510:	e2 96       	adiw	r28, 0x32	; 50
    3512:	8c ad       	ldd	r24, Y+60	; 0x3c
    3514:	9d ad       	ldd	r25, Y+61	; 0x3d
    3516:	ae ad       	ldd	r26, Y+62	; 0x3e
    3518:	bf ad       	ldd	r27, Y+63	; 0x3f
    351a:	e2 97       	sbiw	r28, 0x32	; 50
    351c:	22 96       	adiw	r28, 0x02	; 2
    351e:	8c af       	std	Y+60, r24	; 0x3c
    3520:	9d af       	std	Y+61, r25	; 0x3d
    3522:	ae af       	std	Y+62, r26	; 0x3e
    3524:	bf af       	std	Y+63, r27	; 0x3f
    3526:	22 97       	sbiw	r28, 0x02	; 2

00003528 <.LM212>:
    3528:	22 96       	adiw	r28, 0x02	; 2
    352a:	6c ad       	ldd	r22, Y+60	; 0x3c
    352c:	7d ad       	ldd	r23, Y+61	; 0x3d
    352e:	8e ad       	ldd	r24, Y+62	; 0x3e
    3530:	9f ad       	ldd	r25, Y+63	; 0x3f
    3532:	22 97       	sbiw	r28, 0x02	; 2
    3534:	0e 94 b4 2f 	call	0x5f68	; 0x5f68 <__fixunssfsi>
    3538:	e6 96       	adiw	r28, 0x36	; 54
    353a:	6c af       	std	Y+60, r22	; 0x3c
    353c:	7d af       	std	Y+61, r23	; 0x3d
    353e:	8e af       	std	Y+62, r24	; 0x3e
    3540:	9f af       	std	Y+63, r25	; 0x3f
    3542:	e6 97       	sbiw	r28, 0x36	; 54
    3544:	e4 96       	adiw	r28, 0x34	; 52
    3546:	ae ad       	ldd	r26, Y+62	; 0x3e
    3548:	bf ad       	ldd	r27, Y+63	; 0x3f
    354a:	e4 97       	sbiw	r28, 0x34	; 52
    354c:	b8 8f       	std	Y+24, r27	; 0x18
    354e:	af 8b       	std	Y+23, r26	; 0x17

00003550 <.LM213>:
    3550:	10 c0       	rjmp	.+32     	; 0x3572 <.L123>

00003552 <.L124>:
    3552:	88 ec       	ldi	r24, 0xC8	; 200
    3554:	90 e0       	ldi	r25, 0x00	; 0
    3556:	9a 8f       	std	Y+26, r25	; 0x1a
    3558:	89 8f       	std	Y+25, r24	; 0x19

0000355a <.LM214>:
    355a:	89 8d       	ldd	r24, Y+25	; 0x19
    355c:	9a 8d       	ldd	r25, Y+26	; 0x1a

0000355e <.L1^B21>:
    355e:	01 97       	sbiw	r24, 0x01	; 1
    3560:	f1 f7       	brne	.-4      	; 0x355e <.L1^B21>
    3562:	9a 8f       	std	Y+26, r25	; 0x1a
    3564:	89 8f       	std	Y+25, r24	; 0x19

00003566 <.LM215>:
	...

00003568 <.LM216>:
    3568:	8f 89       	ldd	r24, Y+23	; 0x17
    356a:	98 8d       	ldd	r25, Y+24	; 0x18
    356c:	01 97       	sbiw	r24, 0x01	; 1
    356e:	98 8f       	std	Y+24, r25	; 0x18
    3570:	8f 8b       	std	Y+23, r24	; 0x17

00003572 <.L123>:
    3572:	8f 89       	ldd	r24, Y+23	; 0x17
    3574:	98 8d       	ldd	r25, Y+24	; 0x18
    3576:	00 97       	sbiw	r24, 0x00	; 0
    3578:	61 f7       	brne	.-40     	; 0x3552 <.L124>

0000357a <.LM218>:
    357a:	1d c0       	rjmp	.+58     	; 0x35b6 <.L125>

0000357c <.L147>:
    357c:	6b 89       	ldd	r22, Y+19	; 0x13
    357e:	7c 89       	ldd	r23, Y+20	; 0x14
    3580:	8d 89       	ldd	r24, Y+21	; 0x15
    3582:	9e 89       	ldd	r25, Y+22	; 0x16
    3584:	0e 94 b4 2f 	call	0x5f68	; 0x5f68 <__fixunssfsi>
    3588:	ea 96       	adiw	r28, 0x3a	; 58
    358a:	6c af       	std	Y+60, r22	; 0x3c
    358c:	7d af       	std	Y+61, r23	; 0x3d
    358e:	8e af       	std	Y+62, r24	; 0x3e
    3590:	9f af       	std	Y+63, r25	; 0x3f
    3592:	ea 97       	sbiw	r28, 0x3a	; 58
    3594:	e8 96       	adiw	r28, 0x38	; 56
    3596:	8e ad       	ldd	r24, Y+62	; 0x3e
    3598:	9f ad       	ldd	r25, Y+63	; 0x3f
    359a:	e8 97       	sbiw	r28, 0x38	; 56
    359c:	98 8f       	std	Y+24, r25	; 0x18
    359e:	8f 8b       	std	Y+23, r24	; 0x17

000035a0 <.L120>:
    35a0:	8f 89       	ldd	r24, Y+23	; 0x17
    35a2:	98 8d       	ldd	r25, Y+24	; 0x18
    35a4:	9c 8f       	std	Y+28, r25	; 0x1c
    35a6:	8b 8f       	std	Y+27, r24	; 0x1b

000035a8 <.LM220>:
    35a8:	8b 8d       	ldd	r24, Y+27	; 0x1b
    35aa:	9c 8d       	ldd	r25, Y+28	; 0x1c

000035ac <.L1^B22>:
    35ac:	01 97       	sbiw	r24, 0x01	; 1
    35ae:	f1 f7       	brne	.-4      	; 0x35ac <.L1^B22>
    35b0:	9c 8f       	std	Y+28, r25	; 0x1c
    35b2:	8b 8f       	std	Y+27, r24	; 0x1b

000035b4 <.LM221>:
	...

000035b6 <.L125>:
    35b6:	40 e0       	ldi	r20, 0x00	; 0
    35b8:	62 e0       	ldi	r22, 0x02	; 2
    35ba:	81 e0       	ldi	r24, 0x01	; 1
    35bc:	0e 94 09 03 	call	0x612	; 0x612 <DIO_SetPinValue>
    35c0:	80 e0       	ldi	r24, 0x00	; 0
    35c2:	90 e0       	ldi	r25, 0x00	; 0
    35c4:	a0 e0       	ldi	r26, 0x00	; 0
    35c6:	b0 e4       	ldi	r27, 0x40	; 64
    35c8:	89 83       	std	Y+1, r24	; 0x01
    35ca:	9a 83       	std	Y+2, r25	; 0x02
    35cc:	ab 83       	std	Y+3, r26	; 0x03
    35ce:	bc 83       	std	Y+4, r27	; 0x04

000035d0 <.LM223>:
    35d0:	20 e0       	ldi	r18, 0x00	; 0
    35d2:	30 e0       	ldi	r19, 0x00	; 0
    35d4:	4a ef       	ldi	r20, 0xFA	; 250
    35d6:	54 e4       	ldi	r21, 0x44	; 68
    35d8:	69 81       	ldd	r22, Y+1	; 0x01
    35da:	7a 81       	ldd	r23, Y+2	; 0x02
    35dc:	8b 81       	ldd	r24, Y+3	; 0x03
    35de:	9c 81       	ldd	r25, Y+4	; 0x04
    35e0:	0e 94 35 30 	call	0x606a	; 0x606a <__mulsf3>
    35e4:	ee 96       	adiw	r28, 0x3e	; 62
    35e6:	6c af       	std	Y+60, r22	; 0x3c
    35e8:	7d af       	std	Y+61, r23	; 0x3d
    35ea:	8e af       	std	Y+62, r24	; 0x3e
    35ec:	9f af       	std	Y+63, r25	; 0x3f
    35ee:	ee 97       	sbiw	r28, 0x3e	; 62
    35f0:	ee 96       	adiw	r28, 0x3e	; 62
    35f2:	8c ad       	ldd	r24, Y+60	; 0x3c
    35f4:	9d ad       	ldd	r25, Y+61	; 0x3d
    35f6:	ae ad       	ldd	r26, Y+62	; 0x3e
    35f8:	bf ad       	ldd	r27, Y+63	; 0x3f
    35fa:	ee 97       	sbiw	r28, 0x3e	; 62
    35fc:	8d 83       	std	Y+5, r24	; 0x05
    35fe:	9e 83       	std	Y+6, r25	; 0x06
    3600:	af 83       	std	Y+7, r26	; 0x07
    3602:	b8 87       	std	Y+8, r27	; 0x08

00003604 <.LM224>:
    3604:	20 e0       	ldi	r18, 0x00	; 0
    3606:	30 e0       	ldi	r19, 0x00	; 0
    3608:	40 e8       	ldi	r20, 0x80	; 128
    360a:	5f e3       	ldi	r21, 0x3F	; 63
    360c:	6d 81       	ldd	r22, Y+5	; 0x05
    360e:	7e 81       	ldd	r23, Y+6	; 0x06
    3610:	8f 81       	ldd	r24, Y+7	; 0x07
    3612:	98 85       	ldd	r25, Y+8	; 0x08
    3614:	0e 94 af 2f 	call	0x5f5e	; 0x5f5e <__cmpsf2>
    3618:	88 23       	and	r24, r24
    361a:	2c f4       	brge	.+10     	; 0x3626 <.L148>

0000361c <.LM225>:
    361c:	81 e0       	ldi	r24, 0x01	; 1
    361e:	90 e0       	ldi	r25, 0x00	; 0
    3620:	9a 87       	std	Y+10, r25	; 0x0a
    3622:	89 87       	std	Y+9, r24	; 0x09
    3624:	6e c0       	rjmp	.+220    	; 0x3702 <.L128>

00003626 <.L148>:
    3626:	20 e0       	ldi	r18, 0x00	; 0
    3628:	3f ef       	ldi	r19, 0xFF	; 255
    362a:	4f e7       	ldi	r20, 0x7F	; 127
    362c:	57 e4       	ldi	r21, 0x47	; 71
    362e:	6d 81       	ldd	r22, Y+5	; 0x05
    3630:	7e 81       	ldd	r23, Y+6	; 0x06
    3632:	8f 81       	ldd	r24, Y+7	; 0x07
    3634:	98 85       	ldd	r25, Y+8	; 0x08
    3636:	0e 94 30 30 	call	0x6060	; 0x6060 <__gesf2>
    363a:	88 23       	and	r24, r24
    363c:	09 f0       	breq	.+2      	; 0x3640 <L0^A>

0000363e <L0^A>:
    363e:	0c f4       	brge	.+2      	; 0x3642 <.LM227>

00003640 <L0^A>:
    3640:	4a c0       	rjmp	.+148    	; 0x36d6 <.L149>

00003642 <.LM227>:
    3642:	20 e0       	ldi	r18, 0x00	; 0
    3644:	30 e0       	ldi	r19, 0x00	; 0
    3646:	40 e2       	ldi	r20, 0x20	; 32
    3648:	51 e4       	ldi	r21, 0x41	; 65
    364a:	69 81       	ldd	r22, Y+1	; 0x01
    364c:	7a 81       	ldd	r23, Y+2	; 0x02
    364e:	8b 81       	ldd	r24, Y+3	; 0x03
    3650:	9c 81       	ldd	r25, Y+4	; 0x04
    3652:	0e 94 35 30 	call	0x606a	; 0x606a <__mulsf3>
    3656:	c2 58       	subi	r28, 0x82	; 130
    3658:	df 4f       	sbci	r29, 0xFF	; 255
    365a:	68 83       	st	Y, r22
    365c:	79 83       	std	Y+1, r23	; 0x01
    365e:	8a 83       	std	Y+2, r24	; 0x02
    3660:	9b 83       	std	Y+3, r25	; 0x03
    3662:	ce 57       	subi	r28, 0x7E	; 126
    3664:	d0 40       	sbci	r29, 0x00	; 0
    3666:	c2 58       	subi	r28, 0x82	; 130
    3668:	df 4f       	sbci	r29, 0xFF	; 255
    366a:	88 81       	ld	r24, Y
    366c:	99 81       	ldd	r25, Y+1	; 0x01
    366e:	aa 81       	ldd	r26, Y+2	; 0x02
    3670:	bb 81       	ldd	r27, Y+3	; 0x03
    3672:	ce 57       	subi	r28, 0x7E	; 126
    3674:	d0 40       	sbci	r29, 0x00	; 0
    3676:	8a af       	std	Y+58, r24	; 0x3a
    3678:	9b af       	std	Y+59, r25	; 0x3b
    367a:	ac af       	std	Y+60, r26	; 0x3c
    367c:	bd af       	std	Y+61, r27	; 0x3d

0000367e <.LM228>:
    367e:	6a ad       	ldd	r22, Y+58	; 0x3a
    3680:	7b ad       	ldd	r23, Y+59	; 0x3b
    3682:	8c ad       	ldd	r24, Y+60	; 0x3c
    3684:	9d ad       	ldd	r25, Y+61	; 0x3d
    3686:	0e 94 b4 2f 	call	0x5f68	; 0x5f68 <__fixunssfsi>
    368a:	ce 57       	subi	r28, 0x7E	; 126
    368c:	df 4f       	sbci	r29, 0xFF	; 255
    368e:	68 83       	st	Y, r22
    3690:	79 83       	std	Y+1, r23	; 0x01
    3692:	8a 83       	std	Y+2, r24	; 0x02
    3694:	9b 83       	std	Y+3, r25	; 0x03
    3696:	c2 58       	subi	r28, 0x82	; 130
    3698:	d0 40       	sbci	r29, 0x00	; 0
    369a:	ce 57       	subi	r28, 0x7E	; 126
    369c:	df 4f       	sbci	r29, 0xFF	; 255
    369e:	a8 81       	ld	r26, Y
    36a0:	b9 81       	ldd	r27, Y+1	; 0x01
    36a2:	c2 58       	subi	r28, 0x82	; 130
    36a4:	d0 40       	sbci	r29, 0x00	; 0
    36a6:	ba 87       	std	Y+10, r27	; 0x0a
    36a8:	a9 87       	std	Y+9, r26	; 0x09

000036aa <.LM229>:
    36aa:	10 c0       	rjmp	.+32     	; 0x36cc <.L131>

000036ac <.L132>:
    36ac:	88 ec       	ldi	r24, 0xC8	; 200
    36ae:	90 e0       	ldi	r25, 0x00	; 0
    36b0:	9c 87       	std	Y+12, r25	; 0x0c
    36b2:	8b 87       	std	Y+11, r24	; 0x0b

000036b4 <.LM230>:
    36b4:	8b 85       	ldd	r24, Y+11	; 0x0b
    36b6:	9c 85       	ldd	r25, Y+12	; 0x0c

000036b8 <.L1^B23>:
    36b8:	01 97       	sbiw	r24, 0x01	; 1
    36ba:	f1 f7       	brne	.-4      	; 0x36b8 <.L1^B23>
    36bc:	9c 87       	std	Y+12, r25	; 0x0c
    36be:	8b 87       	std	Y+11, r24	; 0x0b

000036c0 <.LM231>:
	...

000036c2 <.LM232>:
    36c2:	89 85       	ldd	r24, Y+9	; 0x09
    36c4:	9a 85       	ldd	r25, Y+10	; 0x0a
    36c6:	01 97       	sbiw	r24, 0x01	; 1
    36c8:	9a 87       	std	Y+10, r25	; 0x0a
    36ca:	89 87       	std	Y+9, r24	; 0x09

000036cc <.L131>:
    36cc:	89 85       	ldd	r24, Y+9	; 0x09
    36ce:	9a 85       	ldd	r25, Y+10	; 0x0a
    36d0:	00 97       	sbiw	r24, 0x00	; 0
    36d2:	61 f7       	brne	.-40     	; 0x36ac <.L132>

000036d4 <.LM234>:
    36d4:	21 c0       	rjmp	.+66     	; 0x3718 <.L133>

000036d6 <.L149>:
    36d6:	6d 81       	ldd	r22, Y+5	; 0x05
    36d8:	7e 81       	ldd	r23, Y+6	; 0x06
    36da:	8f 81       	ldd	r24, Y+7	; 0x07
    36dc:	98 85       	ldd	r25, Y+8	; 0x08
    36de:	0e 94 b4 2f 	call	0x5f68	; 0x5f68 <__fixunssfsi>
    36e2:	ca 57       	subi	r28, 0x7A	; 122
    36e4:	df 4f       	sbci	r29, 0xFF	; 255
    36e6:	68 83       	st	Y, r22
    36e8:	79 83       	std	Y+1, r23	; 0x01
    36ea:	8a 83       	std	Y+2, r24	; 0x02
    36ec:	9b 83       	std	Y+3, r25	; 0x03
    36ee:	c6 58       	subi	r28, 0x86	; 134
    36f0:	d0 40       	sbci	r29, 0x00	; 0
    36f2:	ca 57       	subi	r28, 0x7A	; 122
    36f4:	df 4f       	sbci	r29, 0xFF	; 255
    36f6:	88 81       	ld	r24, Y
    36f8:	99 81       	ldd	r25, Y+1	; 0x01
    36fa:	c6 58       	subi	r28, 0x86	; 134
    36fc:	d0 40       	sbci	r29, 0x00	; 0
    36fe:	9a 87       	std	Y+10, r25	; 0x0a
    3700:	89 87       	std	Y+9, r24	; 0x09

00003702 <.L128>:
    3702:	89 85       	ldd	r24, Y+9	; 0x09
    3704:	9a 85       	ldd	r25, Y+10	; 0x0a
    3706:	9e 87       	std	Y+14, r25	; 0x0e
    3708:	8d 87       	std	Y+13, r24	; 0x0d

0000370a <.LM236>:
    370a:	8d 85       	ldd	r24, Y+13	; 0x0d
    370c:	9e 85       	ldd	r25, Y+14	; 0x0e

0000370e <.L1^B24>:
    370e:	01 97       	sbiw	r24, 0x01	; 1
    3710:	f1 f7       	brne	.-4      	; 0x370e <.L1^B24>
    3712:	9e 87       	std	Y+14, r25	; 0x0e
    3714:	8d 87       	std	Y+13, r24	; 0x0d

00003716 <.LM237>:
	...

00003718 <.L133>:
    3718:	00 00       	nop
    371a:	c7 57       	subi	r28, 0x77	; 119
    371c:	df 4f       	sbci	r29, 0xFF	; 255
    371e:	0f b6       	in	r0, 0x3f	; 63
    3720:	f8 94       	cli
    3722:	de bf       	out	0x3e, r29	; 62
    3724:	0f be       	out	0x3f, r0	; 63
    3726:	cd bf       	out	0x3d, r28	; 61
    3728:	df 91       	pop	r29
    372a:	cf 91       	pop	r28
    372c:	08 95       	ret

0000372e <LCD_WriteString>:
    372e:	cf 93       	push	r28
    3730:	df 93       	push	r29
    3732:	00 d0       	rcall	.+0      	; 0x3734 <L0^A>

00003734 <L0^A>:
    3734:	0f 92       	push	r0
    3736:	cd b7       	in	r28, 0x3d	; 61
    3738:	de b7       	in	r29, 0x3e	; 62
    373a:	9b 83       	std	Y+3, r25	; 0x03
    373c:	8a 83       	std	Y+2, r24	; 0x02

0000373e <.LM240>:
    373e:	19 82       	std	Y+1, r1	; 0x01

00003740 <.LM241>:
    3740:	0e c0       	rjmp	.+28     	; 0x375e <.L151>

00003742 <.L152>:
    3742:	89 81       	ldd	r24, Y+1	; 0x01
    3744:	88 2f       	mov	r24, r24
    3746:	90 e0       	ldi	r25, 0x00	; 0
    3748:	2a 81       	ldd	r18, Y+2	; 0x02
    374a:	3b 81       	ldd	r19, Y+3	; 0x03
    374c:	82 0f       	add	r24, r18
    374e:	93 1f       	adc	r25, r19

00003750 <.LM243>:
    3750:	fc 01       	movw	r30, r24
    3752:	80 81       	ld	r24, Z
    3754:	0e 94 81 18 	call	0x3102	; 0x3102 <LCD_WriteData>

00003758 <.LM244>:
    3758:	89 81       	ldd	r24, Y+1	; 0x01
    375a:	8f 5f       	subi	r24, 0xFF	; 255
    375c:	89 83       	std	Y+1, r24	; 0x01

0000375e <.L151>:
    375e:	89 81       	ldd	r24, Y+1	; 0x01
    3760:	88 2f       	mov	r24, r24
    3762:	90 e0       	ldi	r25, 0x00	; 0
    3764:	2a 81       	ldd	r18, Y+2	; 0x02
    3766:	3b 81       	ldd	r19, Y+3	; 0x03
    3768:	82 0f       	add	r24, r18
    376a:	93 1f       	adc	r25, r19
    376c:	fc 01       	movw	r30, r24
    376e:	80 81       	ld	r24, Z

00003770 <.LM246>:
    3770:	88 23       	and	r24, r24
    3772:	39 f7       	brne	.-50     	; 0x3742 <.L152>

00003774 <.LM247>:
    3774:	00 00       	nop
    3776:	00 00       	nop
    3778:	0f 90       	pop	r0
    377a:	0f 90       	pop	r0
    377c:	0f 90       	pop	r0
    377e:	df 91       	pop	r29
    3780:	cf 91       	pop	r28
    3782:	08 95       	ret

00003784 <LCD_GoToXY>:
    3784:	cf 93       	push	r28
    3786:	df 93       	push	r29
    3788:	00 d0       	rcall	.+0      	; 0x378a <L0^A>

0000378a <L0^A>:
    378a:	0f 92       	push	r0
    378c:	cd b7       	in	r28, 0x3d	; 61
    378e:	de b7       	in	r29, 0x3e	; 62
    3790:	8a 83       	std	Y+2, r24	; 0x02
    3792:	6b 83       	std	Y+3, r22	; 0x03

00003794 <.LM249>:
    3794:	8a 81       	ldd	r24, Y+2	; 0x02
    3796:	88 23       	and	r24, r24
    3798:	19 f4       	brne	.+6      	; 0x37a0 <.L154>

0000379a <.LM250>:
    379a:	8b 81       	ldd	r24, Y+3	; 0x03
    379c:	89 83       	std	Y+1, r24	; 0x01
    379e:	06 c0       	rjmp	.+12     	; 0x37ac <.L155>

000037a0 <.L154>:
    37a0:	8a 81       	ldd	r24, Y+2	; 0x02
    37a2:	81 30       	cpi	r24, 0x01	; 1
    37a4:	19 f4       	brne	.+6      	; 0x37ac <.L155>

000037a6 <.LM252>:
    37a6:	8b 81       	ldd	r24, Y+3	; 0x03
    37a8:	80 5c       	subi	r24, 0xC0	; 192
    37aa:	89 83       	std	Y+1, r24	; 0x01

000037ac <.L155>:
    37ac:	89 81       	ldd	r24, Y+1	; 0x01
    37ae:	80 58       	subi	r24, 0x80	; 128
    37b0:	0e 94 66 15 	call	0x2acc	; 0x2acc <LCD_WriteCommand>

000037b4 <.LM254>:
    37b4:	00 00       	nop
    37b6:	0f 90       	pop	r0
    37b8:	0f 90       	pop	r0
    37ba:	0f 90       	pop	r0
    37bc:	df 91       	pop	r29
    37be:	cf 91       	pop	r28
    37c0:	08 95       	ret

000037c2 <LCD_WriteDigits>:
    37c2:	0f 93       	push	r16
    37c4:	1f 93       	push	r17
    37c6:	cf 93       	push	r28
    37c8:	df 93       	push	r29
    37ca:	cd b7       	in	r28, 0x3d	; 61
    37cc:	de b7       	in	r29, 0x3e	; 62
    37ce:	a3 97       	sbiw	r28, 0x23	; 35
    37d0:	0f b6       	in	r0, 0x3f	; 63
    37d2:	f8 94       	cli
    37d4:	de bf       	out	0x3e, r29	; 62
    37d6:	0f be       	out	0x3f, r0	; 63
    37d8:	cd bf       	out	0x3d, r28	; 61
    37da:	68 8b       	std	Y+16, r22	; 0x10
    37dc:	79 8b       	std	Y+17, r23	; 0x11
    37de:	8a 8b       	std	Y+18, r24	; 0x12
    37e0:	9b 8b       	std	Y+19, r25	; 0x13

000037e2 <.LM256>:
    37e2:	1f 82       	std	Y+7, r1	; 0x07
    37e4:	1e 82       	std	Y+6, r1	; 0x06
    37e6:	28 e0       	ldi	r18, 0x08	; 8
    37e8:	ce 01       	movw	r24, r28
    37ea:	08 96       	adiw	r24, 0x08	; 8
    37ec:	dc 01       	movw	r26, r24
    37ee:	e2 2f       	mov	r30, r18

000037f0 <.L0^B1>:
    37f0:	1d 92       	st	X+, r1
    37f2:	ea 95       	dec	r30
    37f4:	e9 f7       	brne	.-6      	; 0x37f0 <.L0^B1>

000037f6 <.LM257>:
    37f6:	19 82       	std	Y+1, r1	; 0x01

000037f8 <.LM258>:
    37f8:	88 89       	ldd	r24, Y+16	; 0x10
    37fa:	99 89       	ldd	r25, Y+17	; 0x11
    37fc:	aa 89       	ldd	r26, Y+18	; 0x12
    37fe:	bb 89       	ldd	r27, Y+19	; 0x13
    3800:	00 97       	sbiw	r24, 0x00	; 0
    3802:	a1 05       	cpc	r26, r1
    3804:	b1 05       	cpc	r27, r1
    3806:	21 f4       	brne	.+8      	; 0x3810 <.L157>

00003808 <.LM259>:
    3808:	80 e3       	ldi	r24, 0x30	; 48
    380a:	0e 94 81 18 	call	0x3102	; 0x3102 <LCD_WriteData>

0000380e <.LM260>:
    380e:	96 c0       	rjmp	.+300    	; 0x393c <.L164>

00003810 <.L157>:
    3810:	88 89       	ldd	r24, Y+16	; 0x10
    3812:	99 89       	ldd	r25, Y+17	; 0x11
    3814:	aa 89       	ldd	r26, Y+18	; 0x12
    3816:	bb 89       	ldd	r27, Y+19	; 0x13
    3818:	00 97       	sbiw	r24, 0x00	; 0
    381a:	a1 05       	cpc	r26, r1
    381c:	b1 05       	cpc	r27, r1
    381e:	09 f0       	breq	.+2      	; 0x3822 <L0^A>

00003820 <L0^A>:
    3820:	0c f4       	brge	.+2      	; 0x3824 <.LM262>

00003822 <L0^A>:
    3822:	6e c0       	rjmp	.+220    	; 0x3900 <.L159>

00003824 <.LM262>:
    3824:	48 c0       	rjmp	.+144    	; 0x38b6 <.L160>

00003826 <.L161>:
    3826:	28 89       	ldd	r18, Y+16	; 0x10
    3828:	39 89       	ldd	r19, Y+17	; 0x11
    382a:	4a 89       	ldd	r20, Y+18	; 0x12
    382c:	5b 89       	ldd	r21, Y+19	; 0x13
    382e:	28 8f       	std	Y+24, r18	; 0x18
    3830:	39 8f       	std	Y+25, r19	; 0x19
    3832:	4a 8f       	std	Y+26, r20	; 0x1a
    3834:	5b 8f       	std	Y+27, r21	; 0x1b
    3836:	0a e0       	ldi	r16, 0x0A	; 10
    3838:	10 e0       	ldi	r17, 0x00	; 0
    383a:	20 e0       	ldi	r18, 0x00	; 0
    383c:	30 e0       	ldi	r19, 0x00	; 0
    383e:	68 8d       	ldd	r22, Y+24	; 0x18
    3840:	79 8d       	ldd	r23, Y+25	; 0x19
    3842:	8a 8d       	ldd	r24, Y+26	; 0x1a
    3844:	9b 8d       	ldd	r25, Y+27	; 0x1b
    3846:	a9 01       	movw	r20, r18
    3848:	98 01       	movw	r18, r16
    384a:	0e 94 68 2f 	call	0x5ed0	; 0x5ed0 <__divmodsi4>
    384e:	6c 8f       	std	Y+28, r22	; 0x1c
    3850:	7d 8f       	std	Y+29, r23	; 0x1d
    3852:	8e 8f       	std	Y+30, r24	; 0x1e
    3854:	9f 8f       	std	Y+31, r25	; 0x1f
    3856:	8c 8d       	ldd	r24, Y+28	; 0x1c
    3858:	9d 8d       	ldd	r25, Y+29	; 0x1d
    385a:	ae 8d       	ldd	r26, Y+30	; 0x1e
    385c:	bf 8d       	ldd	r27, Y+31	; 0x1f

0000385e <.LM264>:
    385e:	8a 83       	std	Y+2, r24	; 0x02
    3860:	9b 83       	std	Y+3, r25	; 0x03
    3862:	ac 83       	std	Y+4, r26	; 0x04
    3864:	bd 83       	std	Y+5, r27	; 0x05

00003866 <.LM265>:
    3866:	89 81       	ldd	r24, Y+1	; 0x01
    3868:	88 2f       	mov	r24, r24
    386a:	90 e0       	ldi	r25, 0x00	; 0

0000386c <.LM266>:
    386c:	4a 81       	ldd	r20, Y+2	; 0x02
    386e:	9e 01       	movw	r18, r28
    3870:	2a 5f       	subi	r18, 0xFA	; 250
    3872:	3f 4f       	sbci	r19, 0xFF	; 255
    3874:	82 0f       	add	r24, r18
    3876:	93 1f       	adc	r25, r19
    3878:	dc 01       	movw	r26, r24
    387a:	4c 93       	st	X, r20

0000387c <.LM267>:
    387c:	28 89       	ldd	r18, Y+16	; 0x10
    387e:	39 89       	ldd	r19, Y+17	; 0x11
    3880:	4a 89       	ldd	r20, Y+18	; 0x12
    3882:	5b 89       	ldd	r21, Y+19	; 0x13
    3884:	28 a3       	std	Y+32, r18	; 0x20
    3886:	39 a3       	std	Y+33, r19	; 0x21
    3888:	4a a3       	std	Y+34, r20	; 0x22
    388a:	5b a3       	std	Y+35, r21	; 0x23
    388c:	0a e0       	ldi	r16, 0x0A	; 10
    388e:	10 e0       	ldi	r17, 0x00	; 0
    3890:	20 e0       	ldi	r18, 0x00	; 0
    3892:	30 e0       	ldi	r19, 0x00	; 0
    3894:	68 a1       	ldd	r22, Y+32	; 0x20
    3896:	79 a1       	ldd	r23, Y+33	; 0x21
    3898:	8a a1       	ldd	r24, Y+34	; 0x22
    389a:	9b a1       	ldd	r25, Y+35	; 0x23
    389c:	a9 01       	movw	r20, r18
    389e:	98 01       	movw	r18, r16
    38a0:	0e 94 68 2f 	call	0x5ed0	; 0x5ed0 <__divmodsi4>
    38a4:	da 01       	movw	r26, r20
    38a6:	c9 01       	movw	r24, r18
    38a8:	88 8b       	std	Y+16, r24	; 0x10
    38aa:	99 8b       	std	Y+17, r25	; 0x11
    38ac:	aa 8b       	std	Y+18, r26	; 0x12
    38ae:	bb 8b       	std	Y+19, r27	; 0x13

000038b0 <.LM268>:
    38b0:	89 81       	ldd	r24, Y+1	; 0x01
    38b2:	8f 5f       	subi	r24, 0xFF	; 255
    38b4:	89 83       	std	Y+1, r24	; 0x01

000038b6 <.L160>:
    38b6:	88 89       	ldd	r24, Y+16	; 0x10
    38b8:	99 89       	ldd	r25, Y+17	; 0x11
    38ba:	aa 89       	ldd	r26, Y+18	; 0x12
    38bc:	bb 89       	ldd	r27, Y+19	; 0x13
    38be:	00 97       	sbiw	r24, 0x00	; 0
    38c0:	a1 05       	cpc	r26, r1
    38c2:	b1 05       	cpc	r27, r1
    38c4:	09 f0       	breq	.+2      	; 0x38c8 <.LM270>

000038c6 <L0^A>:
    38c6:	af cf       	rjmp	.-162    	; 0x3826 <.L161>

000038c8 <.LM270>:
    38c8:	89 81       	ldd	r24, Y+1	; 0x01
    38ca:	81 50       	subi	r24, 0x01	; 1
    38cc:	89 83       	std	Y+1, r24	; 0x01

000038ce <.LM271>:
    38ce:	10 c0       	rjmp	.+32     	; 0x38f0 <.L162>

000038d0 <.L163>:
    38d0:	89 81       	ldd	r24, Y+1	; 0x01
    38d2:	88 2f       	mov	r24, r24
    38d4:	90 e0       	ldi	r25, 0x00	; 0
    38d6:	9e 01       	movw	r18, r28
    38d8:	2a 5f       	subi	r18, 0xFA	; 250
    38da:	3f 4f       	sbci	r19, 0xFF	; 255
    38dc:	82 0f       	add	r24, r18
    38de:	93 1f       	adc	r25, r19
    38e0:	dc 01       	movw	r26, r24
    38e2:	8c 91       	ld	r24, X

000038e4 <.LM273>:
    38e4:	80 5d       	subi	r24, 0xD0	; 208
    38e6:	0e 94 81 18 	call	0x3102	; 0x3102 <LCD_WriteData>

000038ea <.LM274>:
    38ea:	89 81       	ldd	r24, Y+1	; 0x01
    38ec:	81 50       	subi	r24, 0x01	; 1
    38ee:	89 83       	std	Y+1, r24	; 0x01

000038f0 <.L162>:
    38f0:	89 81       	ldd	r24, Y+1	; 0x01
    38f2:	88 23       	and	r24, r24
    38f4:	69 f7       	brne	.-38     	; 0x38d0 <.L163>

000038f6 <.LM276>:
    38f6:	8e 81       	ldd	r24, Y+6	; 0x06

000038f8 <.LM277>:
    38f8:	80 5d       	subi	r24, 0xD0	; 208
    38fa:	0e 94 81 18 	call	0x3102	; 0x3102 <LCD_WriteData>

000038fe <.LM278>:
    38fe:	1e c0       	rjmp	.+60     	; 0x393c <.L164>

00003900 <.L159>:
    3900:	88 89       	ldd	r24, Y+16	; 0x10
    3902:	99 89       	ldd	r25, Y+17	; 0x11
    3904:	aa 89       	ldd	r26, Y+18	; 0x12
    3906:	bb 89       	ldd	r27, Y+19	; 0x13
    3908:	bb 23       	and	r27, r27
    390a:	c4 f4       	brge	.+48     	; 0x393c <.L164>

0000390c <.LM280>:
    390c:	8d e2       	ldi	r24, 0x2D	; 45
    390e:	0e 94 81 18 	call	0x3102	; 0x3102 <LCD_WriteData>

00003912 <.LM281>:
    3912:	88 89       	ldd	r24, Y+16	; 0x10
    3914:	99 89       	ldd	r25, Y+17	; 0x11
    3916:	aa 89       	ldd	r26, Y+18	; 0x12
    3918:	bb 89       	ldd	r27, Y+19	; 0x13
    391a:	22 27       	eor	r18, r18
    391c:	33 27       	eor	r19, r19
    391e:	a9 01       	movw	r20, r18
    3920:	28 1b       	sub	r18, r24
    3922:	39 0b       	sbc	r19, r25
    3924:	4a 0b       	sbc	r20, r26
    3926:	5b 0b       	sbc	r21, r27
    3928:	2c 8b       	std	Y+20, r18	; 0x14
    392a:	3d 8b       	std	Y+21, r19	; 0x15
    392c:	4e 8b       	std	Y+22, r20	; 0x16
    392e:	5f 8b       	std	Y+23, r21	; 0x17
    3930:	6c 89       	ldd	r22, Y+20	; 0x14
    3932:	7d 89       	ldd	r23, Y+21	; 0x15
    3934:	8e 89       	ldd	r24, Y+22	; 0x16
    3936:	9f 89       	ldd	r25, Y+23	; 0x17
    3938:	0e 94 e1 1b 	call	0x37c2	; 0x37c2 <LCD_WriteDigits>

0000393c <.L164>:
    393c:	00 00       	nop
    393e:	a3 96       	adiw	r28, 0x23	; 35
    3940:	0f b6       	in	r0, 0x3f	; 63
    3942:	f8 94       	cli
    3944:	de bf       	out	0x3e, r29	; 62
    3946:	0f be       	out	0x3f, r0	; 63
    3948:	cd bf       	out	0x3d, r28	; 61
    394a:	df 91       	pop	r29
    394c:	cf 91       	pop	r28
    394e:	1f 91       	pop	r17
    3950:	0f 91       	pop	r16
    3952:	08 95       	ret

00003954 <LCD_WriteSpecial>:
    3954:	cf 93       	push	r28
    3956:	df 93       	push	r29
    3958:	00 d0       	rcall	.+0      	; 0x395a <L0^A>

0000395a <L0^A>:
    395a:	00 d0       	rcall	.+0      	; 0x395c <L0^A>

0000395c <L0^A>:
    395c:	00 d0       	rcall	.+0      	; 0x395e <L0^A>

0000395e <L0^A>:
    395e:	0f 92       	push	r0
    3960:	cd b7       	in	r28, 0x3d	; 61
    3962:	de b7       	in	r29, 0x3e	; 62
    3964:	9c 83       	std	Y+4, r25	; 0x04
    3966:	8b 83       	std	Y+3, r24	; 0x03
    3968:	6d 83       	std	Y+5, r22	; 0x05
    396a:	4e 83       	std	Y+6, r20	; 0x06
    396c:	2f 83       	std	Y+7, r18	; 0x07

0000396e <.LM284>:
    396e:	6f 81       	ldd	r22, Y+7	; 0x07
    3970:	8e 81       	ldd	r24, Y+6	; 0x06
    3972:	0e 94 c2 1b 	call	0x3784	; 0x3784 <LCD_GoToXY>

00003976 <.LM285>:
    3976:	8d 81       	ldd	r24, Y+5	; 0x05
    3978:	0e 94 81 18 	call	0x3102	; 0x3102 <LCD_WriteData>

0000397c <.LM286>:
    397c:	8d 81       	ldd	r24, Y+5	; 0x05
    397e:	88 0f       	add	r24, r24
    3980:	88 0f       	add	r24, r24
    3982:	88 0f       	add	r24, r24
    3984:	8a 83       	std	Y+2, r24	; 0x02

00003986 <.LM287>:
    3986:	8a 81       	ldd	r24, Y+2	; 0x02
    3988:	80 64       	ori	r24, 0x40	; 64
    398a:	8a 83       	std	Y+2, r24	; 0x02

0000398c <.LM288>:
    398c:	8a 81       	ldd	r24, Y+2	; 0x02
    398e:	0e 94 66 15 	call	0x2acc	; 0x2acc <LCD_WriteCommand>

00003992 <.LBB150>:
    3992:	19 82       	std	Y+1, r1	; 0x01

00003994 <.LM290>:
    3994:	0e c0       	rjmp	.+28     	; 0x39b2 <.L166>

00003996 <.L167>:
    3996:	89 81       	ldd	r24, Y+1	; 0x01
    3998:	88 2f       	mov	r24, r24
    399a:	90 e0       	ldi	r25, 0x00	; 0
    399c:	2b 81       	ldd	r18, Y+3	; 0x03
    399e:	3c 81       	ldd	r19, Y+4	; 0x04
    39a0:	82 0f       	add	r24, r18
    39a2:	93 1f       	adc	r25, r19

000039a4 <.LM292>:
    39a4:	fc 01       	movw	r30, r24
    39a6:	80 81       	ld	r24, Z
    39a8:	0e 94 81 18 	call	0x3102	; 0x3102 <LCD_WriteData>

000039ac <.LM293>:
    39ac:	89 81       	ldd	r24, Y+1	; 0x01
    39ae:	8f 5f       	subi	r24, 0xFF	; 255
    39b0:	89 83       	std	Y+1, r24	; 0x01

000039b2 <.L166>:
    39b2:	89 81       	ldd	r24, Y+1	; 0x01
    39b4:	87 30       	cpi	r24, 0x07	; 7
    39b6:	79 f3       	breq	.-34     	; 0x3996 <.L167>
    39b8:	70 f3       	brcs	.-36     	; 0x3996 <.L167>

000039ba <.LBE150>:
    39ba:	82 e0       	ldi	r24, 0x02	; 2
    39bc:	0e 94 66 15 	call	0x2acc	; 0x2acc <LCD_WriteCommand>

000039c0 <.LM296>:
    39c0:	00 00       	nop
    39c2:	27 96       	adiw	r28, 0x07	; 7
    39c4:	0f b6       	in	r0, 0x3f	; 63
    39c6:	f8 94       	cli
    39c8:	de bf       	out	0x3e, r29	; 62
    39ca:	0f be       	out	0x3f, r0	; 63
    39cc:	cd bf       	out	0x3d, r28	; 61
    39ce:	df 91       	pop	r29
    39d0:	cf 91       	pop	r28
    39d2:	08 95       	ret

000039d4 <KPD_GetPressedKey>:
    39d4:	cf 93       	push	r28
    39d6:	df 93       	push	r29
    39d8:	cd b7       	in	r28, 0x3d	; 61
    39da:	de b7       	in	r29, 0x3e	; 62
    39dc:	6c 97       	sbiw	r28, 0x1c	; 28
    39de:	0f b6       	in	r0, 0x3f	; 63
    39e0:	f8 94       	cli
    39e2:	de bf       	out	0x3e, r29	; 62
    39e4:	0f be       	out	0x3f, r0	; 63
    39e6:	cd bf       	out	0x3d, r28	; 61

000039e8 <.LM1>:
    39e8:	8f ef       	ldi	r24, 0xFF	; 255
    39ea:	8c 83       	std	Y+4, r24	; 0x04

000039ec <.LM2>:
    39ec:	80 e0       	ldi	r24, 0x00	; 0
    39ee:	91 e0       	ldi	r25, 0x01	; 1
    39f0:	9e 83       	std	Y+6, r25	; 0x06
    39f2:	8d 83       	std	Y+5, r24	; 0x05
    39f4:	82 e0       	ldi	r24, 0x02	; 2
    39f6:	93 e0       	ldi	r25, 0x03	; 3
    39f8:	98 87       	std	Y+8, r25	; 0x08
    39fa:	8f 83       	std	Y+7, r24	; 0x07

000039fc <.LM3>:
    39fc:	84 e0       	ldi	r24, 0x04	; 4
    39fe:	95 e0       	ldi	r25, 0x05	; 5
    3a00:	9a 87       	std	Y+10, r25	; 0x0a
    3a02:	89 87       	std	Y+9, r24	; 0x09
    3a04:	86 e0       	ldi	r24, 0x06	; 6
    3a06:	97 e0       	ldi	r25, 0x07	; 7
    3a08:	9c 87       	std	Y+12, r25	; 0x0c
    3a0a:	8b 87       	std	Y+11, r24	; 0x0b

00003a0c <.LM4>:
    3a0c:	80 e1       	ldi	r24, 0x10	; 16
    3a0e:	e8 e6       	ldi	r30, 0x68	; 104
    3a10:	f0 e0       	ldi	r31, 0x00	; 0
    3a12:	de 01       	movw	r26, r28
    3a14:	1d 96       	adiw	r26, 0x0d	; 13

00003a16 <.L0^B1>:
    3a16:	01 90       	ld	r0, Z+
    3a18:	0d 92       	st	X+, r0
    3a1a:	8a 95       	dec	r24
    3a1c:	e1 f7       	brne	.-8      	; 0x3a16 <.L0^B1>

00003a1e <.LM5>:
    3a1e:	1a 82       	std	Y+2, r1	; 0x02

00003a20 <.LM6>:
    3a20:	67 c0       	rjmp	.+206    	; 0x3af0 <.L2>

00003a22 <.L9>:
    3a22:	8a 81       	ldd	r24, Y+2	; 0x02
    3a24:	88 2f       	mov	r24, r24
    3a26:	90 e0       	ldi	r25, 0x00	; 0
    3a28:	9e 01       	movw	r18, r28
    3a2a:	2b 5f       	subi	r18, 0xFB	; 251
    3a2c:	3f 4f       	sbci	r19, 0xFF	; 255
    3a2e:	82 0f       	add	r24, r18
    3a30:	93 1f       	adc	r25, r19
    3a32:	fc 01       	movw	r30, r24
    3a34:	80 81       	ld	r24, Z
    3a36:	40 e0       	ldi	r20, 0x00	; 0
    3a38:	68 2f       	mov	r22, r24
    3a3a:	83 e0       	ldi	r24, 0x03	; 3
    3a3c:	0e 94 09 03 	call	0x612	; 0x612 <DIO_SetPinValue>

00003a40 <.LM8>:
    3a40:	19 82       	std	Y+1, r1	; 0x01

00003a42 <.LM9>:
    3a42:	3f c0       	rjmp	.+126    	; 0x3ac2 <.L3>

00003a44 <.L8>:
    3a44:	89 81       	ldd	r24, Y+1	; 0x01
    3a46:	88 2f       	mov	r24, r24
    3a48:	90 e0       	ldi	r25, 0x00	; 0
    3a4a:	9e 01       	movw	r18, r28
    3a4c:	27 5f       	subi	r18, 0xF7	; 247
    3a4e:	3f 4f       	sbci	r19, 0xFF	; 255
    3a50:	82 0f       	add	r24, r18
    3a52:	93 1f       	adc	r25, r19
    3a54:	fc 01       	movw	r30, r24
    3a56:	80 81       	ld	r24, Z
    3a58:	68 2f       	mov	r22, r24
    3a5a:	83 e0       	ldi	r24, 0x03	; 3
    3a5c:	0e 94 0a 04 	call	0x814	; 0x814 <DIO_GetPinValue>
    3a60:	8b 83       	std	Y+3, r24	; 0x03

00003a62 <.LM11>:
    3a62:	8b 81       	ldd	r24, Y+3	; 0x03
    3a64:	88 23       	and	r24, r24
    3a66:	51 f5       	brne	.+84     	; 0x3abc <.L4>

00003a68 <.LM12>:
    3a68:	89 81       	ldd	r24, Y+1	; 0x01
    3a6a:	28 2f       	mov	r18, r24
    3a6c:	30 e0       	ldi	r19, 0x00	; 0
    3a6e:	8a 81       	ldd	r24, Y+2	; 0x02
    3a70:	88 2f       	mov	r24, r24
    3a72:	90 e0       	ldi	r25, 0x00	; 0

00003a74 <.LM13>:
    3a74:	22 0f       	add	r18, r18
    3a76:	33 1f       	adc	r19, r19
    3a78:	22 0f       	add	r18, r18
    3a7a:	33 1f       	adc	r19, r19
    3a7c:	ae 01       	movw	r20, r28
    3a7e:	4f 5f       	subi	r20, 0xFF	; 255
    3a80:	5f 4f       	sbci	r21, 0xFF	; 255
    3a82:	24 0f       	add	r18, r20
    3a84:	35 1f       	adc	r19, r21
    3a86:	82 0f       	add	r24, r18
    3a88:	93 1f       	adc	r25, r19
    3a8a:	0c 96       	adiw	r24, 0x0c	; 12
    3a8c:	fc 01       	movw	r30, r24
    3a8e:	80 81       	ld	r24, Z
    3a90:	8c 83       	std	Y+4, r24	; 0x04

00003a92 <.LM14>:
    3a92:	0f c0       	rjmp	.+30     	; 0x3ab2 <.L5>

00003a94 <.L6>:
    3a94:	89 81       	ldd	r24, Y+1	; 0x01
    3a96:	88 2f       	mov	r24, r24
    3a98:	90 e0       	ldi	r25, 0x00	; 0
    3a9a:	9e 01       	movw	r18, r28
    3a9c:	27 5f       	subi	r18, 0xF7	; 247
    3a9e:	3f 4f       	sbci	r19, 0xFF	; 255
    3aa0:	82 0f       	add	r24, r18
    3aa2:	93 1f       	adc	r25, r19
    3aa4:	fc 01       	movw	r30, r24
    3aa6:	80 81       	ld	r24, Z
    3aa8:	68 2f       	mov	r22, r24
    3aaa:	83 e0       	ldi	r24, 0x03	; 3
    3aac:	0e 94 0a 04 	call	0x814	; 0x814 <DIO_GetPinValue>
    3ab0:	8b 83       	std	Y+3, r24	; 0x03

00003ab2 <.L5>:
    3ab2:	8b 81       	ldd	r24, Y+3	; 0x03
    3ab4:	88 23       	and	r24, r24
    3ab6:	71 f3       	breq	.-36     	; 0x3a94 <.L6>

00003ab8 <.LM17>:
    3ab8:	8c 81       	ldd	r24, Y+4	; 0x04
    3aba:	20 c0       	rjmp	.+64     	; 0x3afc <.L10>

00003abc <.L4>:
    3abc:	89 81       	ldd	r24, Y+1	; 0x01
    3abe:	8f 5f       	subi	r24, 0xFF	; 255
    3ac0:	89 83       	std	Y+1, r24	; 0x01

00003ac2 <.L3>:
    3ac2:	89 81       	ldd	r24, Y+1	; 0x01
    3ac4:	83 30       	cpi	r24, 0x03	; 3
    3ac6:	09 f0       	breq	.+2      	; 0x3aca <L0^A>

00003ac8 <L0^A>:
    3ac8:	08 f4       	brcc	.+2      	; 0x3acc <.LM20>

00003aca <L0^A>:
    3aca:	bc cf       	rjmp	.-136    	; 0x3a44 <.L8>

00003acc <.LM20>:
    3acc:	8a 81       	ldd	r24, Y+2	; 0x02
    3ace:	88 2f       	mov	r24, r24
    3ad0:	90 e0       	ldi	r25, 0x00	; 0
    3ad2:	9e 01       	movw	r18, r28
    3ad4:	2b 5f       	subi	r18, 0xFB	; 251
    3ad6:	3f 4f       	sbci	r19, 0xFF	; 255
    3ad8:	82 0f       	add	r24, r18
    3ada:	93 1f       	adc	r25, r19
    3adc:	fc 01       	movw	r30, r24
    3ade:	80 81       	ld	r24, Z
    3ae0:	41 e0       	ldi	r20, 0x01	; 1
    3ae2:	68 2f       	mov	r22, r24
    3ae4:	83 e0       	ldi	r24, 0x03	; 3
    3ae6:	0e 94 09 03 	call	0x612	; 0x612 <DIO_SetPinValue>

00003aea <.LM21>:
    3aea:	8a 81       	ldd	r24, Y+2	; 0x02
    3aec:	8f 5f       	subi	r24, 0xFF	; 255
    3aee:	8a 83       	std	Y+2, r24	; 0x02

00003af0 <.L2>:
    3af0:	8a 81       	ldd	r24, Y+2	; 0x02
    3af2:	83 30       	cpi	r24, 0x03	; 3
    3af4:	09 f0       	breq	.+2      	; 0x3af8 <L0^A>

00003af6 <L0^A>:
    3af6:	08 f4       	brcc	.+2      	; 0x3afa <.LM23>

00003af8 <L0^A>:
    3af8:	94 cf       	rjmp	.-216    	; 0x3a22 <.L9>

00003afa <.LM23>:
    3afa:	8c 81       	ldd	r24, Y+4	; 0x04

00003afc <.L10>:
    3afc:	6c 96       	adiw	r28, 0x1c	; 28
    3afe:	0f b6       	in	r0, 0x3f	; 63
    3b00:	f8 94       	cli
    3b02:	de bf       	out	0x3e, r29	; 62
    3b04:	0f be       	out	0x3f, r0	; 63
    3b06:	cd bf       	out	0x3d, r28	; 61
    3b08:	df 91       	pop	r29
    3b0a:	cf 91       	pop	r28
    3b0c:	08 95       	ret

00003b0e <main>:
    3b0e:	cf 93       	push	r28
    3b10:	df 93       	push	r29
    3b12:	0f 92       	push	r0
    3b14:	cd b7       	in	r28, 0x3d	; 61
    3b16:	de b7       	in	r29, 0x3e	; 62

00003b18 <.LM1>:
    3b18:	41 e0       	ldi	r20, 0x01	; 1
    3b1a:	60 e0       	ldi	r22, 0x00	; 0
    3b1c:	83 e0       	ldi	r24, 0x03	; 3
    3b1e:	0e 94 08 02 	call	0x410	; 0x410 <DIO_SetPinDiriction>

00003b22 <.LM2>:
    3b22:	41 e0       	ldi	r20, 0x01	; 1
    3b24:	61 e0       	ldi	r22, 0x01	; 1
    3b26:	83 e0       	ldi	r24, 0x03	; 3
    3b28:	0e 94 08 02 	call	0x410	; 0x410 <DIO_SetPinDiriction>

00003b2c <.LM3>:
    3b2c:	41 e0       	ldi	r20, 0x01	; 1
    3b2e:	62 e0       	ldi	r22, 0x02	; 2
    3b30:	83 e0       	ldi	r24, 0x03	; 3
    3b32:	0e 94 08 02 	call	0x410	; 0x410 <DIO_SetPinDiriction>

00003b36 <.LM4>:
    3b36:	41 e0       	ldi	r20, 0x01	; 1
    3b38:	63 e0       	ldi	r22, 0x03	; 3
    3b3a:	83 e0       	ldi	r24, 0x03	; 3
    3b3c:	0e 94 08 02 	call	0x410	; 0x410 <DIO_SetPinDiriction>

00003b40 <.LM5>:
    3b40:	40 e0       	ldi	r20, 0x00	; 0
    3b42:	64 e0       	ldi	r22, 0x04	; 4
    3b44:	83 e0       	ldi	r24, 0x03	; 3
    3b46:	0e 94 08 02 	call	0x410	; 0x410 <DIO_SetPinDiriction>

00003b4a <.LM6>:
    3b4a:	40 e0       	ldi	r20, 0x00	; 0
    3b4c:	65 e0       	ldi	r22, 0x05	; 5
    3b4e:	83 e0       	ldi	r24, 0x03	; 3
    3b50:	0e 94 08 02 	call	0x410	; 0x410 <DIO_SetPinDiriction>

00003b54 <.LM7>:
    3b54:	40 e0       	ldi	r20, 0x00	; 0
    3b56:	66 e0       	ldi	r22, 0x06	; 6
    3b58:	83 e0       	ldi	r24, 0x03	; 3
    3b5a:	0e 94 08 02 	call	0x410	; 0x410 <DIO_SetPinDiriction>

00003b5e <.LM8>:
    3b5e:	40 e0       	ldi	r20, 0x00	; 0
    3b60:	67 e0       	ldi	r22, 0x07	; 7
    3b62:	83 e0       	ldi	r24, 0x03	; 3
    3b64:	0e 94 08 02 	call	0x410	; 0x410 <DIO_SetPinDiriction>

00003b68 <.LM9>:
    3b68:	6f ef       	ldi	r22, 0xFF	; 255
    3b6a:	83 e0       	ldi	r24, 0x03	; 3
    3b6c:	0e 94 b1 04 	call	0x962	; 0x962 <DIO_SetPortValue>

00003b70 <.LM10>:
    3b70:	41 e0       	ldi	r20, 0x01	; 1
    3b72:	64 e0       	ldi	r22, 0x04	; 4
    3b74:	81 e0       	ldi	r24, 0x01	; 1
    3b76:	0e 94 08 02 	call	0x410	; 0x410 <DIO_SetPinDiriction>

00003b7a <.LM11>:
    3b7a:	41 e0       	ldi	r20, 0x01	; 1
    3b7c:	65 e0       	ldi	r22, 0x05	; 5
    3b7e:	81 e0       	ldi	r24, 0x01	; 1
    3b80:	0e 94 08 02 	call	0x410	; 0x410 <DIO_SetPinDiriction>

00003b84 <.LM12>:
    3b84:	41 e0       	ldi	r20, 0x01	; 1
    3b86:	66 e0       	ldi	r22, 0x06	; 6
    3b88:	81 e0       	ldi	r24, 0x01	; 1
    3b8a:	0e 94 08 02 	call	0x410	; 0x410 <DIO_SetPinDiriction>

00003b8e <.LM13>:
    3b8e:	0e 94 90 12 	call	0x2520	; 0x2520 <LCD_Init>

00003b92 <.LM14>:
    3b92:	19 82       	std	Y+1, r1	; 0x01

00003b94 <.LM15>:
    3b94:	03 c0       	rjmp	.+6      	; 0x3b9c <.L2>

00003b96 <.L3>:
    3b96:	0e 94 d7 1d 	call	0x3bae	; 0x3bae <Login>
    3b9a:	89 83       	std	Y+1, r24	; 0x01

00003b9c <.L2>:
    3b9c:	89 81       	ldd	r24, Y+1	; 0x01
    3b9e:	88 23       	and	r24, r24
    3ba0:	d1 f3       	breq	.-12     	; 0x3b96 <.L3>

00003ba2 <.LM18>:
    3ba2:	80 e0       	ldi	r24, 0x00	; 0
    3ba4:	90 e0       	ldi	r25, 0x00	; 0

00003ba6 <.LM19>:
    3ba6:	0f 90       	pop	r0
    3ba8:	df 91       	pop	r29
    3baa:	cf 91       	pop	r28
    3bac:	08 95       	ret

00003bae <Login>:
    3bae:	0f 93       	push	r16
    3bb0:	1f 93       	push	r17
    3bb2:	cf 93       	push	r28
    3bb4:	df 93       	push	r29
    3bb6:	cd b7       	in	r28, 0x3d	; 61
    3bb8:	de b7       	in	r29, 0x3e	; 62
    3bba:	cb 5b       	subi	r28, 0xBB	; 187
    3bbc:	d1 40       	sbci	r29, 0x01	; 1
    3bbe:	0f b6       	in	r0, 0x3f	; 63
    3bc0:	f8 94       	cli
    3bc2:	de bf       	out	0x3e, r29	; 62
    3bc4:	0f be       	out	0x3f, r0	; 63
    3bc6:	cd bf       	out	0x3d, r28	; 61

00003bc8 <.LM21>:
    3bc8:	60 e0       	ldi	r22, 0x00	; 0
    3bca:	80 e0       	ldi	r24, 0x00	; 0
    3bcc:	0e 94 c2 1b 	call	0x3784	; 0x3784 <LCD_GoToXY>

00003bd0 <.LM22>:
    3bd0:	88 e7       	ldi	r24, 0x78	; 120
    3bd2:	90 e0       	ldi	r25, 0x00	; 0
    3bd4:	0e 94 97 1b 	call	0x372e	; 0x372e <LCD_WriteString>
    3bd8:	80 e0       	ldi	r24, 0x00	; 0
    3bda:	90 e0       	ldi	r25, 0x00	; 0
    3bdc:	a8 ec       	ldi	r26, 0xC8	; 200
    3bde:	b2 e4       	ldi	r27, 0x42	; 66
    3be0:	8e 8f       	std	Y+30, r24	; 0x1e
    3be2:	9f 8f       	std	Y+31, r25	; 0x1f
    3be4:	a8 a3       	std	Y+32, r26	; 0x20
    3be6:	b9 a3       	std	Y+33, r27	; 0x21

00003be8 <.LM23>:
    3be8:	20 e0       	ldi	r18, 0x00	; 0
    3bea:	30 e0       	ldi	r19, 0x00	; 0
    3bec:	4a ef       	ldi	r20, 0xFA	; 250
    3bee:	54 e4       	ldi	r21, 0x44	; 68
    3bf0:	6e 8d       	ldd	r22, Y+30	; 0x1e
    3bf2:	7f 8d       	ldd	r23, Y+31	; 0x1f
    3bf4:	88 a1       	ldd	r24, Y+32	; 0x20
    3bf6:	99 a1       	ldd	r25, Y+33	; 0x21
    3bf8:	0e 94 35 30 	call	0x606a	; 0x606a <__mulsf3>
    3bfc:	c4 51       	subi	r28, 0x14	; 20
    3bfe:	df 4f       	sbci	r29, 0xFF	; 255
    3c00:	68 83       	st	Y, r22
    3c02:	79 83       	std	Y+1, r23	; 0x01
    3c04:	8a 83       	std	Y+2, r24	; 0x02
    3c06:	9b 83       	std	Y+3, r25	; 0x03
    3c08:	cc 5e       	subi	r28, 0xEC	; 236
    3c0a:	d0 40       	sbci	r29, 0x00	; 0
    3c0c:	c4 51       	subi	r28, 0x14	; 20
    3c0e:	df 4f       	sbci	r29, 0xFF	; 255
    3c10:	88 81       	ld	r24, Y
    3c12:	99 81       	ldd	r25, Y+1	; 0x01
    3c14:	aa 81       	ldd	r26, Y+2	; 0x02
    3c16:	bb 81       	ldd	r27, Y+3	; 0x03
    3c18:	cc 5e       	subi	r28, 0xEC	; 236
    3c1a:	d0 40       	sbci	r29, 0x00	; 0
    3c1c:	8a a3       	std	Y+34, r24	; 0x22
    3c1e:	9b a3       	std	Y+35, r25	; 0x23
    3c20:	ac a3       	std	Y+36, r26	; 0x24
    3c22:	bd a3       	std	Y+37, r27	; 0x25

00003c24 <.LM24>:
    3c24:	20 e0       	ldi	r18, 0x00	; 0
    3c26:	30 e0       	ldi	r19, 0x00	; 0
    3c28:	40 e8       	ldi	r20, 0x80	; 128
    3c2a:	5f e3       	ldi	r21, 0x3F	; 63
    3c2c:	6a a1       	ldd	r22, Y+34	; 0x22
    3c2e:	7b a1       	ldd	r23, Y+35	; 0x23
    3c30:	8c a1       	ldd	r24, Y+36	; 0x24
    3c32:	9d a1       	ldd	r25, Y+37	; 0x25
    3c34:	0e 94 af 2f 	call	0x5f5e	; 0x5f5e <__cmpsf2>
    3c38:	88 23       	and	r24, r24
    3c3a:	2c f4       	brge	.+10     	; 0x3c46 <.L144>

00003c3c <.LM25>:
    3c3c:	81 e0       	ldi	r24, 0x01	; 1
    3c3e:	90 e0       	ldi	r25, 0x00	; 0
    3c40:	9f a3       	std	Y+39, r25	; 0x27
    3c42:	8e a3       	std	Y+38, r24	; 0x26
    3c44:	76 c0       	rjmp	.+236    	; 0x3d32 <.L8>

00003c46 <.L144>:
    3c46:	20 e0       	ldi	r18, 0x00	; 0
    3c48:	3f ef       	ldi	r19, 0xFF	; 255
    3c4a:	4f e7       	ldi	r20, 0x7F	; 127
    3c4c:	57 e4       	ldi	r21, 0x47	; 71
    3c4e:	6a a1       	ldd	r22, Y+34	; 0x22
    3c50:	7b a1       	ldd	r23, Y+35	; 0x23
    3c52:	8c a1       	ldd	r24, Y+36	; 0x24
    3c54:	9d a1       	ldd	r25, Y+37	; 0x25
    3c56:	0e 94 30 30 	call	0x6060	; 0x6060 <__gesf2>
    3c5a:	88 23       	and	r24, r24
    3c5c:	09 f0       	breq	.+2      	; 0x3c60 <L0^A>

00003c5e <L0^A>:
    3c5e:	0c f4       	brge	.+2      	; 0x3c62 <.LM27>

00003c60 <L0^A>:
    3c60:	52 c0       	rjmp	.+164    	; 0x3d06 <.L145>

00003c62 <.LM27>:
    3c62:	20 e0       	ldi	r18, 0x00	; 0
    3c64:	30 e0       	ldi	r19, 0x00	; 0
    3c66:	40 e2       	ldi	r20, 0x20	; 32
    3c68:	51 e4       	ldi	r21, 0x41	; 65
    3c6a:	6e 8d       	ldd	r22, Y+30	; 0x1e
    3c6c:	7f 8d       	ldd	r23, Y+31	; 0x1f
    3c6e:	88 a1       	ldd	r24, Y+32	; 0x20
    3c70:	99 a1       	ldd	r25, Y+33	; 0x21
    3c72:	0e 94 35 30 	call	0x606a	; 0x606a <__mulsf3>
    3c76:	c0 51       	subi	r28, 0x10	; 16
    3c78:	df 4f       	sbci	r29, 0xFF	; 255
    3c7a:	68 83       	st	Y, r22
    3c7c:	79 83       	std	Y+1, r23	; 0x01
    3c7e:	8a 83       	std	Y+2, r24	; 0x02
    3c80:	9b 83       	std	Y+3, r25	; 0x03
    3c82:	c0 5f       	subi	r28, 0xF0	; 240
    3c84:	d0 40       	sbci	r29, 0x00	; 0
    3c86:	c0 51       	subi	r28, 0x10	; 16
    3c88:	df 4f       	sbci	r29, 0xFF	; 255
    3c8a:	88 81       	ld	r24, Y
    3c8c:	99 81       	ldd	r25, Y+1	; 0x01
    3c8e:	aa 81       	ldd	r26, Y+2	; 0x02
    3c90:	bb 81       	ldd	r27, Y+3	; 0x03
    3c92:	c0 5f       	subi	r28, 0xF0	; 240
    3c94:	d0 40       	sbci	r29, 0x00	; 0
    3c96:	c0 54       	subi	r28, 0x40	; 64
    3c98:	df 4f       	sbci	r29, 0xFF	; 255
    3c9a:	88 83       	st	Y, r24
    3c9c:	99 83       	std	Y+1, r25	; 0x01
    3c9e:	aa 83       	std	Y+2, r26	; 0x02
    3ca0:	bb 83       	std	Y+3, r27	; 0x03
    3ca2:	c0 5c       	subi	r28, 0xC0	; 192
    3ca4:	d0 40       	sbci	r29, 0x00	; 0

00003ca6 <.LM28>:
    3ca6:	c0 54       	subi	r28, 0x40	; 64
    3ca8:	df 4f       	sbci	r29, 0xFF	; 255
    3caa:	68 81       	ld	r22, Y
    3cac:	79 81       	ldd	r23, Y+1	; 0x01
    3cae:	8a 81       	ldd	r24, Y+2	; 0x02
    3cb0:	9b 81       	ldd	r25, Y+3	; 0x03
    3cb2:	c0 5c       	subi	r28, 0xC0	; 192
    3cb4:	d0 40       	sbci	r29, 0x00	; 0
    3cb6:	0e 94 b4 2f 	call	0x5f68	; 0x5f68 <__fixunssfsi>
    3cba:	cc 50       	subi	r28, 0x0C	; 12
    3cbc:	df 4f       	sbci	r29, 0xFF	; 255
    3cbe:	68 83       	st	Y, r22
    3cc0:	79 83       	std	Y+1, r23	; 0x01
    3cc2:	8a 83       	std	Y+2, r24	; 0x02
    3cc4:	9b 83       	std	Y+3, r25	; 0x03
    3cc6:	c4 5f       	subi	r28, 0xF4	; 244
    3cc8:	d0 40       	sbci	r29, 0x00	; 0
    3cca:	cc 50       	subi	r28, 0x0C	; 12
    3ccc:	df 4f       	sbci	r29, 0xFF	; 255
    3cce:	a8 81       	ld	r26, Y
    3cd0:	b9 81       	ldd	r27, Y+1	; 0x01
    3cd2:	c4 5f       	subi	r28, 0xF4	; 244
    3cd4:	d0 40       	sbci	r29, 0x00	; 0
    3cd6:	bf a3       	std	Y+39, r27	; 0x27
    3cd8:	ae a3       	std	Y+38, r26	; 0x26

00003cda <.LM29>:
    3cda:	10 c0       	rjmp	.+32     	; 0x3cfc <.L11>

00003cdc <.L12>:
    3cdc:	88 ec       	ldi	r24, 0xC8	; 200
    3cde:	90 e0       	ldi	r25, 0x00	; 0
    3ce0:	99 a7       	std	Y+41, r25	; 0x29
    3ce2:	88 a7       	std	Y+40, r24	; 0x28

00003ce4 <.LM30>:
    3ce4:	88 a5       	ldd	r24, Y+40	; 0x28
    3ce6:	99 a5       	ldd	r25, Y+41	; 0x29

00003ce8 <.L1^B1>:
    3ce8:	01 97       	sbiw	r24, 0x01	; 1
    3cea:	f1 f7       	brne	.-4      	; 0x3ce8 <.L1^B1>
    3cec:	99 a7       	std	Y+41, r25	; 0x29
    3cee:	88 a7       	std	Y+40, r24	; 0x28

00003cf0 <.LM31>:
	...

00003cf2 <.LM32>:
    3cf2:	8e a1       	ldd	r24, Y+38	; 0x26
    3cf4:	9f a1       	ldd	r25, Y+39	; 0x27
    3cf6:	01 97       	sbiw	r24, 0x01	; 1
    3cf8:	9f a3       	std	Y+39, r25	; 0x27
    3cfa:	8e a3       	std	Y+38, r24	; 0x26

00003cfc <.L11>:
    3cfc:	8e a1       	ldd	r24, Y+38	; 0x26
    3cfe:	9f a1       	ldd	r25, Y+39	; 0x27
    3d00:	00 97       	sbiw	r24, 0x00	; 0
    3d02:	61 f7       	brne	.-40     	; 0x3cdc <.L12>

00003d04 <.LM34>:
    3d04:	21 c0       	rjmp	.+66     	; 0x3d48 <.L13>

00003d06 <.L145>:
    3d06:	6a a1       	ldd	r22, Y+34	; 0x22
    3d08:	7b a1       	ldd	r23, Y+35	; 0x23
    3d0a:	8c a1       	ldd	r24, Y+36	; 0x24
    3d0c:	9d a1       	ldd	r25, Y+37	; 0x25
    3d0e:	0e 94 b4 2f 	call	0x5f68	; 0x5f68 <__fixunssfsi>
    3d12:	c8 50       	subi	r28, 0x08	; 8
    3d14:	df 4f       	sbci	r29, 0xFF	; 255
    3d16:	68 83       	st	Y, r22
    3d18:	79 83       	std	Y+1, r23	; 0x01
    3d1a:	8a 83       	std	Y+2, r24	; 0x02
    3d1c:	9b 83       	std	Y+3, r25	; 0x03
    3d1e:	c8 5f       	subi	r28, 0xF8	; 248
    3d20:	d0 40       	sbci	r29, 0x00	; 0
    3d22:	c8 50       	subi	r28, 0x08	; 8
    3d24:	df 4f       	sbci	r29, 0xFF	; 255
    3d26:	e8 81       	ld	r30, Y
    3d28:	f9 81       	ldd	r31, Y+1	; 0x01
    3d2a:	c8 5f       	subi	r28, 0xF8	; 248
    3d2c:	d0 40       	sbci	r29, 0x00	; 0
    3d2e:	ff a3       	std	Y+39, r31	; 0x27
    3d30:	ee a3       	std	Y+38, r30	; 0x26

00003d32 <.L8>:
    3d32:	8e a1       	ldd	r24, Y+38	; 0x26
    3d34:	9f a1       	ldd	r25, Y+39	; 0x27
    3d36:	9b a7       	std	Y+43, r25	; 0x2b
    3d38:	8a a7       	std	Y+42, r24	; 0x2a

00003d3a <.LM36>:
    3d3a:	8a a5       	ldd	r24, Y+42	; 0x2a
    3d3c:	9b a5       	ldd	r25, Y+43	; 0x2b

00003d3e <.L1^B2>:
    3d3e:	01 97       	sbiw	r24, 0x01	; 1
    3d40:	f1 f7       	brne	.-4      	; 0x3d3e <.L1^B2>
    3d42:	9b a7       	std	Y+43, r25	; 0x2b
    3d44:	8a a7       	std	Y+42, r24	; 0x2a

00003d46 <.LM37>:
	...

00003d48 <.L13>:
    3d48:	81 e0       	ldi	r24, 0x01	; 1
    3d4a:	0e 94 66 15 	call	0x2acc	; 0x2acc <LCD_WriteCommand>

00003d4e <.LM39>:
    3d4e:	88 e7       	ldi	r24, 0x78	; 120
    3d50:	90 e0       	ldi	r25, 0x00	; 0
    3d52:	0e 94 97 1b 	call	0x372e	; 0x372e <LCD_WriteString>
    3d56:	80 e0       	ldi	r24, 0x00	; 0
    3d58:	90 e0       	ldi	r25, 0x00	; 0
    3d5a:	a8 ec       	ldi	r26, 0xC8	; 200
    3d5c:	b2 e4       	ldi	r27, 0x42	; 66
    3d5e:	88 8b       	std	Y+16, r24	; 0x10
    3d60:	99 8b       	std	Y+17, r25	; 0x11
    3d62:	aa 8b       	std	Y+18, r26	; 0x12
    3d64:	bb 8b       	std	Y+19, r27	; 0x13

00003d66 <.LM40>:
    3d66:	20 e0       	ldi	r18, 0x00	; 0
    3d68:	30 e0       	ldi	r19, 0x00	; 0
    3d6a:	4a ef       	ldi	r20, 0xFA	; 250
    3d6c:	54 e4       	ldi	r21, 0x44	; 68
    3d6e:	68 89       	ldd	r22, Y+16	; 0x10
    3d70:	79 89       	ldd	r23, Y+17	; 0x11
    3d72:	8a 89       	ldd	r24, Y+18	; 0x12
    3d74:	9b 89       	ldd	r25, Y+19	; 0x13
    3d76:	0e 94 35 30 	call	0x606a	; 0x606a <__mulsf3>
    3d7a:	c4 50       	subi	r28, 0x04	; 4
    3d7c:	df 4f       	sbci	r29, 0xFF	; 255
    3d7e:	68 83       	st	Y, r22
    3d80:	79 83       	std	Y+1, r23	; 0x01
    3d82:	8a 83       	std	Y+2, r24	; 0x02
    3d84:	9b 83       	std	Y+3, r25	; 0x03
    3d86:	cc 5f       	subi	r28, 0xFC	; 252
    3d88:	d0 40       	sbci	r29, 0x00	; 0
    3d8a:	c4 50       	subi	r28, 0x04	; 4
    3d8c:	df 4f       	sbci	r29, 0xFF	; 255
    3d8e:	88 81       	ld	r24, Y
    3d90:	99 81       	ldd	r25, Y+1	; 0x01
    3d92:	aa 81       	ldd	r26, Y+2	; 0x02
    3d94:	bb 81       	ldd	r27, Y+3	; 0x03
    3d96:	cc 5f       	subi	r28, 0xFC	; 252
    3d98:	d0 40       	sbci	r29, 0x00	; 0
    3d9a:	8c 8b       	std	Y+20, r24	; 0x14
    3d9c:	9d 8b       	std	Y+21, r25	; 0x15
    3d9e:	ae 8b       	std	Y+22, r26	; 0x16
    3da0:	bf 8b       	std	Y+23, r27	; 0x17

00003da2 <.LM41>:
    3da2:	20 e0       	ldi	r18, 0x00	; 0
    3da4:	30 e0       	ldi	r19, 0x00	; 0
    3da6:	40 e8       	ldi	r20, 0x80	; 128
    3da8:	5f e3       	ldi	r21, 0x3F	; 63
    3daa:	6c 89       	ldd	r22, Y+20	; 0x14
    3dac:	7d 89       	ldd	r23, Y+21	; 0x15
    3dae:	8e 89       	ldd	r24, Y+22	; 0x16
    3db0:	9f 89       	ldd	r25, Y+23	; 0x17
    3db2:	0e 94 af 2f 	call	0x5f5e	; 0x5f5e <__cmpsf2>
    3db6:	88 23       	and	r24, r24
    3db8:	2c f4       	brge	.+10     	; 0x3dc4 <.L146>

00003dba <.LM42>:
    3dba:	81 e0       	ldi	r24, 0x01	; 1
    3dbc:	90 e0       	ldi	r25, 0x00	; 0
    3dbe:	99 8f       	std	Y+25, r25	; 0x19
    3dc0:	88 8f       	std	Y+24, r24	; 0x18
    3dc2:	76 c0       	rjmp	.+236    	; 0x3eb0 <.L16>

00003dc4 <.L146>:
    3dc4:	20 e0       	ldi	r18, 0x00	; 0
    3dc6:	3f ef       	ldi	r19, 0xFF	; 255
    3dc8:	4f e7       	ldi	r20, 0x7F	; 127
    3dca:	57 e4       	ldi	r21, 0x47	; 71
    3dcc:	6c 89       	ldd	r22, Y+20	; 0x14
    3dce:	7d 89       	ldd	r23, Y+21	; 0x15
    3dd0:	8e 89       	ldd	r24, Y+22	; 0x16
    3dd2:	9f 89       	ldd	r25, Y+23	; 0x17
    3dd4:	0e 94 30 30 	call	0x6060	; 0x6060 <__gesf2>
    3dd8:	88 23       	and	r24, r24
    3dda:	09 f0       	breq	.+2      	; 0x3dde <L0^A>

00003ddc <L0^A>:
    3ddc:	0c f4       	brge	.+2      	; 0x3de0 <.LM44>

00003dde <L0^A>:
    3dde:	52 c0       	rjmp	.+164    	; 0x3e84 <.L147>

00003de0 <.LM44>:
    3de0:	20 e0       	ldi	r18, 0x00	; 0
    3de2:	30 e0       	ldi	r19, 0x00	; 0
    3de4:	40 e2       	ldi	r20, 0x20	; 32
    3de6:	51 e4       	ldi	r21, 0x41	; 65
    3de8:	68 89       	ldd	r22, Y+16	; 0x10
    3dea:	79 89       	ldd	r23, Y+17	; 0x11
    3dec:	8a 89       	ldd	r24, Y+18	; 0x12
    3dee:	9b 89       	ldd	r25, Y+19	; 0x13
    3df0:	0e 94 35 30 	call	0x606a	; 0x606a <__mulsf3>
    3df4:	c0 50       	subi	r28, 0x00	; 0
    3df6:	df 4f       	sbci	r29, 0xFF	; 255
    3df8:	68 83       	st	Y, r22
    3dfa:	79 83       	std	Y+1, r23	; 0x01
    3dfc:	8a 83       	std	Y+2, r24	; 0x02
    3dfe:	9b 83       	std	Y+3, r25	; 0x03
    3e00:	c0 50       	subi	r28, 0x00	; 0
    3e02:	d1 40       	sbci	r29, 0x01	; 1
    3e04:	c0 50       	subi	r28, 0x00	; 0
    3e06:	df 4f       	sbci	r29, 0xFF	; 255
    3e08:	88 81       	ld	r24, Y
    3e0a:	99 81       	ldd	r25, Y+1	; 0x01
    3e0c:	aa 81       	ldd	r26, Y+2	; 0x02
    3e0e:	bb 81       	ldd	r27, Y+3	; 0x03
    3e10:	c0 50       	subi	r28, 0x00	; 0
    3e12:	d1 40       	sbci	r29, 0x01	; 1
    3e14:	c4 54       	subi	r28, 0x44	; 68
    3e16:	df 4f       	sbci	r29, 0xFF	; 255
    3e18:	88 83       	st	Y, r24
    3e1a:	99 83       	std	Y+1, r25	; 0x01
    3e1c:	aa 83       	std	Y+2, r26	; 0x02
    3e1e:	bb 83       	std	Y+3, r27	; 0x03
    3e20:	cc 5b       	subi	r28, 0xBC	; 188
    3e22:	d0 40       	sbci	r29, 0x00	; 0

00003e24 <.LM45>:
    3e24:	c4 54       	subi	r28, 0x44	; 68
    3e26:	df 4f       	sbci	r29, 0xFF	; 255
    3e28:	68 81       	ld	r22, Y
    3e2a:	79 81       	ldd	r23, Y+1	; 0x01
    3e2c:	8a 81       	ldd	r24, Y+2	; 0x02
    3e2e:	9b 81       	ldd	r25, Y+3	; 0x03
    3e30:	cc 5b       	subi	r28, 0xBC	; 188
    3e32:	d0 40       	sbci	r29, 0x00	; 0
    3e34:	0e 94 b4 2f 	call	0x5f68	; 0x5f68 <__fixunssfsi>
    3e38:	cc 5f       	subi	r28, 0xFC	; 252
    3e3a:	de 4f       	sbci	r29, 0xFE	; 254
    3e3c:	68 83       	st	Y, r22
    3e3e:	79 83       	std	Y+1, r23	; 0x01
    3e40:	8a 83       	std	Y+2, r24	; 0x02
    3e42:	9b 83       	std	Y+3, r25	; 0x03
    3e44:	c4 50       	subi	r28, 0x04	; 4
    3e46:	d1 40       	sbci	r29, 0x01	; 1
    3e48:	cc 5f       	subi	r28, 0xFC	; 252
    3e4a:	de 4f       	sbci	r29, 0xFE	; 254
    3e4c:	a8 81       	ld	r26, Y
    3e4e:	b9 81       	ldd	r27, Y+1	; 0x01
    3e50:	c4 50       	subi	r28, 0x04	; 4
    3e52:	d1 40       	sbci	r29, 0x01	; 1
    3e54:	b9 8f       	std	Y+25, r27	; 0x19
    3e56:	a8 8f       	std	Y+24, r26	; 0x18

00003e58 <.LM46>:
    3e58:	10 c0       	rjmp	.+32     	; 0x3e7a <.L19>

00003e5a <.L20>:
    3e5a:	88 ec       	ldi	r24, 0xC8	; 200
    3e5c:	90 e0       	ldi	r25, 0x00	; 0
    3e5e:	9b 8f       	std	Y+27, r25	; 0x1b
    3e60:	8a 8f       	std	Y+26, r24	; 0x1a

00003e62 <.LM47>:
    3e62:	8a 8d       	ldd	r24, Y+26	; 0x1a
    3e64:	9b 8d       	ldd	r25, Y+27	; 0x1b

00003e66 <.L1^B3>:
    3e66:	01 97       	sbiw	r24, 0x01	; 1
    3e68:	f1 f7       	brne	.-4      	; 0x3e66 <.L1^B3>
    3e6a:	9b 8f       	std	Y+27, r25	; 0x1b
    3e6c:	8a 8f       	std	Y+26, r24	; 0x1a

00003e6e <.LM48>:
	...

00003e70 <.LM49>:
    3e70:	88 8d       	ldd	r24, Y+24	; 0x18
    3e72:	99 8d       	ldd	r25, Y+25	; 0x19
    3e74:	01 97       	sbiw	r24, 0x01	; 1
    3e76:	99 8f       	std	Y+25, r25	; 0x19
    3e78:	88 8f       	std	Y+24, r24	; 0x18

00003e7a <.L19>:
    3e7a:	88 8d       	ldd	r24, Y+24	; 0x18
    3e7c:	99 8d       	ldd	r25, Y+25	; 0x19
    3e7e:	00 97       	sbiw	r24, 0x00	; 0
    3e80:	61 f7       	brne	.-40     	; 0x3e5a <.L20>

00003e82 <.LM51>:
    3e82:	21 c0       	rjmp	.+66     	; 0x3ec6 <.L21>

00003e84 <.L147>:
    3e84:	6c 89       	ldd	r22, Y+20	; 0x14
    3e86:	7d 89       	ldd	r23, Y+21	; 0x15
    3e88:	8e 89       	ldd	r24, Y+22	; 0x16
    3e8a:	9f 89       	ldd	r25, Y+23	; 0x17
    3e8c:	0e 94 b4 2f 	call	0x5f68	; 0x5f68 <__fixunssfsi>
    3e90:	c8 5f       	subi	r28, 0xF8	; 248
    3e92:	de 4f       	sbci	r29, 0xFE	; 254
    3e94:	68 83       	st	Y, r22
    3e96:	79 83       	std	Y+1, r23	; 0x01
    3e98:	8a 83       	std	Y+2, r24	; 0x02
    3e9a:	9b 83       	std	Y+3, r25	; 0x03
    3e9c:	c8 50       	subi	r28, 0x08	; 8
    3e9e:	d1 40       	sbci	r29, 0x01	; 1
    3ea0:	c8 5f       	subi	r28, 0xF8	; 248
    3ea2:	de 4f       	sbci	r29, 0xFE	; 254
    3ea4:	e8 81       	ld	r30, Y
    3ea6:	f9 81       	ldd	r31, Y+1	; 0x01
    3ea8:	c8 50       	subi	r28, 0x08	; 8
    3eaa:	d1 40       	sbci	r29, 0x01	; 1
    3eac:	f9 8f       	std	Y+25, r31	; 0x19
    3eae:	e8 8f       	std	Y+24, r30	; 0x18

00003eb0 <.L16>:
    3eb0:	88 8d       	ldd	r24, Y+24	; 0x18
    3eb2:	99 8d       	ldd	r25, Y+25	; 0x19
    3eb4:	9d 8f       	std	Y+29, r25	; 0x1d
    3eb6:	8c 8f       	std	Y+28, r24	; 0x1c

00003eb8 <.LM53>:
    3eb8:	8c 8d       	ldd	r24, Y+28	; 0x1c
    3eba:	9d 8d       	ldd	r25, Y+29	; 0x1d

00003ebc <.L1^B4>:
    3ebc:	01 97       	sbiw	r24, 0x01	; 1
    3ebe:	f1 f7       	brne	.-4      	; 0x3ebc <.L1^B4>
    3ec0:	9d 8f       	std	Y+29, r25	; 0x1d
    3ec2:	8c 8f       	std	Y+28, r24	; 0x1c

00003ec4 <.LM54>:
	...

00003ec6 <.L21>:
    3ec6:	81 e0       	ldi	r24, 0x01	; 1
    3ec8:	0e 94 66 15 	call	0x2acc	; 0x2acc <LCD_WriteCommand>
    3ecc:	80 e0       	ldi	r24, 0x00	; 0
    3ece:	90 e0       	ldi	r25, 0x00	; 0
    3ed0:	a8 ec       	ldi	r26, 0xC8	; 200
    3ed2:	b2 e4       	ldi	r27, 0x42	; 66
    3ed4:	8a 83       	std	Y+2, r24	; 0x02
    3ed6:	9b 83       	std	Y+3, r25	; 0x03
    3ed8:	ac 83       	std	Y+4, r26	; 0x04
    3eda:	bd 83       	std	Y+5, r27	; 0x05

00003edc <.LM56>:
    3edc:	20 e0       	ldi	r18, 0x00	; 0
    3ede:	30 e0       	ldi	r19, 0x00	; 0
    3ee0:	4a ef       	ldi	r20, 0xFA	; 250
    3ee2:	54 e4       	ldi	r21, 0x44	; 68
    3ee4:	6a 81       	ldd	r22, Y+2	; 0x02
    3ee6:	7b 81       	ldd	r23, Y+3	; 0x03
    3ee8:	8c 81       	ldd	r24, Y+4	; 0x04
    3eea:	9d 81       	ldd	r25, Y+5	; 0x05
    3eec:	0e 94 35 30 	call	0x606a	; 0x606a <__mulsf3>
    3ef0:	c4 5f       	subi	r28, 0xF4	; 244
    3ef2:	de 4f       	sbci	r29, 0xFE	; 254
    3ef4:	68 83       	st	Y, r22
    3ef6:	79 83       	std	Y+1, r23	; 0x01
    3ef8:	8a 83       	std	Y+2, r24	; 0x02
    3efa:	9b 83       	std	Y+3, r25	; 0x03
    3efc:	cc 50       	subi	r28, 0x0C	; 12
    3efe:	d1 40       	sbci	r29, 0x01	; 1
    3f00:	c4 5f       	subi	r28, 0xF4	; 244
    3f02:	de 4f       	sbci	r29, 0xFE	; 254
    3f04:	88 81       	ld	r24, Y
    3f06:	99 81       	ldd	r25, Y+1	; 0x01
    3f08:	aa 81       	ldd	r26, Y+2	; 0x02
    3f0a:	bb 81       	ldd	r27, Y+3	; 0x03
    3f0c:	cc 50       	subi	r28, 0x0C	; 12
    3f0e:	d1 40       	sbci	r29, 0x01	; 1
    3f10:	8e 83       	std	Y+6, r24	; 0x06
    3f12:	9f 83       	std	Y+7, r25	; 0x07
    3f14:	a8 87       	std	Y+8, r26	; 0x08
    3f16:	b9 87       	std	Y+9, r27	; 0x09

00003f18 <.LM57>:
    3f18:	20 e0       	ldi	r18, 0x00	; 0
    3f1a:	30 e0       	ldi	r19, 0x00	; 0
    3f1c:	40 e8       	ldi	r20, 0x80	; 128
    3f1e:	5f e3       	ldi	r21, 0x3F	; 63
    3f20:	6e 81       	ldd	r22, Y+6	; 0x06
    3f22:	7f 81       	ldd	r23, Y+7	; 0x07
    3f24:	88 85       	ldd	r24, Y+8	; 0x08
    3f26:	99 85       	ldd	r25, Y+9	; 0x09
    3f28:	0e 94 af 2f 	call	0x5f5e	; 0x5f5e <__cmpsf2>
    3f2c:	88 23       	and	r24, r24
    3f2e:	2c f4       	brge	.+10     	; 0x3f3a <.L148>

00003f30 <.LM58>:
    3f30:	81 e0       	ldi	r24, 0x01	; 1
    3f32:	90 e0       	ldi	r25, 0x00	; 0
    3f34:	9b 87       	std	Y+11, r25	; 0x0b
    3f36:	8a 87       	std	Y+10, r24	; 0x0a
    3f38:	76 c0       	rjmp	.+236    	; 0x4026 <.L24>

00003f3a <.L148>:
    3f3a:	20 e0       	ldi	r18, 0x00	; 0
    3f3c:	3f ef       	ldi	r19, 0xFF	; 255
    3f3e:	4f e7       	ldi	r20, 0x7F	; 127
    3f40:	57 e4       	ldi	r21, 0x47	; 71
    3f42:	6e 81       	ldd	r22, Y+6	; 0x06
    3f44:	7f 81       	ldd	r23, Y+7	; 0x07
    3f46:	88 85       	ldd	r24, Y+8	; 0x08
    3f48:	99 85       	ldd	r25, Y+9	; 0x09
    3f4a:	0e 94 30 30 	call	0x6060	; 0x6060 <__gesf2>
    3f4e:	88 23       	and	r24, r24
    3f50:	09 f0       	breq	.+2      	; 0x3f54 <L0^A>

00003f52 <L0^A>:
    3f52:	0c f4       	brge	.+2      	; 0x3f56 <.LM60>

00003f54 <L0^A>:
    3f54:	52 c0       	rjmp	.+164    	; 0x3ffa <.L149>

00003f56 <.LM60>:
    3f56:	20 e0       	ldi	r18, 0x00	; 0
    3f58:	30 e0       	ldi	r19, 0x00	; 0
    3f5a:	40 e2       	ldi	r20, 0x20	; 32
    3f5c:	51 e4       	ldi	r21, 0x41	; 65
    3f5e:	6a 81       	ldd	r22, Y+2	; 0x02
    3f60:	7b 81       	ldd	r23, Y+3	; 0x03
    3f62:	8c 81       	ldd	r24, Y+4	; 0x04
    3f64:	9d 81       	ldd	r25, Y+5	; 0x05
    3f66:	0e 94 35 30 	call	0x606a	; 0x606a <__mulsf3>
    3f6a:	c0 5f       	subi	r28, 0xF0	; 240
    3f6c:	de 4f       	sbci	r29, 0xFE	; 254
    3f6e:	68 83       	st	Y, r22
    3f70:	79 83       	std	Y+1, r23	; 0x01
    3f72:	8a 83       	std	Y+2, r24	; 0x02
    3f74:	9b 83       	std	Y+3, r25	; 0x03
    3f76:	c0 51       	subi	r28, 0x10	; 16
    3f78:	d1 40       	sbci	r29, 0x01	; 1
    3f7a:	c0 5f       	subi	r28, 0xF0	; 240
    3f7c:	de 4f       	sbci	r29, 0xFE	; 254
    3f7e:	88 81       	ld	r24, Y
    3f80:	99 81       	ldd	r25, Y+1	; 0x01
    3f82:	aa 81       	ldd	r26, Y+2	; 0x02
    3f84:	bb 81       	ldd	r27, Y+3	; 0x03
    3f86:	c0 51       	subi	r28, 0x10	; 16
    3f88:	d1 40       	sbci	r29, 0x01	; 1
    3f8a:	c8 54       	subi	r28, 0x48	; 72
    3f8c:	df 4f       	sbci	r29, 0xFF	; 255
    3f8e:	88 83       	st	Y, r24
    3f90:	99 83       	std	Y+1, r25	; 0x01
    3f92:	aa 83       	std	Y+2, r26	; 0x02
    3f94:	bb 83       	std	Y+3, r27	; 0x03
    3f96:	c8 5b       	subi	r28, 0xB8	; 184
    3f98:	d0 40       	sbci	r29, 0x00	; 0

00003f9a <.LM61>:
    3f9a:	c8 54       	subi	r28, 0x48	; 72
    3f9c:	df 4f       	sbci	r29, 0xFF	; 255
    3f9e:	68 81       	ld	r22, Y
    3fa0:	79 81       	ldd	r23, Y+1	; 0x01
    3fa2:	8a 81       	ldd	r24, Y+2	; 0x02
    3fa4:	9b 81       	ldd	r25, Y+3	; 0x03
    3fa6:	c8 5b       	subi	r28, 0xB8	; 184
    3fa8:	d0 40       	sbci	r29, 0x00	; 0
    3faa:	0e 94 b4 2f 	call	0x5f68	; 0x5f68 <__fixunssfsi>
    3fae:	cc 5e       	subi	r28, 0xEC	; 236
    3fb0:	de 4f       	sbci	r29, 0xFE	; 254
    3fb2:	68 83       	st	Y, r22
    3fb4:	79 83       	std	Y+1, r23	; 0x01
    3fb6:	8a 83       	std	Y+2, r24	; 0x02
    3fb8:	9b 83       	std	Y+3, r25	; 0x03
    3fba:	c4 51       	subi	r28, 0x14	; 20
    3fbc:	d1 40       	sbci	r29, 0x01	; 1
    3fbe:	cc 5e       	subi	r28, 0xEC	; 236
    3fc0:	de 4f       	sbci	r29, 0xFE	; 254
    3fc2:	a8 81       	ld	r26, Y
    3fc4:	b9 81       	ldd	r27, Y+1	; 0x01
    3fc6:	c4 51       	subi	r28, 0x14	; 20
    3fc8:	d1 40       	sbci	r29, 0x01	; 1
    3fca:	bb 87       	std	Y+11, r27	; 0x0b
    3fcc:	aa 87       	std	Y+10, r26	; 0x0a

00003fce <.LM62>:
    3fce:	10 c0       	rjmp	.+32     	; 0x3ff0 <.L27>

00003fd0 <.L28>:
    3fd0:	88 ec       	ldi	r24, 0xC8	; 200
    3fd2:	90 e0       	ldi	r25, 0x00	; 0
    3fd4:	9d 87       	std	Y+13, r25	; 0x0d
    3fd6:	8c 87       	std	Y+12, r24	; 0x0c

00003fd8 <.LM63>:
    3fd8:	8c 85       	ldd	r24, Y+12	; 0x0c
    3fda:	9d 85       	ldd	r25, Y+13	; 0x0d

00003fdc <.L1^B5>:
    3fdc:	01 97       	sbiw	r24, 0x01	; 1
    3fde:	f1 f7       	brne	.-4      	; 0x3fdc <.L1^B5>
    3fe0:	9d 87       	std	Y+13, r25	; 0x0d
    3fe2:	8c 87       	std	Y+12, r24	; 0x0c

00003fe4 <.LM64>:
	...

00003fe6 <.LM65>:
    3fe6:	8a 85       	ldd	r24, Y+10	; 0x0a
    3fe8:	9b 85       	ldd	r25, Y+11	; 0x0b
    3fea:	01 97       	sbiw	r24, 0x01	; 1
    3fec:	9b 87       	std	Y+11, r25	; 0x0b
    3fee:	8a 87       	std	Y+10, r24	; 0x0a

00003ff0 <.L27>:
    3ff0:	8a 85       	ldd	r24, Y+10	; 0x0a
    3ff2:	9b 85       	ldd	r25, Y+11	; 0x0b
    3ff4:	00 97       	sbiw	r24, 0x00	; 0
    3ff6:	61 f7       	brne	.-40     	; 0x3fd0 <.L28>

00003ff8 <.LM67>:
    3ff8:	21 c0       	rjmp	.+66     	; 0x403c <.L29>

00003ffa <.L149>:
    3ffa:	6e 81       	ldd	r22, Y+6	; 0x06
    3ffc:	7f 81       	ldd	r23, Y+7	; 0x07
    3ffe:	88 85       	ldd	r24, Y+8	; 0x08
    4000:	99 85       	ldd	r25, Y+9	; 0x09
    4002:	0e 94 b4 2f 	call	0x5f68	; 0x5f68 <__fixunssfsi>
    4006:	c8 5e       	subi	r28, 0xE8	; 232
    4008:	de 4f       	sbci	r29, 0xFE	; 254
    400a:	68 83       	st	Y, r22
    400c:	79 83       	std	Y+1, r23	; 0x01
    400e:	8a 83       	std	Y+2, r24	; 0x02
    4010:	9b 83       	std	Y+3, r25	; 0x03
    4012:	c8 51       	subi	r28, 0x18	; 24
    4014:	d1 40       	sbci	r29, 0x01	; 1
    4016:	c8 5e       	subi	r28, 0xE8	; 232
    4018:	de 4f       	sbci	r29, 0xFE	; 254
    401a:	e8 81       	ld	r30, Y
    401c:	f9 81       	ldd	r31, Y+1	; 0x01
    401e:	c8 51       	subi	r28, 0x18	; 24
    4020:	d1 40       	sbci	r29, 0x01	; 1
    4022:	fb 87       	std	Y+11, r31	; 0x0b
    4024:	ea 87       	std	Y+10, r30	; 0x0a

00004026 <.L24>:
    4026:	8a 85       	ldd	r24, Y+10	; 0x0a
    4028:	9b 85       	ldd	r25, Y+11	; 0x0b
    402a:	9f 87       	std	Y+15, r25	; 0x0f
    402c:	8e 87       	std	Y+14, r24	; 0x0e

0000402e <.LM69>:
    402e:	8e 85       	ldd	r24, Y+14	; 0x0e
    4030:	9f 85       	ldd	r25, Y+15	; 0x0f

00004032 <.L1^B6>:
    4032:	01 97       	sbiw	r24, 0x01	; 1
    4034:	f1 f7       	brne	.-4      	; 0x4032 <.L1^B6>
    4036:	9f 87       	std	Y+15, r25	; 0x0f
    4038:	8e 87       	std	Y+14, r24	; 0x0e

0000403a <.LM70>:
	...

0000403c <.L29>:
    403c:	86 e8       	ldi	r24, 0x86	; 134
    403e:	90 e0       	ldi	r25, 0x00	; 0
    4040:	0e 94 97 1b 	call	0x372e	; 0x372e <LCD_WriteString>

00004044 <.LM72>:
    4044:	60 e0       	ldi	r22, 0x00	; 0
    4046:	81 e0       	ldi	r24, 0x01	; 1
    4048:	0e 94 c2 1b 	call	0x3784	; 0x3784 <LCD_GoToXY>

0000404c <.LM73>:
    404c:	86 e9       	ldi	r24, 0x96	; 150
    404e:	90 e0       	ldi	r25, 0x00	; 0
    4050:	0e 94 97 1b 	call	0x372e	; 0x372e <LCD_WriteString>

00004054 <.LM74>:
    4054:	0e 94 ab 2d 	call	0x5b56	; 0x5b56 <getOption>
    4058:	89 83       	std	Y+1, r24	; 0x01

0000405a <.LM75>:
    405a:	81 e0       	ldi	r24, 0x01	; 1
    405c:	0e 94 66 15 	call	0x2acc	; 0x2acc <LCD_WriteCommand>

00004060 <.LM76>:
    4060:	60 e0       	ldi	r22, 0x00	; 0
    4062:	80 e0       	ldi	r24, 0x00	; 0
    4064:	0e 94 c2 1b 	call	0x3784	; 0x3784 <LCD_GoToXY>

00004068 <.LM77>:
    4068:	89 81       	ldd	r24, Y+1	; 0x01
    406a:	88 2f       	mov	r24, r24
    406c:	90 e0       	ldi	r25, 0x00	; 0
    406e:	83 30       	cpi	r24, 0x03	; 3
    4070:	91 05       	cpc	r25, r1
    4072:	09 f4       	brne	.+2      	; 0x4076 <L0^A+0x2>

00004074 <L0^A>:
    4074:	40 c6       	rjmp	.+3200   	; 0x4cf6 <.L30>
    4076:	83 30       	cpi	r24, 0x03	; 3
    4078:	91 05       	cpc	r25, r1
    407a:	19 f0       	breq	.+6      	; 0x4082 <L0^A+0x4>

0000407c <L0^A>:
    407c:	14 f0       	brlt	.+4      	; 0x4082 <L0^A+0x4>

0000407e <L0^A>:
    407e:	0c 94 c4 29 	jmp	0x5388	; 0x5388 <.L31>
    4082:	81 30       	cpi	r24, 0x01	; 1
    4084:	91 05       	cpc	r25, r1
    4086:	31 f0       	breq	.+12     	; 0x4094 <.L32>
    4088:	82 30       	cpi	r24, 0x02	; 2
    408a:	91 05       	cpc	r25, r1
    408c:	09 f4       	brne	.+2      	; 0x4090 <L0^A+0x2>

0000408e <L0^A>:
    408e:	ea c2       	rjmp	.+1492   	; 0x4664 <.L33>
    4090:	0c 94 c4 29 	jmp	0x5388	; 0x5388 <.L31>

00004094 <.L32>:
    4094:	0e 94 e1 2a 	call	0x55c2	; 0x55c2 <checkUser1Pass>

00004098 <.LM79>:
    4098:	81 30       	cpi	r24, 0x01	; 1
    409a:	09 f0       	breq	.+2      	; 0x409e <.LM80>

0000409c <L0^A>:
    409c:	c4 c0       	rjmp	.+392    	; 0x4226 <.L34>

0000409e <.LM80>:
    409e:	80 ea       	ldi	r24, 0xA0	; 160
    40a0:	90 e0       	ldi	r25, 0x00	; 0
    40a2:	0e 94 97 1b 	call	0x372e	; 0x372e <LCD_WriteString>
    40a6:	80 e0       	ldi	r24, 0x00	; 0
    40a8:	90 e0       	ldi	r25, 0x00	; 0
    40aa:	a8 ec       	ldi	r26, 0xC8	; 200
    40ac:	b2 e4       	ldi	r27, 0x42	; 66
    40ae:	8c a7       	std	Y+44, r24	; 0x2c
    40b0:	9d a7       	std	Y+45, r25	; 0x2d
    40b2:	ae a7       	std	Y+46, r26	; 0x2e
    40b4:	bf a7       	std	Y+47, r27	; 0x2f

000040b6 <.LM81>:
    40b6:	20 e0       	ldi	r18, 0x00	; 0
    40b8:	30 e0       	ldi	r19, 0x00	; 0
    40ba:	4a ef       	ldi	r20, 0xFA	; 250
    40bc:	54 e4       	ldi	r21, 0x44	; 68
    40be:	6c a5       	ldd	r22, Y+44	; 0x2c
    40c0:	7d a5       	ldd	r23, Y+45	; 0x2d
    40c2:	8e a5       	ldd	r24, Y+46	; 0x2e
    40c4:	9f a5       	ldd	r25, Y+47	; 0x2f
    40c6:	0e 94 35 30 	call	0x606a	; 0x606a <__mulsf3>
    40ca:	c4 5e       	subi	r28, 0xE4	; 228
    40cc:	de 4f       	sbci	r29, 0xFE	; 254
    40ce:	68 83       	st	Y, r22
    40d0:	79 83       	std	Y+1, r23	; 0x01
    40d2:	8a 83       	std	Y+2, r24	; 0x02
    40d4:	9b 83       	std	Y+3, r25	; 0x03
    40d6:	cc 51       	subi	r28, 0x1C	; 28
    40d8:	d1 40       	sbci	r29, 0x01	; 1
    40da:	c4 5e       	subi	r28, 0xE4	; 228
    40dc:	de 4f       	sbci	r29, 0xFE	; 254
    40de:	88 81       	ld	r24, Y
    40e0:	99 81       	ldd	r25, Y+1	; 0x01
    40e2:	aa 81       	ldd	r26, Y+2	; 0x02
    40e4:	bb 81       	ldd	r27, Y+3	; 0x03
    40e6:	cc 51       	subi	r28, 0x1C	; 28
    40e8:	d1 40       	sbci	r29, 0x01	; 1
    40ea:	88 ab       	std	Y+48, r24	; 0x30
    40ec:	99 ab       	std	Y+49, r25	; 0x31
    40ee:	aa ab       	std	Y+50, r26	; 0x32
    40f0:	bb ab       	std	Y+51, r27	; 0x33

000040f2 <.LM82>:
    40f2:	20 e0       	ldi	r18, 0x00	; 0
    40f4:	30 e0       	ldi	r19, 0x00	; 0
    40f6:	40 e8       	ldi	r20, 0x80	; 128
    40f8:	5f e3       	ldi	r21, 0x3F	; 63
    40fa:	68 a9       	ldd	r22, Y+48	; 0x30
    40fc:	79 a9       	ldd	r23, Y+49	; 0x31
    40fe:	8a a9       	ldd	r24, Y+50	; 0x32
    4100:	9b a9       	ldd	r25, Y+51	; 0x33
    4102:	0e 94 af 2f 	call	0x5f5e	; 0x5f5e <__cmpsf2>
    4106:	88 23       	and	r24, r24
    4108:	2c f4       	brge	.+10     	; 0x4114 <.L150>

0000410a <.LM83>:
    410a:	81 e0       	ldi	r24, 0x01	; 1
    410c:	90 e0       	ldi	r25, 0x00	; 0
    410e:	9d ab       	std	Y+53, r25	; 0x35
    4110:	8c ab       	std	Y+52, r24	; 0x34
    4112:	76 c0       	rjmp	.+236    	; 0x4200 <.L37>

00004114 <.L150>:
    4114:	20 e0       	ldi	r18, 0x00	; 0
    4116:	3f ef       	ldi	r19, 0xFF	; 255
    4118:	4f e7       	ldi	r20, 0x7F	; 127
    411a:	57 e4       	ldi	r21, 0x47	; 71
    411c:	68 a9       	ldd	r22, Y+48	; 0x30
    411e:	79 a9       	ldd	r23, Y+49	; 0x31
    4120:	8a a9       	ldd	r24, Y+50	; 0x32
    4122:	9b a9       	ldd	r25, Y+51	; 0x33
    4124:	0e 94 30 30 	call	0x6060	; 0x6060 <__gesf2>
    4128:	88 23       	and	r24, r24
    412a:	09 f0       	breq	.+2      	; 0x412e <L0^A>

0000412c <L0^A>:
    412c:	0c f4       	brge	.+2      	; 0x4130 <.LM85>

0000412e <L0^A>:
    412e:	52 c0       	rjmp	.+164    	; 0x41d4 <.L151>

00004130 <.LM85>:
    4130:	20 e0       	ldi	r18, 0x00	; 0
    4132:	30 e0       	ldi	r19, 0x00	; 0
    4134:	40 e2       	ldi	r20, 0x20	; 32
    4136:	51 e4       	ldi	r21, 0x41	; 65
    4138:	6c a5       	ldd	r22, Y+44	; 0x2c
    413a:	7d a5       	ldd	r23, Y+45	; 0x2d
    413c:	8e a5       	ldd	r24, Y+46	; 0x2e
    413e:	9f a5       	ldd	r25, Y+47	; 0x2f
    4140:	0e 94 35 30 	call	0x606a	; 0x606a <__mulsf3>
    4144:	c0 5e       	subi	r28, 0xE0	; 224
    4146:	de 4f       	sbci	r29, 0xFE	; 254
    4148:	68 83       	st	Y, r22
    414a:	79 83       	std	Y+1, r23	; 0x01
    414c:	8a 83       	std	Y+2, r24	; 0x02
    414e:	9b 83       	std	Y+3, r25	; 0x03
    4150:	c0 52       	subi	r28, 0x20	; 32
    4152:	d1 40       	sbci	r29, 0x01	; 1
    4154:	c0 5e       	subi	r28, 0xE0	; 224
    4156:	de 4f       	sbci	r29, 0xFE	; 254
    4158:	88 81       	ld	r24, Y
    415a:	99 81       	ldd	r25, Y+1	; 0x01
    415c:	aa 81       	ldd	r26, Y+2	; 0x02
    415e:	bb 81       	ldd	r27, Y+3	; 0x03
    4160:	c0 52       	subi	r28, 0x20	; 32
    4162:	d1 40       	sbci	r29, 0x01	; 1
    4164:	cc 53       	subi	r28, 0x3C	; 60
    4166:	df 4f       	sbci	r29, 0xFF	; 255
    4168:	88 83       	st	Y, r24
    416a:	99 83       	std	Y+1, r25	; 0x01
    416c:	aa 83       	std	Y+2, r26	; 0x02
    416e:	bb 83       	std	Y+3, r27	; 0x03
    4170:	c4 5c       	subi	r28, 0xC4	; 196
    4172:	d0 40       	sbci	r29, 0x00	; 0

00004174 <.LM86>:
    4174:	cc 53       	subi	r28, 0x3C	; 60
    4176:	df 4f       	sbci	r29, 0xFF	; 255
    4178:	68 81       	ld	r22, Y
    417a:	79 81       	ldd	r23, Y+1	; 0x01
    417c:	8a 81       	ldd	r24, Y+2	; 0x02
    417e:	9b 81       	ldd	r25, Y+3	; 0x03
    4180:	c4 5c       	subi	r28, 0xC4	; 196
    4182:	d0 40       	sbci	r29, 0x00	; 0
    4184:	0e 94 b4 2f 	call	0x5f68	; 0x5f68 <__fixunssfsi>
    4188:	cc 5d       	subi	r28, 0xDC	; 220
    418a:	de 4f       	sbci	r29, 0xFE	; 254
    418c:	68 83       	st	Y, r22
    418e:	79 83       	std	Y+1, r23	; 0x01
    4190:	8a 83       	std	Y+2, r24	; 0x02
    4192:	9b 83       	std	Y+3, r25	; 0x03
    4194:	c4 52       	subi	r28, 0x24	; 36
    4196:	d1 40       	sbci	r29, 0x01	; 1
    4198:	cc 5d       	subi	r28, 0xDC	; 220
    419a:	de 4f       	sbci	r29, 0xFE	; 254
    419c:	a8 81       	ld	r26, Y
    419e:	b9 81       	ldd	r27, Y+1	; 0x01
    41a0:	c4 52       	subi	r28, 0x24	; 36
    41a2:	d1 40       	sbci	r29, 0x01	; 1
    41a4:	bd ab       	std	Y+53, r27	; 0x35
    41a6:	ac ab       	std	Y+52, r26	; 0x34

000041a8 <.LM87>:
    41a8:	10 c0       	rjmp	.+32     	; 0x41ca <.L40>

000041aa <.L41>:
    41aa:	88 ec       	ldi	r24, 0xC8	; 200
    41ac:	90 e0       	ldi	r25, 0x00	; 0
    41ae:	9f ab       	std	Y+55, r25	; 0x37
    41b0:	8e ab       	std	Y+54, r24	; 0x36

000041b2 <.LM88>:
    41b2:	8e a9       	ldd	r24, Y+54	; 0x36
    41b4:	9f a9       	ldd	r25, Y+55	; 0x37

000041b6 <.L1^B7>:
    41b6:	01 97       	sbiw	r24, 0x01	; 1
    41b8:	f1 f7       	brne	.-4      	; 0x41b6 <.L1^B7>
    41ba:	9f ab       	std	Y+55, r25	; 0x37
    41bc:	8e ab       	std	Y+54, r24	; 0x36

000041be <.LM89>:
	...

000041c0 <.LM90>:
    41c0:	8c a9       	ldd	r24, Y+52	; 0x34
    41c2:	9d a9       	ldd	r25, Y+53	; 0x35
    41c4:	01 97       	sbiw	r24, 0x01	; 1
    41c6:	9d ab       	std	Y+53, r25	; 0x35
    41c8:	8c ab       	std	Y+52, r24	; 0x34

000041ca <.L40>:
    41ca:	8c a9       	ldd	r24, Y+52	; 0x34
    41cc:	9d a9       	ldd	r25, Y+53	; 0x35
    41ce:	00 97       	sbiw	r24, 0x00	; 0
    41d0:	61 f7       	brne	.-40     	; 0x41aa <.L41>

000041d2 <.LM92>:
    41d2:	21 c0       	rjmp	.+66     	; 0x4216 <.L42>

000041d4 <.L151>:
    41d4:	68 a9       	ldd	r22, Y+48	; 0x30
    41d6:	79 a9       	ldd	r23, Y+49	; 0x31
    41d8:	8a a9       	ldd	r24, Y+50	; 0x32
    41da:	9b a9       	ldd	r25, Y+51	; 0x33
    41dc:	0e 94 b4 2f 	call	0x5f68	; 0x5f68 <__fixunssfsi>
    41e0:	c8 5d       	subi	r28, 0xD8	; 216
    41e2:	de 4f       	sbci	r29, 0xFE	; 254
    41e4:	68 83       	st	Y, r22
    41e6:	79 83       	std	Y+1, r23	; 0x01
    41e8:	8a 83       	std	Y+2, r24	; 0x02
    41ea:	9b 83       	std	Y+3, r25	; 0x03
    41ec:	c8 52       	subi	r28, 0x28	; 40
    41ee:	d1 40       	sbci	r29, 0x01	; 1
    41f0:	c8 5d       	subi	r28, 0xD8	; 216
    41f2:	de 4f       	sbci	r29, 0xFE	; 254
    41f4:	e8 81       	ld	r30, Y
    41f6:	f9 81       	ldd	r31, Y+1	; 0x01
    41f8:	c8 52       	subi	r28, 0x28	; 40
    41fa:	d1 40       	sbci	r29, 0x01	; 1
    41fc:	fd ab       	std	Y+53, r31	; 0x35
    41fe:	ec ab       	std	Y+52, r30	; 0x34

00004200 <.L37>:
    4200:	8c a9       	ldd	r24, Y+52	; 0x34
    4202:	9d a9       	ldd	r25, Y+53	; 0x35
    4204:	99 af       	std	Y+57, r25	; 0x39
    4206:	88 af       	std	Y+56, r24	; 0x38

00004208 <.LM94>:
    4208:	88 ad       	ldd	r24, Y+56	; 0x38
    420a:	99 ad       	ldd	r25, Y+57	; 0x39

0000420c <.L1^B8>:
    420c:	01 97       	sbiw	r24, 0x01	; 1
    420e:	f1 f7       	brne	.-4      	; 0x420c <.L1^B8>
    4210:	99 af       	std	Y+57, r25	; 0x39
    4212:	88 af       	std	Y+56, r24	; 0x38

00004214 <.LM95>:
	...

00004216 <.L42>:
    4216:	81 e0       	ldi	r24, 0x01	; 1
    4218:	0e 94 66 15 	call	0x2acc	; 0x2acc <LCD_WriteCommand>

0000421c <.LM97>:
    421c:	0e 94 60 2d 	call	0x5ac0	; 0x5ac0 <options>

00004220 <.LM98>:
    4220:	80 e0       	ldi	r24, 0x00	; 0
    4222:	0c 94 d5 2a 	jmp	0x55aa	; 0x55aa <.L43>

00004226 <.L34>:
    4226:	8b ea       	ldi	r24, 0xAB	; 171
    4228:	90 e0       	ldi	r25, 0x00	; 0
    422a:	0e 94 97 1b 	call	0x372e	; 0x372e <LCD_WriteString>
    422e:	9e 01       	movw	r18, r28
    4230:	28 5b       	subi	r18, 0xB8	; 184
    4232:	3f 4f       	sbci	r19, 0xFF	; 255
    4234:	80 e0       	ldi	r24, 0x00	; 0
    4236:	90 e0       	ldi	r25, 0x00	; 0
    4238:	a8 ec       	ldi	r26, 0xC8	; 200
    423a:	b2 e4       	ldi	r27, 0x42	; 66
    423c:	f9 01       	movw	r30, r18
    423e:	80 83       	st	Z, r24
    4240:	91 83       	std	Z+1, r25	; 0x01
    4242:	a2 83       	std	Z+2, r26	; 0x02
    4244:	b3 83       	std	Z+3, r27	; 0x03

00004246 <.LM100>:
    4246:	8e 01       	movw	r16, r28
    4248:	04 5b       	subi	r16, 0xB4	; 180
    424a:	1f 4f       	sbci	r17, 0xFF	; 255
    424c:	ce 01       	movw	r24, r28
    424e:	88 5b       	subi	r24, 0xB8	; 184
    4250:	9f 4f       	sbci	r25, 0xFF	; 255
    4252:	20 e0       	ldi	r18, 0x00	; 0
    4254:	30 e0       	ldi	r19, 0x00	; 0
    4256:	4a ef       	ldi	r20, 0xFA	; 250
    4258:	54 e4       	ldi	r21, 0x44	; 68
    425a:	dc 01       	movw	r26, r24
    425c:	6d 91       	ld	r22, X+
    425e:	7d 91       	ld	r23, X+
    4260:	8d 91       	ld	r24, X+
    4262:	9c 91       	ld	r25, X
    4264:	0e 94 35 30 	call	0x606a	; 0x606a <__mulsf3>
    4268:	c4 5d       	subi	r28, 0xD4	; 212
    426a:	de 4f       	sbci	r29, 0xFE	; 254
    426c:	68 83       	st	Y, r22
    426e:	79 83       	std	Y+1, r23	; 0x01
    4270:	8a 83       	std	Y+2, r24	; 0x02
    4272:	9b 83       	std	Y+3, r25	; 0x03
    4274:	cc 52       	subi	r28, 0x2C	; 44
    4276:	d1 40       	sbci	r29, 0x01	; 1
    4278:	c4 5d       	subi	r28, 0xD4	; 212
    427a:	de 4f       	sbci	r29, 0xFE	; 254
    427c:	88 81       	ld	r24, Y
    427e:	99 81       	ldd	r25, Y+1	; 0x01
    4280:	aa 81       	ldd	r26, Y+2	; 0x02
    4282:	bb 81       	ldd	r27, Y+3	; 0x03
    4284:	cc 52       	subi	r28, 0x2C	; 44
    4286:	d1 40       	sbci	r29, 0x01	; 1
    4288:	f8 01       	movw	r30, r16
    428a:	80 83       	st	Z, r24
    428c:	91 83       	std	Z+1, r25	; 0x01
    428e:	a2 83       	std	Z+2, r26	; 0x02
    4290:	b3 83       	std	Z+3, r27	; 0x03

00004292 <.LM101>:
    4292:	ce 01       	movw	r24, r28
    4294:	84 5b       	subi	r24, 0xB4	; 180
    4296:	9f 4f       	sbci	r25, 0xFF	; 255
    4298:	20 e0       	ldi	r18, 0x00	; 0
    429a:	30 e0       	ldi	r19, 0x00	; 0
    429c:	40 e8       	ldi	r20, 0x80	; 128
    429e:	5f e3       	ldi	r21, 0x3F	; 63
    42a0:	dc 01       	movw	r26, r24
    42a2:	6d 91       	ld	r22, X+
    42a4:	7d 91       	ld	r23, X+
    42a6:	8d 91       	ld	r24, X+
    42a8:	9c 91       	ld	r25, X
    42aa:	0e 94 af 2f 	call	0x5f5e	; 0x5f5e <__cmpsf2>
    42ae:	88 23       	and	r24, r24
    42b0:	4c f4       	brge	.+18     	; 0x42c4 <.L152>

000042b2 <.LM102>:
    42b2:	ce 01       	movw	r24, r28
    42b4:	80 5b       	subi	r24, 0xB0	; 176
    42b6:	9f 4f       	sbci	r25, 0xFF	; 255
    42b8:	21 e0       	ldi	r18, 0x01	; 1
    42ba:	30 e0       	ldi	r19, 0x00	; 0
    42bc:	fc 01       	movw	r30, r24
    42be:	31 83       	std	Z+1, r19	; 0x01
    42c0:	20 83       	st	Z, r18
    42c2:	a5 c0       	rjmp	.+330    	; 0x440e <.L46>

000042c4 <.L152>:
    42c4:	ce 01       	movw	r24, r28
    42c6:	84 5b       	subi	r24, 0xB4	; 180
    42c8:	9f 4f       	sbci	r25, 0xFF	; 255
    42ca:	20 e0       	ldi	r18, 0x00	; 0
    42cc:	3f ef       	ldi	r19, 0xFF	; 255
    42ce:	4f e7       	ldi	r20, 0x7F	; 127
    42d0:	57 e4       	ldi	r21, 0x47	; 71
    42d2:	dc 01       	movw	r26, r24
    42d4:	6d 91       	ld	r22, X+
    42d6:	7d 91       	ld	r23, X+
    42d8:	8d 91       	ld	r24, X+
    42da:	9c 91       	ld	r25, X
    42dc:	0e 94 30 30 	call	0x6060	; 0x6060 <__gesf2>
    42e0:	88 23       	and	r24, r24
    42e2:	09 f0       	breq	.+2      	; 0x42e6 <L0^A>

000042e4 <L0^A>:
    42e4:	0c f4       	brge	.+2      	; 0x42e8 <.LM104>

000042e6 <L0^A>:
    42e6:	75 c0       	rjmp	.+234    	; 0x43d2 <.L153>

000042e8 <.LM104>:
    42e8:	ce 01       	movw	r24, r28
    42ea:	88 5b       	subi	r24, 0xB8	; 184
    42ec:	9f 4f       	sbci	r25, 0xFF	; 255
    42ee:	20 e0       	ldi	r18, 0x00	; 0
    42f0:	30 e0       	ldi	r19, 0x00	; 0
    42f2:	40 e2       	ldi	r20, 0x20	; 32
    42f4:	51 e4       	ldi	r21, 0x41	; 65
    42f6:	fc 01       	movw	r30, r24
    42f8:	60 81       	ld	r22, Z
    42fa:	71 81       	ldd	r23, Z+1	; 0x01
    42fc:	82 81       	ldd	r24, Z+2	; 0x02
    42fe:	93 81       	ldd	r25, Z+3	; 0x03
    4300:	0e 94 35 30 	call	0x606a	; 0x606a <__mulsf3>
    4304:	c0 5d       	subi	r28, 0xD0	; 208
    4306:	de 4f       	sbci	r29, 0xFE	; 254
    4308:	68 83       	st	Y, r22
    430a:	79 83       	std	Y+1, r23	; 0x01
    430c:	8a 83       	std	Y+2, r24	; 0x02
    430e:	9b 83       	std	Y+3, r25	; 0x03
    4310:	c0 53       	subi	r28, 0x30	; 48
    4312:	d1 40       	sbci	r29, 0x01	; 1
    4314:	c0 5d       	subi	r28, 0xD0	; 208
    4316:	de 4f       	sbci	r29, 0xFE	; 254
    4318:	88 81       	ld	r24, Y
    431a:	99 81       	ldd	r25, Y+1	; 0x01
    431c:	aa 81       	ldd	r26, Y+2	; 0x02
    431e:	bb 81       	ldd	r27, Y+3	; 0x03
    4320:	c0 53       	subi	r28, 0x30	; 48
    4322:	d1 40       	sbci	r29, 0x01	; 1
    4324:	c4 53       	subi	r28, 0x34	; 52
    4326:	df 4f       	sbci	r29, 0xFF	; 255
    4328:	88 83       	st	Y, r24
    432a:	99 83       	std	Y+1, r25	; 0x01
    432c:	aa 83       	std	Y+2, r26	; 0x02
    432e:	bb 83       	std	Y+3, r27	; 0x03
    4330:	cc 5c       	subi	r28, 0xCC	; 204
    4332:	d0 40       	sbci	r29, 0x00	; 0

00004334 <.LM105>:
    4334:	8e 01       	movw	r16, r28
    4336:	00 5b       	subi	r16, 0xB0	; 176
    4338:	1f 4f       	sbci	r17, 0xFF	; 255
    433a:	c4 53       	subi	r28, 0x34	; 52
    433c:	df 4f       	sbci	r29, 0xFF	; 255
    433e:	68 81       	ld	r22, Y
    4340:	79 81       	ldd	r23, Y+1	; 0x01
    4342:	8a 81       	ldd	r24, Y+2	; 0x02
    4344:	9b 81       	ldd	r25, Y+3	; 0x03
    4346:	cc 5c       	subi	r28, 0xCC	; 204
    4348:	d0 40       	sbci	r29, 0x00	; 0
    434a:	0e 94 b4 2f 	call	0x5f68	; 0x5f68 <__fixunssfsi>
    434e:	cc 5c       	subi	r28, 0xCC	; 204
    4350:	de 4f       	sbci	r29, 0xFE	; 254
    4352:	68 83       	st	Y, r22
    4354:	79 83       	std	Y+1, r23	; 0x01
    4356:	8a 83       	std	Y+2, r24	; 0x02
    4358:	9b 83       	std	Y+3, r25	; 0x03
    435a:	c4 53       	subi	r28, 0x34	; 52
    435c:	d1 40       	sbci	r29, 0x01	; 1
    435e:	cc 5c       	subi	r28, 0xCC	; 204
    4360:	de 4f       	sbci	r29, 0xFE	; 254
    4362:	e8 81       	ld	r30, Y
    4364:	f9 81       	ldd	r31, Y+1	; 0x01
    4366:	c4 53       	subi	r28, 0x34	; 52
    4368:	d1 40       	sbci	r29, 0x01	; 1
    436a:	d8 01       	movw	r26, r16
    436c:	11 96       	adiw	r26, 0x01	; 1
    436e:	fc 93       	st	X, r31
    4370:	ee 93       	st	-X, r30

00004372 <.LM106>:
    4372:	26 c0       	rjmp	.+76     	; 0x43c0 <.L49>

00004374 <.L50>:
    4374:	ce 01       	movw	r24, r28
    4376:	8e 5a       	subi	r24, 0xAE	; 174
    4378:	9f 4f       	sbci	r25, 0xFF	; 255
    437a:	28 ec       	ldi	r18, 0xC8	; 200
    437c:	30 e0       	ldi	r19, 0x00	; 0
    437e:	dc 01       	movw	r26, r24
    4380:	2d 93       	st	X+, r18
    4382:	3c 93       	st	X, r19

00004384 <.LM107>:
    4384:	ce 01       	movw	r24, r28
    4386:	8e 5a       	subi	r24, 0xAE	; 174
    4388:	9f 4f       	sbci	r25, 0xFF	; 255
    438a:	fc 01       	movw	r30, r24
    438c:	80 81       	ld	r24, Z
    438e:	91 81       	ldd	r25, Z+1	; 0x01

00004390 <.L1^B9>:
    4390:	01 97       	sbiw	r24, 0x01	; 1
    4392:	f1 f7       	brne	.-4      	; 0x4390 <.L1^B9>
    4394:	9e 01       	movw	r18, r28
    4396:	2e 5a       	subi	r18, 0xAE	; 174
    4398:	3f 4f       	sbci	r19, 0xFF	; 255
    439a:	d9 01       	movw	r26, r18
    439c:	8d 93       	st	X+, r24
    439e:	9c 93       	st	X, r25

000043a0 <.LM108>:
	...

000043a2 <.LM109>:
    43a2:	ce 01       	movw	r24, r28
    43a4:	80 5b       	subi	r24, 0xB0	; 176
    43a6:	9f 4f       	sbci	r25, 0xFF	; 255
    43a8:	9e 01       	movw	r18, r28
    43aa:	20 5b       	subi	r18, 0xB0	; 176
    43ac:	3f 4f       	sbci	r19, 0xFF	; 255
    43ae:	f9 01       	movw	r30, r18
    43b0:	20 81       	ld	r18, Z
    43b2:	31 81       	ldd	r19, Z+1	; 0x01
    43b4:	21 50       	subi	r18, 0x01	; 1
    43b6:	31 09       	sbc	r19, r1
    43b8:	dc 01       	movw	r26, r24
    43ba:	11 96       	adiw	r26, 0x01	; 1
    43bc:	3c 93       	st	X, r19
    43be:	2e 93       	st	-X, r18

000043c0 <.L49>:
    43c0:	ce 01       	movw	r24, r28
    43c2:	80 5b       	subi	r24, 0xB0	; 176
    43c4:	9f 4f       	sbci	r25, 0xFF	; 255
    43c6:	fc 01       	movw	r30, r24
    43c8:	80 81       	ld	r24, Z
    43ca:	91 81       	ldd	r25, Z+1	; 0x01
    43cc:	00 97       	sbiw	r24, 0x00	; 0
    43ce:	91 f6       	brne	.-92     	; 0x4374 <.L50>

000043d0 <.LM111>:
    43d0:	39 c0       	rjmp	.+114    	; 0x4444 <.L51>

000043d2 <.L153>:
    43d2:	8e 01       	movw	r16, r28
    43d4:	00 5b       	subi	r16, 0xB0	; 176
    43d6:	1f 4f       	sbci	r17, 0xFF	; 255
    43d8:	ce 01       	movw	r24, r28
    43da:	84 5b       	subi	r24, 0xB4	; 180
    43dc:	9f 4f       	sbci	r25, 0xFF	; 255
    43de:	dc 01       	movw	r26, r24
    43e0:	6d 91       	ld	r22, X+
    43e2:	7d 91       	ld	r23, X+
    43e4:	8d 91       	ld	r24, X+
    43e6:	9c 91       	ld	r25, X
    43e8:	0e 94 b4 2f 	call	0x5f68	; 0x5f68 <__fixunssfsi>
    43ec:	c8 5c       	subi	r28, 0xC8	; 200
    43ee:	de 4f       	sbci	r29, 0xFE	; 254
    43f0:	68 83       	st	Y, r22
    43f2:	79 83       	std	Y+1, r23	; 0x01
    43f4:	8a 83       	std	Y+2, r24	; 0x02
    43f6:	9b 83       	std	Y+3, r25	; 0x03
    43f8:	c8 53       	subi	r28, 0x38	; 56
    43fa:	d1 40       	sbci	r29, 0x01	; 1
    43fc:	c8 5c       	subi	r28, 0xC8	; 200
    43fe:	de 4f       	sbci	r29, 0xFE	; 254
    4400:	88 81       	ld	r24, Y
    4402:	99 81       	ldd	r25, Y+1	; 0x01
    4404:	c8 53       	subi	r28, 0x38	; 56
    4406:	d1 40       	sbci	r29, 0x01	; 1
    4408:	f8 01       	movw	r30, r16
    440a:	91 83       	std	Z+1, r25	; 0x01
    440c:	80 83       	st	Z, r24

0000440e <.L46>:
    440e:	ce 01       	movw	r24, r28
    4410:	8c 5a       	subi	r24, 0xAC	; 172
    4412:	9f 4f       	sbci	r25, 0xFF	; 255
    4414:	9e 01       	movw	r18, r28
    4416:	20 5b       	subi	r18, 0xB0	; 176
    4418:	3f 4f       	sbci	r19, 0xFF	; 255
    441a:	d9 01       	movw	r26, r18
    441c:	2d 91       	ld	r18, X+
    441e:	3c 91       	ld	r19, X
    4420:	fc 01       	movw	r30, r24
    4422:	31 83       	std	Z+1, r19	; 0x01
    4424:	20 83       	st	Z, r18

00004426 <.LM113>:
    4426:	ce 01       	movw	r24, r28
    4428:	8c 5a       	subi	r24, 0xAC	; 172
    442a:	9f 4f       	sbci	r25, 0xFF	; 255
    442c:	dc 01       	movw	r26, r24
    442e:	8d 91       	ld	r24, X+
    4430:	9c 91       	ld	r25, X

00004432 <.L1^B10>:
    4432:	01 97       	sbiw	r24, 0x01	; 1
    4434:	f1 f7       	brne	.-4      	; 0x4432 <.L1^B10>
    4436:	9e 01       	movw	r18, r28
    4438:	2c 5a       	subi	r18, 0xAC	; 172
    443a:	3f 4f       	sbci	r19, 0xFF	; 255
    443c:	f9 01       	movw	r30, r18
    443e:	91 83       	std	Z+1, r25	; 0x01
    4440:	80 83       	st	Z, r24

00004442 <.LM114>:
	...

00004444 <.L51>:
    4444:	81 e0       	ldi	r24, 0x01	; 1
    4446:	0e 94 66 15 	call	0x2acc	; 0x2acc <LCD_WriteCommand>

0000444a <.LM116>:
    444a:	89 eb       	ldi	r24, 0xB9	; 185
    444c:	90 e0       	ldi	r25, 0x00	; 0
    444e:	0e 94 97 1b 	call	0x372e	; 0x372e <LCD_WriteString>

00004452 <.LM117>:
    4452:	66 e0       	ldi	r22, 0x06	; 6
    4454:	81 e0       	ldi	r24, 0x01	; 1
    4456:	0e 94 c2 1b 	call	0x3784	; 0x3784 <LCD_GoToXY>

0000445a <.LM118>:
    445a:	89 ec       	ldi	r24, 0xC9	; 201
    445c:	90 e0       	ldi	r25, 0x00	; 0
    445e:	0e 94 97 1b 	call	0x372e	; 0x372e <LCD_WriteString>
    4462:	80 e0       	ldi	r24, 0x00	; 0
    4464:	90 e0       	ldi	r25, 0x00	; 0
    4466:	aa e7       	ldi	r26, 0x7A	; 122
    4468:	b4 e4       	ldi	r27, 0x44	; 68
    446a:	8a af       	std	Y+58, r24	; 0x3a
    446c:	9b af       	std	Y+59, r25	; 0x3b
    446e:	ac af       	std	Y+60, r26	; 0x3c
    4470:	bd af       	std	Y+61, r27	; 0x3d

00004472 <.LM119>:
    4472:	8e 01       	movw	r16, r28
    4474:	02 5c       	subi	r16, 0xC2	; 194
    4476:	1f 4f       	sbci	r17, 0xFF	; 255
    4478:	20 e0       	ldi	r18, 0x00	; 0
    447a:	30 e0       	ldi	r19, 0x00	; 0
    447c:	4a ef       	ldi	r20, 0xFA	; 250
    447e:	54 e4       	ldi	r21, 0x44	; 68
    4480:	6a ad       	ldd	r22, Y+58	; 0x3a
    4482:	7b ad       	ldd	r23, Y+59	; 0x3b
    4484:	8c ad       	ldd	r24, Y+60	; 0x3c
    4486:	9d ad       	ldd	r25, Y+61	; 0x3d
    4488:	0e 94 35 30 	call	0x606a	; 0x606a <__mulsf3>
    448c:	c4 5c       	subi	r28, 0xC4	; 196
    448e:	de 4f       	sbci	r29, 0xFE	; 254
    4490:	68 83       	st	Y, r22
    4492:	79 83       	std	Y+1, r23	; 0x01
    4494:	8a 83       	std	Y+2, r24	; 0x02
    4496:	9b 83       	std	Y+3, r25	; 0x03
    4498:	cc 53       	subi	r28, 0x3C	; 60
    449a:	d1 40       	sbci	r29, 0x01	; 1
    449c:	c4 5c       	subi	r28, 0xC4	; 196
    449e:	de 4f       	sbci	r29, 0xFE	; 254
    44a0:	88 81       	ld	r24, Y
    44a2:	99 81       	ldd	r25, Y+1	; 0x01
    44a4:	aa 81       	ldd	r26, Y+2	; 0x02
    44a6:	bb 81       	ldd	r27, Y+3	; 0x03
    44a8:	cc 53       	subi	r28, 0x3C	; 60
    44aa:	d1 40       	sbci	r29, 0x01	; 1
    44ac:	f8 01       	movw	r30, r16
    44ae:	80 83       	st	Z, r24
    44b0:	91 83       	std	Z+1, r25	; 0x01
    44b2:	a2 83       	std	Z+2, r26	; 0x02
    44b4:	b3 83       	std	Z+3, r27	; 0x03

000044b6 <.LM120>:
    44b6:	ce 01       	movw	r24, r28
    44b8:	ce 96       	adiw	r24, 0x3e	; 62
    44ba:	20 e0       	ldi	r18, 0x00	; 0
    44bc:	30 e0       	ldi	r19, 0x00	; 0
    44be:	40 e8       	ldi	r20, 0x80	; 128
    44c0:	5f e3       	ldi	r21, 0x3F	; 63
    44c2:	dc 01       	movw	r26, r24
    44c4:	6d 91       	ld	r22, X+
    44c6:	7d 91       	ld	r23, X+
    44c8:	8d 91       	ld	r24, X+
    44ca:	9c 91       	ld	r25, X
    44cc:	0e 94 af 2f 	call	0x5f5e	; 0x5f5e <__cmpsf2>
    44d0:	88 23       	and	r24, r24
    44d2:	4c f4       	brge	.+18     	; 0x44e6 <.L154>

000044d4 <.LM121>:
    44d4:	ce 01       	movw	r24, r28
    44d6:	8e 5b       	subi	r24, 0xBE	; 190
    44d8:	9f 4f       	sbci	r25, 0xFF	; 255
    44da:	21 e0       	ldi	r18, 0x01	; 1
    44dc:	30 e0       	ldi	r19, 0x00	; 0
    44de:	fc 01       	movw	r30, r24
    44e0:	31 83       	std	Z+1, r19	; 0x01
    44e2:	20 83       	st	Z, r18
    44e4:	9f c0       	rjmp	.+318    	; 0x4624 <.L54>

000044e6 <.L154>:
    44e6:	ce 01       	movw	r24, r28
    44e8:	ce 96       	adiw	r24, 0x3e	; 62
    44ea:	20 e0       	ldi	r18, 0x00	; 0
    44ec:	3f ef       	ldi	r19, 0xFF	; 255
    44ee:	4f e7       	ldi	r20, 0x7F	; 127
    44f0:	57 e4       	ldi	r21, 0x47	; 71
    44f2:	dc 01       	movw	r26, r24
    44f4:	6d 91       	ld	r22, X+
    44f6:	7d 91       	ld	r23, X+
    44f8:	8d 91       	ld	r24, X+
    44fa:	9c 91       	ld	r25, X
    44fc:	0e 94 30 30 	call	0x6060	; 0x6060 <__gesf2>
    4500:	88 23       	and	r24, r24
    4502:	09 f0       	breq	.+2      	; 0x4506 <L0^A>

00004504 <L0^A>:
    4504:	0c f4       	brge	.+2      	; 0x4508 <.LM123>

00004506 <L0^A>:
    4506:	71 c0       	rjmp	.+226    	; 0x45ea <.L155>

00004508 <.LM123>:
    4508:	20 e0       	ldi	r18, 0x00	; 0
    450a:	30 e0       	ldi	r19, 0x00	; 0
    450c:	40 e2       	ldi	r20, 0x20	; 32
    450e:	51 e4       	ldi	r21, 0x41	; 65
    4510:	6a ad       	ldd	r22, Y+58	; 0x3a
    4512:	7b ad       	ldd	r23, Y+59	; 0x3b
    4514:	8c ad       	ldd	r24, Y+60	; 0x3c
    4516:	9d ad       	ldd	r25, Y+61	; 0x3d
    4518:	0e 94 35 30 	call	0x606a	; 0x606a <__mulsf3>
    451c:	c0 5c       	subi	r28, 0xC0	; 192
    451e:	de 4f       	sbci	r29, 0xFE	; 254
    4520:	68 83       	st	Y, r22
    4522:	79 83       	std	Y+1, r23	; 0x01
    4524:	8a 83       	std	Y+2, r24	; 0x02
    4526:	9b 83       	std	Y+3, r25	; 0x03
    4528:	c0 54       	subi	r28, 0x40	; 64
    452a:	d1 40       	sbci	r29, 0x01	; 1
    452c:	c0 5c       	subi	r28, 0xC0	; 192
    452e:	de 4f       	sbci	r29, 0xFE	; 254
    4530:	88 81       	ld	r24, Y
    4532:	99 81       	ldd	r25, Y+1	; 0x01
    4534:	aa 81       	ldd	r26, Y+2	; 0x02
    4536:	bb 81       	ldd	r27, Y+3	; 0x03
    4538:	c0 54       	subi	r28, 0x40	; 64
    453a:	d1 40       	sbci	r29, 0x01	; 1
    453c:	c8 53       	subi	r28, 0x38	; 56
    453e:	df 4f       	sbci	r29, 0xFF	; 255
    4540:	88 83       	st	Y, r24
    4542:	99 83       	std	Y+1, r25	; 0x01
    4544:	aa 83       	std	Y+2, r26	; 0x02
    4546:	bb 83       	std	Y+3, r27	; 0x03
    4548:	c8 5c       	subi	r28, 0xC8	; 200
    454a:	d0 40       	sbci	r29, 0x00	; 0

0000454c <.LM124>:
    454c:	8e 01       	movw	r16, r28
    454e:	0e 5b       	subi	r16, 0xBE	; 190
    4550:	1f 4f       	sbci	r17, 0xFF	; 255
    4552:	c8 53       	subi	r28, 0x38	; 56
    4554:	df 4f       	sbci	r29, 0xFF	; 255
    4556:	68 81       	ld	r22, Y
    4558:	79 81       	ldd	r23, Y+1	; 0x01
    455a:	8a 81       	ldd	r24, Y+2	; 0x02
    455c:	9b 81       	ldd	r25, Y+3	; 0x03
    455e:	c8 5c       	subi	r28, 0xC8	; 200
    4560:	d0 40       	sbci	r29, 0x00	; 0
    4562:	0e 94 b4 2f 	call	0x5f68	; 0x5f68 <__fixunssfsi>
    4566:	cc 5b       	subi	r28, 0xBC	; 188
    4568:	de 4f       	sbci	r29, 0xFE	; 254
    456a:	68 83       	st	Y, r22
    456c:	79 83       	std	Y+1, r23	; 0x01
    456e:	8a 83       	std	Y+2, r24	; 0x02
    4570:	9b 83       	std	Y+3, r25	; 0x03
    4572:	c4 54       	subi	r28, 0x44	; 68
    4574:	d1 40       	sbci	r29, 0x01	; 1
    4576:	cc 5b       	subi	r28, 0xBC	; 188
    4578:	de 4f       	sbci	r29, 0xFE	; 254
    457a:	e8 81       	ld	r30, Y
    457c:	f9 81       	ldd	r31, Y+1	; 0x01
    457e:	c4 54       	subi	r28, 0x44	; 68
    4580:	d1 40       	sbci	r29, 0x01	; 1
    4582:	d8 01       	movw	r26, r16
    4584:	11 96       	adiw	r26, 0x01	; 1
    4586:	fc 93       	st	X, r31
    4588:	ee 93       	st	-X, r30

0000458a <.LM125>:
    458a:	26 c0       	rjmp	.+76     	; 0x45d8 <.L57>

0000458c <.L58>:
    458c:	ce 01       	movw	r24, r28
    458e:	8c 5b       	subi	r24, 0xBC	; 188
    4590:	9f 4f       	sbci	r25, 0xFF	; 255
    4592:	28 ec       	ldi	r18, 0xC8	; 200
    4594:	30 e0       	ldi	r19, 0x00	; 0
    4596:	dc 01       	movw	r26, r24
    4598:	2d 93       	st	X+, r18
    459a:	3c 93       	st	X, r19

0000459c <.LM126>:
    459c:	ce 01       	movw	r24, r28
    459e:	8c 5b       	subi	r24, 0xBC	; 188
    45a0:	9f 4f       	sbci	r25, 0xFF	; 255
    45a2:	fc 01       	movw	r30, r24
    45a4:	80 81       	ld	r24, Z
    45a6:	91 81       	ldd	r25, Z+1	; 0x01

000045a8 <.L1^B11>:
    45a8:	01 97       	sbiw	r24, 0x01	; 1
    45aa:	f1 f7       	brne	.-4      	; 0x45a8 <.L1^B11>
    45ac:	9e 01       	movw	r18, r28
    45ae:	2c 5b       	subi	r18, 0xBC	; 188
    45b0:	3f 4f       	sbci	r19, 0xFF	; 255
    45b2:	d9 01       	movw	r26, r18
    45b4:	8d 93       	st	X+, r24
    45b6:	9c 93       	st	X, r25

000045b8 <.LM127>:
	...

000045ba <.LM128>:
    45ba:	ce 01       	movw	r24, r28
    45bc:	8e 5b       	subi	r24, 0xBE	; 190
    45be:	9f 4f       	sbci	r25, 0xFF	; 255
    45c0:	9e 01       	movw	r18, r28
    45c2:	2e 5b       	subi	r18, 0xBE	; 190
    45c4:	3f 4f       	sbci	r19, 0xFF	; 255
    45c6:	f9 01       	movw	r30, r18
    45c8:	20 81       	ld	r18, Z
    45ca:	31 81       	ldd	r19, Z+1	; 0x01
    45cc:	21 50       	subi	r18, 0x01	; 1
    45ce:	31 09       	sbc	r19, r1
    45d0:	dc 01       	movw	r26, r24
    45d2:	11 96       	adiw	r26, 0x01	; 1
    45d4:	3c 93       	st	X, r19
    45d6:	2e 93       	st	-X, r18

000045d8 <.L57>:
    45d8:	ce 01       	movw	r24, r28
    45da:	8e 5b       	subi	r24, 0xBE	; 190
    45dc:	9f 4f       	sbci	r25, 0xFF	; 255
    45de:	fc 01       	movw	r30, r24
    45e0:	80 81       	ld	r24, Z
    45e2:	91 81       	ldd	r25, Z+1	; 0x01
    45e4:	00 97       	sbiw	r24, 0x00	; 0
    45e6:	91 f6       	brne	.-92     	; 0x458c <.L58>

000045e8 <.LM130>:
    45e8:	38 c0       	rjmp	.+112    	; 0x465a <.L59>

000045ea <.L155>:
    45ea:	8e 01       	movw	r16, r28
    45ec:	0e 5b       	subi	r16, 0xBE	; 190
    45ee:	1f 4f       	sbci	r17, 0xFF	; 255
    45f0:	ce 01       	movw	r24, r28
    45f2:	ce 96       	adiw	r24, 0x3e	; 62
    45f4:	dc 01       	movw	r26, r24
    45f6:	6d 91       	ld	r22, X+
    45f8:	7d 91       	ld	r23, X+
    45fa:	8d 91       	ld	r24, X+
    45fc:	9c 91       	ld	r25, X
    45fe:	0e 94 b4 2f 	call	0x5f68	; 0x5f68 <__fixunssfsi>
    4602:	c8 5b       	subi	r28, 0xB8	; 184
    4604:	de 4f       	sbci	r29, 0xFE	; 254
    4606:	68 83       	st	Y, r22
    4608:	79 83       	std	Y+1, r23	; 0x01
    460a:	8a 83       	std	Y+2, r24	; 0x02
    460c:	9b 83       	std	Y+3, r25	; 0x03
    460e:	c8 54       	subi	r28, 0x48	; 72
    4610:	d1 40       	sbci	r29, 0x01	; 1
    4612:	c8 5b       	subi	r28, 0xB8	; 184
    4614:	de 4f       	sbci	r29, 0xFE	; 254
    4616:	88 81       	ld	r24, Y
    4618:	99 81       	ldd	r25, Y+1	; 0x01
    461a:	c8 54       	subi	r28, 0x48	; 72
    461c:	d1 40       	sbci	r29, 0x01	; 1
    461e:	f8 01       	movw	r30, r16
    4620:	91 83       	std	Z+1, r25	; 0x01
    4622:	80 83       	st	Z, r24

00004624 <.L54>:
    4624:	ce 01       	movw	r24, r28
    4626:	8a 5b       	subi	r24, 0xBA	; 186
    4628:	9f 4f       	sbci	r25, 0xFF	; 255
    462a:	9e 01       	movw	r18, r28
    462c:	2e 5b       	subi	r18, 0xBE	; 190
    462e:	3f 4f       	sbci	r19, 0xFF	; 255
    4630:	d9 01       	movw	r26, r18
    4632:	2d 91       	ld	r18, X+
    4634:	3c 91       	ld	r19, X
    4636:	fc 01       	movw	r30, r24
    4638:	31 83       	std	Z+1, r19	; 0x01
    463a:	20 83       	st	Z, r18

0000463c <.LM132>:
    463c:	ce 01       	movw	r24, r28
    463e:	8a 5b       	subi	r24, 0xBA	; 186
    4640:	9f 4f       	sbci	r25, 0xFF	; 255
    4642:	dc 01       	movw	r26, r24
    4644:	8d 91       	ld	r24, X+
    4646:	9c 91       	ld	r25, X

00004648 <.L1^B12>:
    4648:	01 97       	sbiw	r24, 0x01	; 1
    464a:	f1 f7       	brne	.-4      	; 0x4648 <.L1^B12>
    464c:	9e 01       	movw	r18, r28
    464e:	2a 5b       	subi	r18, 0xBA	; 186
    4650:	3f 4f       	sbci	r19, 0xFF	; 255
    4652:	f9 01       	movw	r30, r18
    4654:	91 83       	std	Z+1, r25	; 0x01
    4656:	80 83       	st	Z, r24

00004658 <.LM133>:
	...

0000465a <.L59>:
    465a:	81 e0       	ldi	r24, 0x01	; 1
    465c:	0e 94 66 15 	call	0x2acc	; 0x2acc <LCD_WriteCommand>

00004660 <.LM135>:
    4660:	80 e0       	ldi	r24, 0x00	; 0
    4662:	a3 c7       	rjmp	.+3910   	; 0x55aa <.L43>

00004664 <.L33>:
    4664:	0e 94 b6 2b 	call	0x576c	; 0x576c <checkUser2Pass>

00004668 <.LM137>:
    4668:	81 30       	cpi	r24, 0x01	; 1
    466a:	09 f0       	breq	.+2      	; 0x466e <.LM138>

0000466c <L0^A>:
    466c:	16 c1       	rjmp	.+556    	; 0x489a <.L60>

0000466e <.LM138>:
    466e:	80 ea       	ldi	r24, 0xA0	; 160
    4670:	90 e0       	ldi	r25, 0x00	; 0
    4672:	0e 94 97 1b 	call	0x372e	; 0x372e <LCD_WriteString>
    4676:	9e 01       	movw	r18, r28
    4678:	2a 5a       	subi	r18, 0xAA	; 170
    467a:	3f 4f       	sbci	r19, 0xFF	; 255
    467c:	80 e0       	ldi	r24, 0x00	; 0
    467e:	90 e0       	ldi	r25, 0x00	; 0
    4680:	a8 ec       	ldi	r26, 0xC8	; 200
    4682:	b2 e4       	ldi	r27, 0x42	; 66
    4684:	f9 01       	movw	r30, r18
    4686:	80 83       	st	Z, r24
    4688:	91 83       	std	Z+1, r25	; 0x01
    468a:	a2 83       	std	Z+2, r26	; 0x02
    468c:	b3 83       	std	Z+3, r27	; 0x03

0000468e <.LM139>:
    468e:	8e 01       	movw	r16, r28
    4690:	06 5a       	subi	r16, 0xA6	; 166
    4692:	1f 4f       	sbci	r17, 0xFF	; 255
    4694:	ce 01       	movw	r24, r28
    4696:	8a 5a       	subi	r24, 0xAA	; 170
    4698:	9f 4f       	sbci	r25, 0xFF	; 255
    469a:	20 e0       	ldi	r18, 0x00	; 0
    469c:	30 e0       	ldi	r19, 0x00	; 0
    469e:	4a ef       	ldi	r20, 0xFA	; 250
    46a0:	54 e4       	ldi	r21, 0x44	; 68
    46a2:	dc 01       	movw	r26, r24
    46a4:	6d 91       	ld	r22, X+
    46a6:	7d 91       	ld	r23, X+
    46a8:	8d 91       	ld	r24, X+
    46aa:	9c 91       	ld	r25, X
    46ac:	0e 94 35 30 	call	0x606a	; 0x606a <__mulsf3>
    46b0:	c4 5b       	subi	r28, 0xB4	; 180
    46b2:	de 4f       	sbci	r29, 0xFE	; 254
    46b4:	68 83       	st	Y, r22
    46b6:	79 83       	std	Y+1, r23	; 0x01
    46b8:	8a 83       	std	Y+2, r24	; 0x02
    46ba:	9b 83       	std	Y+3, r25	; 0x03
    46bc:	cc 54       	subi	r28, 0x4C	; 76
    46be:	d1 40       	sbci	r29, 0x01	; 1
    46c0:	c4 5b       	subi	r28, 0xB4	; 180
    46c2:	de 4f       	sbci	r29, 0xFE	; 254
    46c4:	88 81       	ld	r24, Y
    46c6:	99 81       	ldd	r25, Y+1	; 0x01
    46c8:	aa 81       	ldd	r26, Y+2	; 0x02
    46ca:	bb 81       	ldd	r27, Y+3	; 0x03
    46cc:	cc 54       	subi	r28, 0x4C	; 76
    46ce:	d1 40       	sbci	r29, 0x01	; 1
    46d0:	f8 01       	movw	r30, r16
    46d2:	80 83       	st	Z, r24
    46d4:	91 83       	std	Z+1, r25	; 0x01
    46d6:	a2 83       	std	Z+2, r26	; 0x02
    46d8:	b3 83       	std	Z+3, r27	; 0x03

000046da <.LM140>:
    46da:	ce 01       	movw	r24, r28
    46dc:	86 5a       	subi	r24, 0xA6	; 166
    46de:	9f 4f       	sbci	r25, 0xFF	; 255
    46e0:	20 e0       	ldi	r18, 0x00	; 0
    46e2:	30 e0       	ldi	r19, 0x00	; 0
    46e4:	40 e8       	ldi	r20, 0x80	; 128
    46e6:	5f e3       	ldi	r21, 0x3F	; 63
    46e8:	dc 01       	movw	r26, r24
    46ea:	6d 91       	ld	r22, X+
    46ec:	7d 91       	ld	r23, X+
    46ee:	8d 91       	ld	r24, X+
    46f0:	9c 91       	ld	r25, X
    46f2:	0e 94 af 2f 	call	0x5f5e	; 0x5f5e <__cmpsf2>
    46f6:	88 23       	and	r24, r24
    46f8:	4c f4       	brge	.+18     	; 0x470c <.L156>

000046fa <.LM141>:
    46fa:	ce 01       	movw	r24, r28
    46fc:	82 5a       	subi	r24, 0xA2	; 162
    46fe:	9f 4f       	sbci	r25, 0xFF	; 255
    4700:	21 e0       	ldi	r18, 0x01	; 1
    4702:	30 e0       	ldi	r19, 0x00	; 0
    4704:	fc 01       	movw	r30, r24
    4706:	31 83       	std	Z+1, r19	; 0x01
    4708:	20 83       	st	Z, r18
    470a:	a5 c0       	rjmp	.+330    	; 0x4856 <.L63>

0000470c <.L156>:
    470c:	ce 01       	movw	r24, r28
    470e:	86 5a       	subi	r24, 0xA6	; 166
    4710:	9f 4f       	sbci	r25, 0xFF	; 255
    4712:	20 e0       	ldi	r18, 0x00	; 0
    4714:	3f ef       	ldi	r19, 0xFF	; 255
    4716:	4f e7       	ldi	r20, 0x7F	; 127
    4718:	57 e4       	ldi	r21, 0x47	; 71
    471a:	dc 01       	movw	r26, r24
    471c:	6d 91       	ld	r22, X+
    471e:	7d 91       	ld	r23, X+
    4720:	8d 91       	ld	r24, X+
    4722:	9c 91       	ld	r25, X
    4724:	0e 94 30 30 	call	0x6060	; 0x6060 <__gesf2>
    4728:	88 23       	and	r24, r24
    472a:	09 f0       	breq	.+2      	; 0x472e <L0^A>

0000472c <L0^A>:
    472c:	0c f4       	brge	.+2      	; 0x4730 <.LM143>

0000472e <L0^A>:
    472e:	75 c0       	rjmp	.+234    	; 0x481a <.L157>

00004730 <.LM143>:
    4730:	ce 01       	movw	r24, r28
    4732:	8a 5a       	subi	r24, 0xAA	; 170
    4734:	9f 4f       	sbci	r25, 0xFF	; 255
    4736:	20 e0       	ldi	r18, 0x00	; 0
    4738:	30 e0       	ldi	r19, 0x00	; 0
    473a:	40 e2       	ldi	r20, 0x20	; 32
    473c:	51 e4       	ldi	r21, 0x41	; 65
    473e:	fc 01       	movw	r30, r24
    4740:	60 81       	ld	r22, Z
    4742:	71 81       	ldd	r23, Z+1	; 0x01
    4744:	82 81       	ldd	r24, Z+2	; 0x02
    4746:	93 81       	ldd	r25, Z+3	; 0x03
    4748:	0e 94 35 30 	call	0x606a	; 0x606a <__mulsf3>
    474c:	c0 5b       	subi	r28, 0xB0	; 176
    474e:	de 4f       	sbci	r29, 0xFE	; 254
    4750:	68 83       	st	Y, r22
    4752:	79 83       	std	Y+1, r23	; 0x01
    4754:	8a 83       	std	Y+2, r24	; 0x02
    4756:	9b 83       	std	Y+3, r25	; 0x03
    4758:	c0 55       	subi	r28, 0x50	; 80
    475a:	d1 40       	sbci	r29, 0x01	; 1
    475c:	c0 5b       	subi	r28, 0xB0	; 176
    475e:	de 4f       	sbci	r29, 0xFE	; 254
    4760:	88 81       	ld	r24, Y
    4762:	99 81       	ldd	r25, Y+1	; 0x01
    4764:	aa 81       	ldd	r26, Y+2	; 0x02
    4766:	bb 81       	ldd	r27, Y+3	; 0x03
    4768:	c0 55       	subi	r28, 0x50	; 80
    476a:	d1 40       	sbci	r29, 0x01	; 1
    476c:	c0 53       	subi	r28, 0x30	; 48
    476e:	df 4f       	sbci	r29, 0xFF	; 255
    4770:	88 83       	st	Y, r24
    4772:	99 83       	std	Y+1, r25	; 0x01
    4774:	aa 83       	std	Y+2, r26	; 0x02
    4776:	bb 83       	std	Y+3, r27	; 0x03
    4778:	c0 5d       	subi	r28, 0xD0	; 208
    477a:	d0 40       	sbci	r29, 0x00	; 0

0000477c <.LM144>:
    477c:	8e 01       	movw	r16, r28
    477e:	02 5a       	subi	r16, 0xA2	; 162
    4780:	1f 4f       	sbci	r17, 0xFF	; 255
    4782:	c0 53       	subi	r28, 0x30	; 48
    4784:	df 4f       	sbci	r29, 0xFF	; 255
    4786:	68 81       	ld	r22, Y
    4788:	79 81       	ldd	r23, Y+1	; 0x01
    478a:	8a 81       	ldd	r24, Y+2	; 0x02
    478c:	9b 81       	ldd	r25, Y+3	; 0x03
    478e:	c0 5d       	subi	r28, 0xD0	; 208
    4790:	d0 40       	sbci	r29, 0x00	; 0
    4792:	0e 94 b4 2f 	call	0x5f68	; 0x5f68 <__fixunssfsi>
    4796:	cc 5a       	subi	r28, 0xAC	; 172
    4798:	de 4f       	sbci	r29, 0xFE	; 254
    479a:	68 83       	st	Y, r22
    479c:	79 83       	std	Y+1, r23	; 0x01
    479e:	8a 83       	std	Y+2, r24	; 0x02
    47a0:	9b 83       	std	Y+3, r25	; 0x03
    47a2:	c4 55       	subi	r28, 0x54	; 84
    47a4:	d1 40       	sbci	r29, 0x01	; 1
    47a6:	cc 5a       	subi	r28, 0xAC	; 172
    47a8:	de 4f       	sbci	r29, 0xFE	; 254
    47aa:	e8 81       	ld	r30, Y
    47ac:	f9 81       	ldd	r31, Y+1	; 0x01
    47ae:	c4 55       	subi	r28, 0x54	; 84
    47b0:	d1 40       	sbci	r29, 0x01	; 1
    47b2:	d8 01       	movw	r26, r16
    47b4:	11 96       	adiw	r26, 0x01	; 1
    47b6:	fc 93       	st	X, r31
    47b8:	ee 93       	st	-X, r30

000047ba <.LM145>:
    47ba:	26 c0       	rjmp	.+76     	; 0x4808 <.L66>

000047bc <.L67>:
    47bc:	ce 01       	movw	r24, r28
    47be:	80 5a       	subi	r24, 0xA0	; 160
    47c0:	9f 4f       	sbci	r25, 0xFF	; 255
    47c2:	28 ec       	ldi	r18, 0xC8	; 200
    47c4:	30 e0       	ldi	r19, 0x00	; 0
    47c6:	dc 01       	movw	r26, r24
    47c8:	2d 93       	st	X+, r18
    47ca:	3c 93       	st	X, r19

000047cc <.LM146>:
    47cc:	ce 01       	movw	r24, r28
    47ce:	80 5a       	subi	r24, 0xA0	; 160
    47d0:	9f 4f       	sbci	r25, 0xFF	; 255
    47d2:	fc 01       	movw	r30, r24
    47d4:	80 81       	ld	r24, Z
    47d6:	91 81       	ldd	r25, Z+1	; 0x01

000047d8 <.L1^B13>:
    47d8:	01 97       	sbiw	r24, 0x01	; 1
    47da:	f1 f7       	brne	.-4      	; 0x47d8 <.L1^B13>
    47dc:	9e 01       	movw	r18, r28
    47de:	20 5a       	subi	r18, 0xA0	; 160
    47e0:	3f 4f       	sbci	r19, 0xFF	; 255
    47e2:	d9 01       	movw	r26, r18
    47e4:	8d 93       	st	X+, r24
    47e6:	9c 93       	st	X, r25

000047e8 <.LM147>:
	...

000047ea <.LM148>:
    47ea:	ce 01       	movw	r24, r28
    47ec:	82 5a       	subi	r24, 0xA2	; 162
    47ee:	9f 4f       	sbci	r25, 0xFF	; 255
    47f0:	9e 01       	movw	r18, r28
    47f2:	22 5a       	subi	r18, 0xA2	; 162
    47f4:	3f 4f       	sbci	r19, 0xFF	; 255
    47f6:	f9 01       	movw	r30, r18
    47f8:	20 81       	ld	r18, Z
    47fa:	31 81       	ldd	r19, Z+1	; 0x01
    47fc:	21 50       	subi	r18, 0x01	; 1
    47fe:	31 09       	sbc	r19, r1
    4800:	dc 01       	movw	r26, r24
    4802:	11 96       	adiw	r26, 0x01	; 1
    4804:	3c 93       	st	X, r19
    4806:	2e 93       	st	-X, r18

00004808 <.L66>:
    4808:	ce 01       	movw	r24, r28
    480a:	82 5a       	subi	r24, 0xA2	; 162
    480c:	9f 4f       	sbci	r25, 0xFF	; 255
    480e:	fc 01       	movw	r30, r24
    4810:	80 81       	ld	r24, Z
    4812:	91 81       	ldd	r25, Z+1	; 0x01
    4814:	00 97       	sbiw	r24, 0x00	; 0
    4816:	91 f6       	brne	.-92     	; 0x47bc <.L67>

00004818 <.LM150>:
    4818:	39 c0       	rjmp	.+114    	; 0x488c <.L68>

0000481a <.L157>:
    481a:	8e 01       	movw	r16, r28
    481c:	02 5a       	subi	r16, 0xA2	; 162
    481e:	1f 4f       	sbci	r17, 0xFF	; 255
    4820:	ce 01       	movw	r24, r28
    4822:	86 5a       	subi	r24, 0xA6	; 166
    4824:	9f 4f       	sbci	r25, 0xFF	; 255
    4826:	dc 01       	movw	r26, r24
    4828:	6d 91       	ld	r22, X+
    482a:	7d 91       	ld	r23, X+
    482c:	8d 91       	ld	r24, X+
    482e:	9c 91       	ld	r25, X
    4830:	0e 94 b4 2f 	call	0x5f68	; 0x5f68 <__fixunssfsi>
    4834:	c8 5a       	subi	r28, 0xA8	; 168
    4836:	de 4f       	sbci	r29, 0xFE	; 254
    4838:	68 83       	st	Y, r22
    483a:	79 83       	std	Y+1, r23	; 0x01
    483c:	8a 83       	std	Y+2, r24	; 0x02
    483e:	9b 83       	std	Y+3, r25	; 0x03
    4840:	c8 55       	subi	r28, 0x58	; 88
    4842:	d1 40       	sbci	r29, 0x01	; 1
    4844:	c8 5a       	subi	r28, 0xA8	; 168
    4846:	de 4f       	sbci	r29, 0xFE	; 254
    4848:	88 81       	ld	r24, Y
    484a:	99 81       	ldd	r25, Y+1	; 0x01
    484c:	c8 55       	subi	r28, 0x58	; 88
    484e:	d1 40       	sbci	r29, 0x01	; 1
    4850:	f8 01       	movw	r30, r16
    4852:	91 83       	std	Z+1, r25	; 0x01
    4854:	80 83       	st	Z, r24

00004856 <.L63>:
    4856:	ce 01       	movw	r24, r28
    4858:	8e 59       	subi	r24, 0x9E	; 158
    485a:	9f 4f       	sbci	r25, 0xFF	; 255
    485c:	9e 01       	movw	r18, r28
    485e:	22 5a       	subi	r18, 0xA2	; 162
    4860:	3f 4f       	sbci	r19, 0xFF	; 255
    4862:	d9 01       	movw	r26, r18
    4864:	2d 91       	ld	r18, X+
    4866:	3c 91       	ld	r19, X
    4868:	fc 01       	movw	r30, r24
    486a:	31 83       	std	Z+1, r19	; 0x01
    486c:	20 83       	st	Z, r18

0000486e <.LM152>:
    486e:	ce 01       	movw	r24, r28
    4870:	8e 59       	subi	r24, 0x9E	; 158
    4872:	9f 4f       	sbci	r25, 0xFF	; 255
    4874:	dc 01       	movw	r26, r24
    4876:	8d 91       	ld	r24, X+
    4878:	9c 91       	ld	r25, X

0000487a <.L1^B14>:
    487a:	01 97       	sbiw	r24, 0x01	; 1
    487c:	f1 f7       	brne	.-4      	; 0x487a <.L1^B14>
    487e:	9e 01       	movw	r18, r28
    4880:	2e 59       	subi	r18, 0x9E	; 158
    4882:	3f 4f       	sbci	r19, 0xFF	; 255
    4884:	f9 01       	movw	r30, r18
    4886:	91 83       	std	Z+1, r25	; 0x01
    4888:	80 83       	st	Z, r24

0000488a <.LM153>:
	...

0000488c <.L68>:
    488c:	81 e0       	ldi	r24, 0x01	; 1
    488e:	0e 94 66 15 	call	0x2acc	; 0x2acc <LCD_WriteCommand>

00004892 <.LM155>:
    4892:	0e 94 60 2d 	call	0x5ac0	; 0x5ac0 <options>

00004896 <.LM156>:
    4896:	80 e0       	ldi	r24, 0x00	; 0
    4898:	88 c6       	rjmp	.+3344   	; 0x55aa <.L43>

0000489a <.L60>:
    489a:	8b ea       	ldi	r24, 0xAB	; 171
    489c:	90 e0       	ldi	r25, 0x00	; 0
    489e:	0e 94 97 1b 	call	0x372e	; 0x372e <LCD_WriteString>
    48a2:	9e 01       	movw	r18, r28
    48a4:	2e 58       	subi	r18, 0x8E	; 142
    48a6:	3f 4f       	sbci	r19, 0xFF	; 255
    48a8:	80 e0       	ldi	r24, 0x00	; 0
    48aa:	90 e0       	ldi	r25, 0x00	; 0
    48ac:	a6 e9       	ldi	r26, 0x96	; 150
    48ae:	b3 e4       	ldi	r27, 0x43	; 67
    48b0:	f9 01       	movw	r30, r18
    48b2:	80 83       	st	Z, r24
    48b4:	91 83       	std	Z+1, r25	; 0x01
    48b6:	a2 83       	std	Z+2, r26	; 0x02
    48b8:	b3 83       	std	Z+3, r27	; 0x03

000048ba <.LM158>:
    48ba:	8e 01       	movw	r16, r28
    48bc:	0a 58       	subi	r16, 0x8A	; 138
    48be:	1f 4f       	sbci	r17, 0xFF	; 255
    48c0:	ce 01       	movw	r24, r28
    48c2:	8e 58       	subi	r24, 0x8E	; 142
    48c4:	9f 4f       	sbci	r25, 0xFF	; 255
    48c6:	20 e0       	ldi	r18, 0x00	; 0
    48c8:	30 e0       	ldi	r19, 0x00	; 0
    48ca:	4a ef       	ldi	r20, 0xFA	; 250
    48cc:	54 e4       	ldi	r21, 0x44	; 68
    48ce:	dc 01       	movw	r26, r24
    48d0:	6d 91       	ld	r22, X+
    48d2:	7d 91       	ld	r23, X+
    48d4:	8d 91       	ld	r24, X+
    48d6:	9c 91       	ld	r25, X
    48d8:	0e 94 35 30 	call	0x606a	; 0x606a <__mulsf3>
    48dc:	c4 5a       	subi	r28, 0xA4	; 164
    48de:	de 4f       	sbci	r29, 0xFE	; 254
    48e0:	68 83       	st	Y, r22
    48e2:	79 83       	std	Y+1, r23	; 0x01
    48e4:	8a 83       	std	Y+2, r24	; 0x02
    48e6:	9b 83       	std	Y+3, r25	; 0x03
    48e8:	cc 55       	subi	r28, 0x5C	; 92
    48ea:	d1 40       	sbci	r29, 0x01	; 1
    48ec:	c4 5a       	subi	r28, 0xA4	; 164
    48ee:	de 4f       	sbci	r29, 0xFE	; 254
    48f0:	88 81       	ld	r24, Y
    48f2:	99 81       	ldd	r25, Y+1	; 0x01
    48f4:	aa 81       	ldd	r26, Y+2	; 0x02
    48f6:	bb 81       	ldd	r27, Y+3	; 0x03
    48f8:	cc 55       	subi	r28, 0x5C	; 92
    48fa:	d1 40       	sbci	r29, 0x01	; 1
    48fc:	f8 01       	movw	r30, r16
    48fe:	80 83       	st	Z, r24
    4900:	91 83       	std	Z+1, r25	; 0x01
    4902:	a2 83       	std	Z+2, r26	; 0x02
    4904:	b3 83       	std	Z+3, r27	; 0x03

00004906 <.LM159>:
    4906:	ce 01       	movw	r24, r28
    4908:	8a 58       	subi	r24, 0x8A	; 138
    490a:	9f 4f       	sbci	r25, 0xFF	; 255
    490c:	20 e0       	ldi	r18, 0x00	; 0
    490e:	30 e0       	ldi	r19, 0x00	; 0
    4910:	40 e8       	ldi	r20, 0x80	; 128
    4912:	5f e3       	ldi	r21, 0x3F	; 63
    4914:	dc 01       	movw	r26, r24
    4916:	6d 91       	ld	r22, X+
    4918:	7d 91       	ld	r23, X+
    491a:	8d 91       	ld	r24, X+
    491c:	9c 91       	ld	r25, X
    491e:	0e 94 af 2f 	call	0x5f5e	; 0x5f5e <__cmpsf2>
    4922:	88 23       	and	r24, r24
    4924:	4c f4       	brge	.+18     	; 0x4938 <.L158>

00004926 <.LM160>:
    4926:	ce 01       	movw	r24, r28
    4928:	86 58       	subi	r24, 0x86	; 134
    492a:	9f 4f       	sbci	r25, 0xFF	; 255
    492c:	21 e0       	ldi	r18, 0x01	; 1
    492e:	30 e0       	ldi	r19, 0x00	; 0
    4930:	fc 01       	movw	r30, r24
    4932:	31 83       	std	Z+1, r19	; 0x01
    4934:	20 83       	st	Z, r18
    4936:	a5 c0       	rjmp	.+330    	; 0x4a82 <.L71>

00004938 <.L158>:
    4938:	ce 01       	movw	r24, r28
    493a:	8a 58       	subi	r24, 0x8A	; 138
    493c:	9f 4f       	sbci	r25, 0xFF	; 255
    493e:	20 e0       	ldi	r18, 0x00	; 0
    4940:	3f ef       	ldi	r19, 0xFF	; 255
    4942:	4f e7       	ldi	r20, 0x7F	; 127
    4944:	57 e4       	ldi	r21, 0x47	; 71
    4946:	dc 01       	movw	r26, r24
    4948:	6d 91       	ld	r22, X+
    494a:	7d 91       	ld	r23, X+
    494c:	8d 91       	ld	r24, X+
    494e:	9c 91       	ld	r25, X
    4950:	0e 94 30 30 	call	0x6060	; 0x6060 <__gesf2>
    4954:	88 23       	and	r24, r24
    4956:	09 f0       	breq	.+2      	; 0x495a <L0^A>

00004958 <L0^A>:
    4958:	0c f4       	brge	.+2      	; 0x495c <.LM162>

0000495a <L0^A>:
    495a:	75 c0       	rjmp	.+234    	; 0x4a46 <.L159>

0000495c <.LM162>:
    495c:	ce 01       	movw	r24, r28
    495e:	8e 58       	subi	r24, 0x8E	; 142
    4960:	9f 4f       	sbci	r25, 0xFF	; 255
    4962:	20 e0       	ldi	r18, 0x00	; 0
    4964:	30 e0       	ldi	r19, 0x00	; 0
    4966:	40 e2       	ldi	r20, 0x20	; 32
    4968:	51 e4       	ldi	r21, 0x41	; 65
    496a:	fc 01       	movw	r30, r24
    496c:	60 81       	ld	r22, Z
    496e:	71 81       	ldd	r23, Z+1	; 0x01
    4970:	82 81       	ldd	r24, Z+2	; 0x02
    4972:	93 81       	ldd	r25, Z+3	; 0x03
    4974:	0e 94 35 30 	call	0x606a	; 0x606a <__mulsf3>
    4978:	c0 5a       	subi	r28, 0xA0	; 160
    497a:	de 4f       	sbci	r29, 0xFE	; 254
    497c:	68 83       	st	Y, r22
    497e:	79 83       	std	Y+1, r23	; 0x01
    4980:	8a 83       	std	Y+2, r24	; 0x02
    4982:	9b 83       	std	Y+3, r25	; 0x03
    4984:	c0 56       	subi	r28, 0x60	; 96
    4986:	d1 40       	sbci	r29, 0x01	; 1
    4988:	c0 5a       	subi	r28, 0xA0	; 160
    498a:	de 4f       	sbci	r29, 0xFE	; 254
    498c:	88 81       	ld	r24, Y
    498e:	99 81       	ldd	r25, Y+1	; 0x01
    4990:	aa 81       	ldd	r26, Y+2	; 0x02
    4992:	bb 81       	ldd	r27, Y+3	; 0x03
    4994:	c0 56       	subi	r28, 0x60	; 96
    4996:	d1 40       	sbci	r29, 0x01	; 1
    4998:	c8 52       	subi	r28, 0x28	; 40
    499a:	df 4f       	sbci	r29, 0xFF	; 255
    499c:	88 83       	st	Y, r24
    499e:	99 83       	std	Y+1, r25	; 0x01
    49a0:	aa 83       	std	Y+2, r26	; 0x02
    49a2:	bb 83       	std	Y+3, r27	; 0x03
    49a4:	c8 5d       	subi	r28, 0xD8	; 216
    49a6:	d0 40       	sbci	r29, 0x00	; 0

000049a8 <.LM163>:
    49a8:	8e 01       	movw	r16, r28
    49aa:	06 58       	subi	r16, 0x86	; 134
    49ac:	1f 4f       	sbci	r17, 0xFF	; 255
    49ae:	c8 52       	subi	r28, 0x28	; 40
    49b0:	df 4f       	sbci	r29, 0xFF	; 255
    49b2:	68 81       	ld	r22, Y
    49b4:	79 81       	ldd	r23, Y+1	; 0x01
    49b6:	8a 81       	ldd	r24, Y+2	; 0x02
    49b8:	9b 81       	ldd	r25, Y+3	; 0x03
    49ba:	c8 5d       	subi	r28, 0xD8	; 216
    49bc:	d0 40       	sbci	r29, 0x00	; 0
    49be:	0e 94 b4 2f 	call	0x5f68	; 0x5f68 <__fixunssfsi>
    49c2:	cc 59       	subi	r28, 0x9C	; 156
    49c4:	de 4f       	sbci	r29, 0xFE	; 254
    49c6:	68 83       	st	Y, r22
    49c8:	79 83       	std	Y+1, r23	; 0x01
    49ca:	8a 83       	std	Y+2, r24	; 0x02
    49cc:	9b 83       	std	Y+3, r25	; 0x03
    49ce:	c4 56       	subi	r28, 0x64	; 100
    49d0:	d1 40       	sbci	r29, 0x01	; 1
    49d2:	cc 59       	subi	r28, 0x9C	; 156
    49d4:	de 4f       	sbci	r29, 0xFE	; 254
    49d6:	e8 81       	ld	r30, Y
    49d8:	f9 81       	ldd	r31, Y+1	; 0x01
    49da:	c4 56       	subi	r28, 0x64	; 100
    49dc:	d1 40       	sbci	r29, 0x01	; 1
    49de:	d8 01       	movw	r26, r16
    49e0:	11 96       	adiw	r26, 0x01	; 1
    49e2:	fc 93       	st	X, r31
    49e4:	ee 93       	st	-X, r30

000049e6 <.LM164>:
    49e6:	26 c0       	rjmp	.+76     	; 0x4a34 <.L74>

000049e8 <.L75>:
    49e8:	ce 01       	movw	r24, r28
    49ea:	84 58       	subi	r24, 0x84	; 132
    49ec:	9f 4f       	sbci	r25, 0xFF	; 255
    49ee:	28 ec       	ldi	r18, 0xC8	; 200
    49f0:	30 e0       	ldi	r19, 0x00	; 0
    49f2:	dc 01       	movw	r26, r24
    49f4:	2d 93       	st	X+, r18
    49f6:	3c 93       	st	X, r19

000049f8 <.LM165>:
    49f8:	ce 01       	movw	r24, r28
    49fa:	84 58       	subi	r24, 0x84	; 132
    49fc:	9f 4f       	sbci	r25, 0xFF	; 255
    49fe:	fc 01       	movw	r30, r24
    4a00:	80 81       	ld	r24, Z
    4a02:	91 81       	ldd	r25, Z+1	; 0x01

00004a04 <.L1^B15>:
    4a04:	01 97       	sbiw	r24, 0x01	; 1
    4a06:	f1 f7       	brne	.-4      	; 0x4a04 <.L1^B15>
    4a08:	9e 01       	movw	r18, r28
    4a0a:	24 58       	subi	r18, 0x84	; 132
    4a0c:	3f 4f       	sbci	r19, 0xFF	; 255
    4a0e:	d9 01       	movw	r26, r18
    4a10:	8d 93       	st	X+, r24
    4a12:	9c 93       	st	X, r25

00004a14 <.LM166>:
	...

00004a16 <.LM167>:
    4a16:	ce 01       	movw	r24, r28
    4a18:	86 58       	subi	r24, 0x86	; 134
    4a1a:	9f 4f       	sbci	r25, 0xFF	; 255
    4a1c:	9e 01       	movw	r18, r28
    4a1e:	26 58       	subi	r18, 0x86	; 134
    4a20:	3f 4f       	sbci	r19, 0xFF	; 255
    4a22:	f9 01       	movw	r30, r18
    4a24:	20 81       	ld	r18, Z
    4a26:	31 81       	ldd	r19, Z+1	; 0x01
    4a28:	21 50       	subi	r18, 0x01	; 1
    4a2a:	31 09       	sbc	r19, r1
    4a2c:	dc 01       	movw	r26, r24
    4a2e:	11 96       	adiw	r26, 0x01	; 1
    4a30:	3c 93       	st	X, r19
    4a32:	2e 93       	st	-X, r18

00004a34 <.L74>:
    4a34:	ce 01       	movw	r24, r28
    4a36:	86 58       	subi	r24, 0x86	; 134
    4a38:	9f 4f       	sbci	r25, 0xFF	; 255
    4a3a:	fc 01       	movw	r30, r24
    4a3c:	80 81       	ld	r24, Z
    4a3e:	91 81       	ldd	r25, Z+1	; 0x01
    4a40:	00 97       	sbiw	r24, 0x00	; 0
    4a42:	91 f6       	brne	.-92     	; 0x49e8 <.L75>

00004a44 <.LM169>:
    4a44:	39 c0       	rjmp	.+114    	; 0x4ab8 <.L76>

00004a46 <.L159>:
    4a46:	8e 01       	movw	r16, r28
    4a48:	06 58       	subi	r16, 0x86	; 134
    4a4a:	1f 4f       	sbci	r17, 0xFF	; 255
    4a4c:	ce 01       	movw	r24, r28
    4a4e:	8a 58       	subi	r24, 0x8A	; 138
    4a50:	9f 4f       	sbci	r25, 0xFF	; 255
    4a52:	dc 01       	movw	r26, r24
    4a54:	6d 91       	ld	r22, X+
    4a56:	7d 91       	ld	r23, X+
    4a58:	8d 91       	ld	r24, X+
    4a5a:	9c 91       	ld	r25, X
    4a5c:	0e 94 b4 2f 	call	0x5f68	; 0x5f68 <__fixunssfsi>
    4a60:	c8 59       	subi	r28, 0x98	; 152
    4a62:	de 4f       	sbci	r29, 0xFE	; 254
    4a64:	68 83       	st	Y, r22
    4a66:	79 83       	std	Y+1, r23	; 0x01
    4a68:	8a 83       	std	Y+2, r24	; 0x02
    4a6a:	9b 83       	std	Y+3, r25	; 0x03
    4a6c:	c8 56       	subi	r28, 0x68	; 104
    4a6e:	d1 40       	sbci	r29, 0x01	; 1
    4a70:	c8 59       	subi	r28, 0x98	; 152
    4a72:	de 4f       	sbci	r29, 0xFE	; 254
    4a74:	88 81       	ld	r24, Y
    4a76:	99 81       	ldd	r25, Y+1	; 0x01
    4a78:	c8 56       	subi	r28, 0x68	; 104
    4a7a:	d1 40       	sbci	r29, 0x01	; 1
    4a7c:	f8 01       	movw	r30, r16
    4a7e:	91 83       	std	Z+1, r25	; 0x01
    4a80:	80 83       	st	Z, r24

00004a82 <.L71>:
    4a82:	ce 01       	movw	r24, r28
    4a84:	82 58       	subi	r24, 0x82	; 130
    4a86:	9f 4f       	sbci	r25, 0xFF	; 255
    4a88:	9e 01       	movw	r18, r28
    4a8a:	26 58       	subi	r18, 0x86	; 134
    4a8c:	3f 4f       	sbci	r19, 0xFF	; 255
    4a8e:	d9 01       	movw	r26, r18
    4a90:	2d 91       	ld	r18, X+
    4a92:	3c 91       	ld	r19, X
    4a94:	fc 01       	movw	r30, r24
    4a96:	31 83       	std	Z+1, r19	; 0x01
    4a98:	20 83       	st	Z, r18

00004a9a <.LM171>:
    4a9a:	ce 01       	movw	r24, r28
    4a9c:	82 58       	subi	r24, 0x82	; 130
    4a9e:	9f 4f       	sbci	r25, 0xFF	; 255
    4aa0:	dc 01       	movw	r26, r24
    4aa2:	8d 91       	ld	r24, X+
    4aa4:	9c 91       	ld	r25, X

00004aa6 <.L1^B16>:
    4aa6:	01 97       	sbiw	r24, 0x01	; 1
    4aa8:	f1 f7       	brne	.-4      	; 0x4aa6 <.L1^B16>
    4aaa:	9e 01       	movw	r18, r28
    4aac:	22 58       	subi	r18, 0x82	; 130
    4aae:	3f 4f       	sbci	r19, 0xFF	; 255
    4ab0:	f9 01       	movw	r30, r18
    4ab2:	91 83       	std	Z+1, r25	; 0x01
    4ab4:	80 83       	st	Z, r24

00004ab6 <.LM172>:
	...

00004ab8 <.L76>:
    4ab8:	81 e0       	ldi	r24, 0x01	; 1
    4aba:	0e 94 66 15 	call	0x2acc	; 0x2acc <LCD_WriteCommand>

00004abe <.LM174>:
    4abe:	89 eb       	ldi	r24, 0xB9	; 185
    4ac0:	90 e0       	ldi	r25, 0x00	; 0
    4ac2:	0e 94 97 1b 	call	0x372e	; 0x372e <LCD_WriteString>

00004ac6 <.LM175>:
    4ac6:	66 e0       	ldi	r22, 0x06	; 6
    4ac8:	81 e0       	ldi	r24, 0x01	; 1
    4aca:	0e 94 c2 1b 	call	0x3784	; 0x3784 <LCD_GoToXY>

00004ace <.LM176>:
    4ace:	89 ec       	ldi	r24, 0xC9	; 201
    4ad0:	90 e0       	ldi	r25, 0x00	; 0
    4ad2:	0e 94 97 1b 	call	0x372e	; 0x372e <LCD_WriteString>
    4ad6:	9e 01       	movw	r18, r28
    4ad8:	2c 59       	subi	r18, 0x9C	; 156
    4ada:	3f 4f       	sbci	r19, 0xFF	; 255
    4adc:	80 e0       	ldi	r24, 0x00	; 0
    4ade:	90 e0       	ldi	r25, 0x00	; 0
    4ae0:	aa e7       	ldi	r26, 0x7A	; 122
    4ae2:	b5 e4       	ldi	r27, 0x45	; 69
    4ae4:	f9 01       	movw	r30, r18
    4ae6:	80 83       	st	Z, r24
    4ae8:	91 83       	std	Z+1, r25	; 0x01
    4aea:	a2 83       	std	Z+2, r26	; 0x02
    4aec:	b3 83       	std	Z+3, r27	; 0x03

00004aee <.LM177>:
    4aee:	8e 01       	movw	r16, r28
    4af0:	08 59       	subi	r16, 0x98	; 152
    4af2:	1f 4f       	sbci	r17, 0xFF	; 255
    4af4:	ce 01       	movw	r24, r28
    4af6:	8c 59       	subi	r24, 0x9C	; 156
    4af8:	9f 4f       	sbci	r25, 0xFF	; 255
    4afa:	20 e0       	ldi	r18, 0x00	; 0
    4afc:	30 e0       	ldi	r19, 0x00	; 0
    4afe:	4a ef       	ldi	r20, 0xFA	; 250
    4b00:	54 e4       	ldi	r21, 0x44	; 68
    4b02:	dc 01       	movw	r26, r24
    4b04:	6d 91       	ld	r22, X+
    4b06:	7d 91       	ld	r23, X+
    4b08:	8d 91       	ld	r24, X+
    4b0a:	9c 91       	ld	r25, X
    4b0c:	0e 94 35 30 	call	0x606a	; 0x606a <__mulsf3>
    4b10:	c4 59       	subi	r28, 0x94	; 148
    4b12:	de 4f       	sbci	r29, 0xFE	; 254
    4b14:	68 83       	st	Y, r22
    4b16:	79 83       	std	Y+1, r23	; 0x01
    4b18:	8a 83       	std	Y+2, r24	; 0x02
    4b1a:	9b 83       	std	Y+3, r25	; 0x03
    4b1c:	cc 56       	subi	r28, 0x6C	; 108
    4b1e:	d1 40       	sbci	r29, 0x01	; 1
    4b20:	c4 59       	subi	r28, 0x94	; 148
    4b22:	de 4f       	sbci	r29, 0xFE	; 254
    4b24:	88 81       	ld	r24, Y
    4b26:	99 81       	ldd	r25, Y+1	; 0x01
    4b28:	aa 81       	ldd	r26, Y+2	; 0x02
    4b2a:	bb 81       	ldd	r27, Y+3	; 0x03
    4b2c:	cc 56       	subi	r28, 0x6C	; 108
    4b2e:	d1 40       	sbci	r29, 0x01	; 1
    4b30:	f8 01       	movw	r30, r16
    4b32:	80 83       	st	Z, r24
    4b34:	91 83       	std	Z+1, r25	; 0x01
    4b36:	a2 83       	std	Z+2, r26	; 0x02
    4b38:	b3 83       	std	Z+3, r27	; 0x03

00004b3a <.LM178>:
    4b3a:	ce 01       	movw	r24, r28
    4b3c:	88 59       	subi	r24, 0x98	; 152
    4b3e:	9f 4f       	sbci	r25, 0xFF	; 255
    4b40:	20 e0       	ldi	r18, 0x00	; 0
    4b42:	30 e0       	ldi	r19, 0x00	; 0
    4b44:	40 e8       	ldi	r20, 0x80	; 128
    4b46:	5f e3       	ldi	r21, 0x3F	; 63
    4b48:	dc 01       	movw	r26, r24
    4b4a:	6d 91       	ld	r22, X+
    4b4c:	7d 91       	ld	r23, X+
    4b4e:	8d 91       	ld	r24, X+
    4b50:	9c 91       	ld	r25, X
    4b52:	0e 94 af 2f 	call	0x5f5e	; 0x5f5e <__cmpsf2>
    4b56:	88 23       	and	r24, r24
    4b58:	4c f4       	brge	.+18     	; 0x4b6c <.L160>

00004b5a <.LM179>:
    4b5a:	ce 01       	movw	r24, r28
    4b5c:	84 59       	subi	r24, 0x94	; 148
    4b5e:	9f 4f       	sbci	r25, 0xFF	; 255
    4b60:	21 e0       	ldi	r18, 0x01	; 1
    4b62:	30 e0       	ldi	r19, 0x00	; 0
    4b64:	fc 01       	movw	r30, r24
    4b66:	31 83       	std	Z+1, r19	; 0x01
    4b68:	20 83       	st	Z, r18
    4b6a:	a5 c0       	rjmp	.+330    	; 0x4cb6 <.L79>

00004b6c <.L160>:
    4b6c:	ce 01       	movw	r24, r28
    4b6e:	88 59       	subi	r24, 0x98	; 152
    4b70:	9f 4f       	sbci	r25, 0xFF	; 255
    4b72:	20 e0       	ldi	r18, 0x00	; 0
    4b74:	3f ef       	ldi	r19, 0xFF	; 255
    4b76:	4f e7       	ldi	r20, 0x7F	; 127
    4b78:	57 e4       	ldi	r21, 0x47	; 71
    4b7a:	dc 01       	movw	r26, r24
    4b7c:	6d 91       	ld	r22, X+
    4b7e:	7d 91       	ld	r23, X+
    4b80:	8d 91       	ld	r24, X+
    4b82:	9c 91       	ld	r25, X
    4b84:	0e 94 30 30 	call	0x6060	; 0x6060 <__gesf2>
    4b88:	88 23       	and	r24, r24
    4b8a:	09 f0       	breq	.+2      	; 0x4b8e <L0^A>

00004b8c <L0^A>:
    4b8c:	0c f4       	brge	.+2      	; 0x4b90 <.LM181>

00004b8e <L0^A>:
    4b8e:	75 c0       	rjmp	.+234    	; 0x4c7a <.L161>

00004b90 <.LM181>:
    4b90:	ce 01       	movw	r24, r28
    4b92:	8c 59       	subi	r24, 0x9C	; 156
    4b94:	9f 4f       	sbci	r25, 0xFF	; 255
    4b96:	20 e0       	ldi	r18, 0x00	; 0
    4b98:	30 e0       	ldi	r19, 0x00	; 0
    4b9a:	40 e2       	ldi	r20, 0x20	; 32
    4b9c:	51 e4       	ldi	r21, 0x41	; 65
    4b9e:	fc 01       	movw	r30, r24
    4ba0:	60 81       	ld	r22, Z
    4ba2:	71 81       	ldd	r23, Z+1	; 0x01
    4ba4:	82 81       	ldd	r24, Z+2	; 0x02
    4ba6:	93 81       	ldd	r25, Z+3	; 0x03
    4ba8:	0e 94 35 30 	call	0x606a	; 0x606a <__mulsf3>
    4bac:	c0 59       	subi	r28, 0x90	; 144
    4bae:	de 4f       	sbci	r29, 0xFE	; 254
    4bb0:	68 83       	st	Y, r22
    4bb2:	79 83       	std	Y+1, r23	; 0x01
    4bb4:	8a 83       	std	Y+2, r24	; 0x02
    4bb6:	9b 83       	std	Y+3, r25	; 0x03
    4bb8:	c0 57       	subi	r28, 0x70	; 112
    4bba:	d1 40       	sbci	r29, 0x01	; 1
    4bbc:	c0 59       	subi	r28, 0x90	; 144
    4bbe:	de 4f       	sbci	r29, 0xFE	; 254
    4bc0:	88 81       	ld	r24, Y
    4bc2:	99 81       	ldd	r25, Y+1	; 0x01
    4bc4:	aa 81       	ldd	r26, Y+2	; 0x02
    4bc6:	bb 81       	ldd	r27, Y+3	; 0x03
    4bc8:	c0 57       	subi	r28, 0x70	; 112
    4bca:	d1 40       	sbci	r29, 0x01	; 1
    4bcc:	cc 52       	subi	r28, 0x2C	; 44
    4bce:	df 4f       	sbci	r29, 0xFF	; 255
    4bd0:	88 83       	st	Y, r24
    4bd2:	99 83       	std	Y+1, r25	; 0x01
    4bd4:	aa 83       	std	Y+2, r26	; 0x02
    4bd6:	bb 83       	std	Y+3, r27	; 0x03
    4bd8:	c4 5d       	subi	r28, 0xD4	; 212
    4bda:	d0 40       	sbci	r29, 0x00	; 0

00004bdc <.LM182>:
    4bdc:	8e 01       	movw	r16, r28
    4bde:	04 59       	subi	r16, 0x94	; 148
    4be0:	1f 4f       	sbci	r17, 0xFF	; 255
    4be2:	cc 52       	subi	r28, 0x2C	; 44
    4be4:	df 4f       	sbci	r29, 0xFF	; 255
    4be6:	68 81       	ld	r22, Y
    4be8:	79 81       	ldd	r23, Y+1	; 0x01
    4bea:	8a 81       	ldd	r24, Y+2	; 0x02
    4bec:	9b 81       	ldd	r25, Y+3	; 0x03
    4bee:	c4 5d       	subi	r28, 0xD4	; 212
    4bf0:	d0 40       	sbci	r29, 0x00	; 0
    4bf2:	0e 94 b4 2f 	call	0x5f68	; 0x5f68 <__fixunssfsi>
    4bf6:	cc 58       	subi	r28, 0x8C	; 140
    4bf8:	de 4f       	sbci	r29, 0xFE	; 254
    4bfa:	68 83       	st	Y, r22
    4bfc:	79 83       	std	Y+1, r23	; 0x01
    4bfe:	8a 83       	std	Y+2, r24	; 0x02
    4c00:	9b 83       	std	Y+3, r25	; 0x03
    4c02:	c4 57       	subi	r28, 0x74	; 116
    4c04:	d1 40       	sbci	r29, 0x01	; 1
    4c06:	cc 58       	subi	r28, 0x8C	; 140
    4c08:	de 4f       	sbci	r29, 0xFE	; 254
    4c0a:	e8 81       	ld	r30, Y
    4c0c:	f9 81       	ldd	r31, Y+1	; 0x01
    4c0e:	c4 57       	subi	r28, 0x74	; 116
    4c10:	d1 40       	sbci	r29, 0x01	; 1
    4c12:	d8 01       	movw	r26, r16
    4c14:	11 96       	adiw	r26, 0x01	; 1
    4c16:	fc 93       	st	X, r31
    4c18:	ee 93       	st	-X, r30

00004c1a <.LM183>:
    4c1a:	26 c0       	rjmp	.+76     	; 0x4c68 <.L82>

00004c1c <.L83>:
    4c1c:	ce 01       	movw	r24, r28
    4c1e:	82 59       	subi	r24, 0x92	; 146
    4c20:	9f 4f       	sbci	r25, 0xFF	; 255
    4c22:	28 ec       	ldi	r18, 0xC8	; 200
    4c24:	30 e0       	ldi	r19, 0x00	; 0
    4c26:	dc 01       	movw	r26, r24
    4c28:	2d 93       	st	X+, r18
    4c2a:	3c 93       	st	X, r19

00004c2c <.LM184>:
    4c2c:	ce 01       	movw	r24, r28
    4c2e:	82 59       	subi	r24, 0x92	; 146
    4c30:	9f 4f       	sbci	r25, 0xFF	; 255
    4c32:	fc 01       	movw	r30, r24
    4c34:	80 81       	ld	r24, Z
    4c36:	91 81       	ldd	r25, Z+1	; 0x01

00004c38 <.L1^B17>:
    4c38:	01 97       	sbiw	r24, 0x01	; 1
    4c3a:	f1 f7       	brne	.-4      	; 0x4c38 <.L1^B17>
    4c3c:	9e 01       	movw	r18, r28
    4c3e:	22 59       	subi	r18, 0x92	; 146
    4c40:	3f 4f       	sbci	r19, 0xFF	; 255
    4c42:	d9 01       	movw	r26, r18
    4c44:	8d 93       	st	X+, r24
    4c46:	9c 93       	st	X, r25

00004c48 <.LM185>:
	...

00004c4a <.LM186>:
    4c4a:	ce 01       	movw	r24, r28
    4c4c:	84 59       	subi	r24, 0x94	; 148
    4c4e:	9f 4f       	sbci	r25, 0xFF	; 255
    4c50:	9e 01       	movw	r18, r28
    4c52:	24 59       	subi	r18, 0x94	; 148
    4c54:	3f 4f       	sbci	r19, 0xFF	; 255
    4c56:	f9 01       	movw	r30, r18
    4c58:	20 81       	ld	r18, Z
    4c5a:	31 81       	ldd	r19, Z+1	; 0x01
    4c5c:	21 50       	subi	r18, 0x01	; 1
    4c5e:	31 09       	sbc	r19, r1
    4c60:	dc 01       	movw	r26, r24
    4c62:	11 96       	adiw	r26, 0x01	; 1
    4c64:	3c 93       	st	X, r19
    4c66:	2e 93       	st	-X, r18

00004c68 <.L82>:
    4c68:	ce 01       	movw	r24, r28
    4c6a:	84 59       	subi	r24, 0x94	; 148
    4c6c:	9f 4f       	sbci	r25, 0xFF	; 255
    4c6e:	fc 01       	movw	r30, r24
    4c70:	80 81       	ld	r24, Z
    4c72:	91 81       	ldd	r25, Z+1	; 0x01
    4c74:	00 97       	sbiw	r24, 0x00	; 0
    4c76:	91 f6       	brne	.-92     	; 0x4c1c <.L83>

00004c78 <.LM188>:
    4c78:	39 c0       	rjmp	.+114    	; 0x4cec <.L84>

00004c7a <.L161>:
    4c7a:	8e 01       	movw	r16, r28
    4c7c:	04 59       	subi	r16, 0x94	; 148
    4c7e:	1f 4f       	sbci	r17, 0xFF	; 255
    4c80:	ce 01       	movw	r24, r28
    4c82:	88 59       	subi	r24, 0x98	; 152
    4c84:	9f 4f       	sbci	r25, 0xFF	; 255
    4c86:	dc 01       	movw	r26, r24
    4c88:	6d 91       	ld	r22, X+
    4c8a:	7d 91       	ld	r23, X+
    4c8c:	8d 91       	ld	r24, X+
    4c8e:	9c 91       	ld	r25, X
    4c90:	0e 94 b4 2f 	call	0x5f68	; 0x5f68 <__fixunssfsi>
    4c94:	c8 58       	subi	r28, 0x88	; 136
    4c96:	de 4f       	sbci	r29, 0xFE	; 254
    4c98:	68 83       	st	Y, r22
    4c9a:	79 83       	std	Y+1, r23	; 0x01
    4c9c:	8a 83       	std	Y+2, r24	; 0x02
    4c9e:	9b 83       	std	Y+3, r25	; 0x03
    4ca0:	c8 57       	subi	r28, 0x78	; 120
    4ca2:	d1 40       	sbci	r29, 0x01	; 1
    4ca4:	c8 58       	subi	r28, 0x88	; 136
    4ca6:	de 4f       	sbci	r29, 0xFE	; 254
    4ca8:	88 81       	ld	r24, Y
    4caa:	99 81       	ldd	r25, Y+1	; 0x01
    4cac:	c8 57       	subi	r28, 0x78	; 120
    4cae:	d1 40       	sbci	r29, 0x01	; 1
    4cb0:	f8 01       	movw	r30, r16
    4cb2:	91 83       	std	Z+1, r25	; 0x01
    4cb4:	80 83       	st	Z, r24

00004cb6 <.L79>:
    4cb6:	ce 01       	movw	r24, r28
    4cb8:	80 59       	subi	r24, 0x90	; 144
    4cba:	9f 4f       	sbci	r25, 0xFF	; 255
    4cbc:	9e 01       	movw	r18, r28
    4cbe:	24 59       	subi	r18, 0x94	; 148
    4cc0:	3f 4f       	sbci	r19, 0xFF	; 255
    4cc2:	d9 01       	movw	r26, r18
    4cc4:	2d 91       	ld	r18, X+
    4cc6:	3c 91       	ld	r19, X
    4cc8:	fc 01       	movw	r30, r24
    4cca:	31 83       	std	Z+1, r19	; 0x01
    4ccc:	20 83       	st	Z, r18

00004cce <.LM190>:
    4cce:	ce 01       	movw	r24, r28
    4cd0:	80 59       	subi	r24, 0x90	; 144
    4cd2:	9f 4f       	sbci	r25, 0xFF	; 255
    4cd4:	dc 01       	movw	r26, r24
    4cd6:	8d 91       	ld	r24, X+
    4cd8:	9c 91       	ld	r25, X

00004cda <.L1^B18>:
    4cda:	01 97       	sbiw	r24, 0x01	; 1
    4cdc:	f1 f7       	brne	.-4      	; 0x4cda <.L1^B18>
    4cde:	9e 01       	movw	r18, r28
    4ce0:	20 59       	subi	r18, 0x90	; 144
    4ce2:	3f 4f       	sbci	r19, 0xFF	; 255
    4ce4:	f9 01       	movw	r30, r18
    4ce6:	91 83       	std	Z+1, r25	; 0x01
    4ce8:	80 83       	st	Z, r24

00004cea <.LM191>:
	...

00004cec <.L84>:
    4cec:	81 e0       	ldi	r24, 0x01	; 1
    4cee:	0e 94 66 15 	call	0x2acc	; 0x2acc <LCD_WriteCommand>

00004cf2 <.LM193>:
    4cf2:	80 e0       	ldi	r24, 0x00	; 0
    4cf4:	5a c4       	rjmp	.+2228   	; 0x55aa <.L43>

00004cf6 <.L30>:
    4cf6:	0e 94 8b 2c 	call	0x5916	; 0x5916 <checkUser3Pass>

00004cfa <.LM195>:
    4cfa:	81 30       	cpi	r24, 0x01	; 1
    4cfc:	09 f0       	breq	.+2      	; 0x4d00 <.LM196>

00004cfe <L0^A>:
    4cfe:	16 c1       	rjmp	.+556    	; 0x4f2c <.L85>

00004d00 <.LM196>:
    4d00:	80 ea       	ldi	r24, 0xA0	; 160
    4d02:	90 e0       	ldi	r25, 0x00	; 0
    4d04:	0e 94 97 1b 	call	0x372e	; 0x372e <LCD_WriteString>
    4d08:	9e 01       	movw	r18, r28
    4d0a:	20 58       	subi	r18, 0x80	; 128
    4d0c:	3f 4f       	sbci	r19, 0xFF	; 255
    4d0e:	80 e0       	ldi	r24, 0x00	; 0
    4d10:	90 e0       	ldi	r25, 0x00	; 0
    4d12:	a8 ec       	ldi	r26, 0xC8	; 200
    4d14:	b2 e4       	ldi	r27, 0x42	; 66
    4d16:	f9 01       	movw	r30, r18
    4d18:	80 83       	st	Z, r24
    4d1a:	91 83       	std	Z+1, r25	; 0x01
    4d1c:	a2 83       	std	Z+2, r26	; 0x02
    4d1e:	b3 83       	std	Z+3, r27	; 0x03

00004d20 <.LM197>:
    4d20:	8e 01       	movw	r16, r28
    4d22:	0c 57       	subi	r16, 0x7C	; 124
    4d24:	1f 4f       	sbci	r17, 0xFF	; 255
    4d26:	ce 01       	movw	r24, r28
    4d28:	80 58       	subi	r24, 0x80	; 128
    4d2a:	9f 4f       	sbci	r25, 0xFF	; 255
    4d2c:	20 e0       	ldi	r18, 0x00	; 0
    4d2e:	30 e0       	ldi	r19, 0x00	; 0
    4d30:	4a ef       	ldi	r20, 0xFA	; 250
    4d32:	54 e4       	ldi	r21, 0x44	; 68
    4d34:	dc 01       	movw	r26, r24
    4d36:	6d 91       	ld	r22, X+
    4d38:	7d 91       	ld	r23, X+
    4d3a:	8d 91       	ld	r24, X+
    4d3c:	9c 91       	ld	r25, X
    4d3e:	0e 94 35 30 	call	0x606a	; 0x606a <__mulsf3>
    4d42:	c4 58       	subi	r28, 0x84	; 132
    4d44:	de 4f       	sbci	r29, 0xFE	; 254
    4d46:	68 83       	st	Y, r22
    4d48:	79 83       	std	Y+1, r23	; 0x01
    4d4a:	8a 83       	std	Y+2, r24	; 0x02
    4d4c:	9b 83       	std	Y+3, r25	; 0x03
    4d4e:	cc 57       	subi	r28, 0x7C	; 124
    4d50:	d1 40       	sbci	r29, 0x01	; 1
    4d52:	c4 58       	subi	r28, 0x84	; 132
    4d54:	de 4f       	sbci	r29, 0xFE	; 254
    4d56:	88 81       	ld	r24, Y
    4d58:	99 81       	ldd	r25, Y+1	; 0x01
    4d5a:	aa 81       	ldd	r26, Y+2	; 0x02
    4d5c:	bb 81       	ldd	r27, Y+3	; 0x03
    4d5e:	cc 57       	subi	r28, 0x7C	; 124
    4d60:	d1 40       	sbci	r29, 0x01	; 1
    4d62:	f8 01       	movw	r30, r16
    4d64:	80 83       	st	Z, r24
    4d66:	91 83       	std	Z+1, r25	; 0x01
    4d68:	a2 83       	std	Z+2, r26	; 0x02
    4d6a:	b3 83       	std	Z+3, r27	; 0x03

00004d6c <.LM198>:
    4d6c:	ce 01       	movw	r24, r28
    4d6e:	8c 57       	subi	r24, 0x7C	; 124
    4d70:	9f 4f       	sbci	r25, 0xFF	; 255
    4d72:	20 e0       	ldi	r18, 0x00	; 0
    4d74:	30 e0       	ldi	r19, 0x00	; 0
    4d76:	40 e8       	ldi	r20, 0x80	; 128
    4d78:	5f e3       	ldi	r21, 0x3F	; 63
    4d7a:	dc 01       	movw	r26, r24
    4d7c:	6d 91       	ld	r22, X+
    4d7e:	7d 91       	ld	r23, X+
    4d80:	8d 91       	ld	r24, X+
    4d82:	9c 91       	ld	r25, X
    4d84:	0e 94 af 2f 	call	0x5f5e	; 0x5f5e <__cmpsf2>
    4d88:	88 23       	and	r24, r24
    4d8a:	4c f4       	brge	.+18     	; 0x4d9e <.L162>

00004d8c <.LM199>:
    4d8c:	ce 01       	movw	r24, r28
    4d8e:	88 57       	subi	r24, 0x78	; 120
    4d90:	9f 4f       	sbci	r25, 0xFF	; 255
    4d92:	21 e0       	ldi	r18, 0x01	; 1
    4d94:	30 e0       	ldi	r19, 0x00	; 0
    4d96:	fc 01       	movw	r30, r24
    4d98:	31 83       	std	Z+1, r19	; 0x01
    4d9a:	20 83       	st	Z, r18
    4d9c:	a5 c0       	rjmp	.+330    	; 0x4ee8 <.L88>

00004d9e <.L162>:
    4d9e:	ce 01       	movw	r24, r28
    4da0:	8c 57       	subi	r24, 0x7C	; 124
    4da2:	9f 4f       	sbci	r25, 0xFF	; 255
    4da4:	20 e0       	ldi	r18, 0x00	; 0
    4da6:	3f ef       	ldi	r19, 0xFF	; 255
    4da8:	4f e7       	ldi	r20, 0x7F	; 127
    4daa:	57 e4       	ldi	r21, 0x47	; 71
    4dac:	dc 01       	movw	r26, r24
    4dae:	6d 91       	ld	r22, X+
    4db0:	7d 91       	ld	r23, X+
    4db2:	8d 91       	ld	r24, X+
    4db4:	9c 91       	ld	r25, X
    4db6:	0e 94 30 30 	call	0x6060	; 0x6060 <__gesf2>
    4dba:	88 23       	and	r24, r24
    4dbc:	09 f0       	breq	.+2      	; 0x4dc0 <L0^A>

00004dbe <L0^A>:
    4dbe:	0c f4       	brge	.+2      	; 0x4dc2 <.LM201>

00004dc0 <L0^A>:
    4dc0:	75 c0       	rjmp	.+234    	; 0x4eac <.L163>

00004dc2 <.LM201>:
    4dc2:	ce 01       	movw	r24, r28
    4dc4:	80 58       	subi	r24, 0x80	; 128
    4dc6:	9f 4f       	sbci	r25, 0xFF	; 255
    4dc8:	20 e0       	ldi	r18, 0x00	; 0
    4dca:	30 e0       	ldi	r19, 0x00	; 0
    4dcc:	40 e2       	ldi	r20, 0x20	; 32
    4dce:	51 e4       	ldi	r21, 0x41	; 65
    4dd0:	fc 01       	movw	r30, r24
    4dd2:	60 81       	ld	r22, Z
    4dd4:	71 81       	ldd	r23, Z+1	; 0x01
    4dd6:	82 81       	ldd	r24, Z+2	; 0x02
    4dd8:	93 81       	ldd	r25, Z+3	; 0x03
    4dda:	0e 94 35 30 	call	0x606a	; 0x606a <__mulsf3>
    4dde:	c0 58       	subi	r28, 0x80	; 128
    4de0:	de 4f       	sbci	r29, 0xFE	; 254
    4de2:	68 83       	st	Y, r22
    4de4:	79 83       	std	Y+1, r23	; 0x01
    4de6:	8a 83       	std	Y+2, r24	; 0x02
    4de8:	9b 83       	std	Y+3, r25	; 0x03
    4dea:	c0 58       	subi	r28, 0x80	; 128
    4dec:	d1 40       	sbci	r29, 0x01	; 1
    4dee:	c0 58       	subi	r28, 0x80	; 128
    4df0:	de 4f       	sbci	r29, 0xFE	; 254
    4df2:	88 81       	ld	r24, Y
    4df4:	99 81       	ldd	r25, Y+1	; 0x01
    4df6:	aa 81       	ldd	r26, Y+2	; 0x02
    4df8:	bb 81       	ldd	r27, Y+3	; 0x03
    4dfa:	c0 58       	subi	r28, 0x80	; 128
    4dfc:	d1 40       	sbci	r29, 0x01	; 1
    4dfe:	c4 52       	subi	r28, 0x24	; 36
    4e00:	df 4f       	sbci	r29, 0xFF	; 255
    4e02:	88 83       	st	Y, r24
    4e04:	99 83       	std	Y+1, r25	; 0x01
    4e06:	aa 83       	std	Y+2, r26	; 0x02
    4e08:	bb 83       	std	Y+3, r27	; 0x03
    4e0a:	cc 5d       	subi	r28, 0xDC	; 220
    4e0c:	d0 40       	sbci	r29, 0x00	; 0

00004e0e <.LM202>:
    4e0e:	8e 01       	movw	r16, r28
    4e10:	08 57       	subi	r16, 0x78	; 120
    4e12:	1f 4f       	sbci	r17, 0xFF	; 255
    4e14:	c4 52       	subi	r28, 0x24	; 36
    4e16:	df 4f       	sbci	r29, 0xFF	; 255
    4e18:	68 81       	ld	r22, Y
    4e1a:	79 81       	ldd	r23, Y+1	; 0x01
    4e1c:	8a 81       	ldd	r24, Y+2	; 0x02
    4e1e:	9b 81       	ldd	r25, Y+3	; 0x03
    4e20:	cc 5d       	subi	r28, 0xDC	; 220
    4e22:	d0 40       	sbci	r29, 0x00	; 0
    4e24:	0e 94 b4 2f 	call	0x5f68	; 0x5f68 <__fixunssfsi>
    4e28:	cc 57       	subi	r28, 0x7C	; 124
    4e2a:	de 4f       	sbci	r29, 0xFE	; 254
    4e2c:	68 83       	st	Y, r22
    4e2e:	79 83       	std	Y+1, r23	; 0x01
    4e30:	8a 83       	std	Y+2, r24	; 0x02
    4e32:	9b 83       	std	Y+3, r25	; 0x03
    4e34:	c4 58       	subi	r28, 0x84	; 132
    4e36:	d1 40       	sbci	r29, 0x01	; 1
    4e38:	cc 57       	subi	r28, 0x7C	; 124
    4e3a:	de 4f       	sbci	r29, 0xFE	; 254
    4e3c:	e8 81       	ld	r30, Y
    4e3e:	f9 81       	ldd	r31, Y+1	; 0x01
    4e40:	c4 58       	subi	r28, 0x84	; 132
    4e42:	d1 40       	sbci	r29, 0x01	; 1
    4e44:	d8 01       	movw	r26, r16
    4e46:	11 96       	adiw	r26, 0x01	; 1
    4e48:	fc 93       	st	X, r31
    4e4a:	ee 93       	st	-X, r30

00004e4c <.LM203>:
    4e4c:	26 c0       	rjmp	.+76     	; 0x4e9a <.L91>

00004e4e <.L92>:
    4e4e:	ce 01       	movw	r24, r28
    4e50:	86 57       	subi	r24, 0x76	; 118
    4e52:	9f 4f       	sbci	r25, 0xFF	; 255
    4e54:	28 ec       	ldi	r18, 0xC8	; 200
    4e56:	30 e0       	ldi	r19, 0x00	; 0
    4e58:	dc 01       	movw	r26, r24
    4e5a:	2d 93       	st	X+, r18
    4e5c:	3c 93       	st	X, r19

00004e5e <.LM204>:
    4e5e:	ce 01       	movw	r24, r28
    4e60:	86 57       	subi	r24, 0x76	; 118
    4e62:	9f 4f       	sbci	r25, 0xFF	; 255
    4e64:	fc 01       	movw	r30, r24
    4e66:	80 81       	ld	r24, Z
    4e68:	91 81       	ldd	r25, Z+1	; 0x01

00004e6a <.L1^B19>:
    4e6a:	01 97       	sbiw	r24, 0x01	; 1
    4e6c:	f1 f7       	brne	.-4      	; 0x4e6a <.L1^B19>
    4e6e:	9e 01       	movw	r18, r28
    4e70:	26 57       	subi	r18, 0x76	; 118
    4e72:	3f 4f       	sbci	r19, 0xFF	; 255
    4e74:	d9 01       	movw	r26, r18
    4e76:	8d 93       	st	X+, r24
    4e78:	9c 93       	st	X, r25

00004e7a <.LM205>:
	...

00004e7c <.LM206>:
    4e7c:	ce 01       	movw	r24, r28
    4e7e:	88 57       	subi	r24, 0x78	; 120
    4e80:	9f 4f       	sbci	r25, 0xFF	; 255
    4e82:	9e 01       	movw	r18, r28
    4e84:	28 57       	subi	r18, 0x78	; 120
    4e86:	3f 4f       	sbci	r19, 0xFF	; 255
    4e88:	f9 01       	movw	r30, r18
    4e8a:	20 81       	ld	r18, Z
    4e8c:	31 81       	ldd	r19, Z+1	; 0x01
    4e8e:	21 50       	subi	r18, 0x01	; 1
    4e90:	31 09       	sbc	r19, r1
    4e92:	dc 01       	movw	r26, r24
    4e94:	11 96       	adiw	r26, 0x01	; 1
    4e96:	3c 93       	st	X, r19
    4e98:	2e 93       	st	-X, r18

00004e9a <.L91>:
    4e9a:	ce 01       	movw	r24, r28
    4e9c:	88 57       	subi	r24, 0x78	; 120
    4e9e:	9f 4f       	sbci	r25, 0xFF	; 255
    4ea0:	fc 01       	movw	r30, r24
    4ea2:	80 81       	ld	r24, Z
    4ea4:	91 81       	ldd	r25, Z+1	; 0x01
    4ea6:	00 97       	sbiw	r24, 0x00	; 0
    4ea8:	91 f6       	brne	.-92     	; 0x4e4e <.L92>

00004eaa <.LM208>:
    4eaa:	39 c0       	rjmp	.+114    	; 0x4f1e <.L93>

00004eac <.L163>:
    4eac:	8e 01       	movw	r16, r28
    4eae:	08 57       	subi	r16, 0x78	; 120
    4eb0:	1f 4f       	sbci	r17, 0xFF	; 255
    4eb2:	ce 01       	movw	r24, r28
    4eb4:	8c 57       	subi	r24, 0x7C	; 124
    4eb6:	9f 4f       	sbci	r25, 0xFF	; 255
    4eb8:	dc 01       	movw	r26, r24
    4eba:	6d 91       	ld	r22, X+
    4ebc:	7d 91       	ld	r23, X+
    4ebe:	8d 91       	ld	r24, X+
    4ec0:	9c 91       	ld	r25, X
    4ec2:	0e 94 b4 2f 	call	0x5f68	; 0x5f68 <__fixunssfsi>
    4ec6:	c8 57       	subi	r28, 0x78	; 120
    4ec8:	de 4f       	sbci	r29, 0xFE	; 254
    4eca:	68 83       	st	Y, r22
    4ecc:	79 83       	std	Y+1, r23	; 0x01
    4ece:	8a 83       	std	Y+2, r24	; 0x02
    4ed0:	9b 83       	std	Y+3, r25	; 0x03
    4ed2:	c8 58       	subi	r28, 0x88	; 136
    4ed4:	d1 40       	sbci	r29, 0x01	; 1
    4ed6:	c8 57       	subi	r28, 0x78	; 120
    4ed8:	de 4f       	sbci	r29, 0xFE	; 254
    4eda:	88 81       	ld	r24, Y
    4edc:	99 81       	ldd	r25, Y+1	; 0x01
    4ede:	c8 58       	subi	r28, 0x88	; 136
    4ee0:	d1 40       	sbci	r29, 0x01	; 1
    4ee2:	f8 01       	movw	r30, r16
    4ee4:	91 83       	std	Z+1, r25	; 0x01
    4ee6:	80 83       	st	Z, r24

00004ee8 <.L88>:
    4ee8:	ce 01       	movw	r24, r28
    4eea:	84 57       	subi	r24, 0x74	; 116
    4eec:	9f 4f       	sbci	r25, 0xFF	; 255
    4eee:	9e 01       	movw	r18, r28
    4ef0:	28 57       	subi	r18, 0x78	; 120
    4ef2:	3f 4f       	sbci	r19, 0xFF	; 255
    4ef4:	d9 01       	movw	r26, r18
    4ef6:	2d 91       	ld	r18, X+
    4ef8:	3c 91       	ld	r19, X
    4efa:	fc 01       	movw	r30, r24
    4efc:	31 83       	std	Z+1, r19	; 0x01
    4efe:	20 83       	st	Z, r18

00004f00 <.LM210>:
    4f00:	ce 01       	movw	r24, r28
    4f02:	84 57       	subi	r24, 0x74	; 116
    4f04:	9f 4f       	sbci	r25, 0xFF	; 255
    4f06:	dc 01       	movw	r26, r24
    4f08:	8d 91       	ld	r24, X+
    4f0a:	9c 91       	ld	r25, X

00004f0c <.L1^B20>:
    4f0c:	01 97       	sbiw	r24, 0x01	; 1
    4f0e:	f1 f7       	brne	.-4      	; 0x4f0c <.L1^B20>
    4f10:	9e 01       	movw	r18, r28
    4f12:	24 57       	subi	r18, 0x74	; 116
    4f14:	3f 4f       	sbci	r19, 0xFF	; 255
    4f16:	f9 01       	movw	r30, r18
    4f18:	91 83       	std	Z+1, r25	; 0x01
    4f1a:	80 83       	st	Z, r24

00004f1c <.LM211>:
	...

00004f1e <.L93>:
    4f1e:	81 e0       	ldi	r24, 0x01	; 1
    4f20:	0e 94 66 15 	call	0x2acc	; 0x2acc <LCD_WriteCommand>

00004f24 <.LM213>:
    4f24:	0e 94 60 2d 	call	0x5ac0	; 0x5ac0 <options>

00004f28 <.LM214>:
    4f28:	80 e0       	ldi	r24, 0x00	; 0
    4f2a:	3f c3       	rjmp	.+1662   	; 0x55aa <.L43>

00004f2c <.L85>:
    4f2c:	8b ea       	ldi	r24, 0xAB	; 171
    4f2e:	90 e0       	ldi	r25, 0x00	; 0
    4f30:	0e 94 97 1b 	call	0x372e	; 0x372e <LCD_WriteString>
    4f34:	9e 01       	movw	r18, r28
    4f36:	24 56       	subi	r18, 0x64	; 100
    4f38:	3f 4f       	sbci	r19, 0xFF	; 255
    4f3a:	80 e0       	ldi	r24, 0x00	; 0
    4f3c:	90 e0       	ldi	r25, 0x00	; 0
    4f3e:	a8 ec       	ldi	r26, 0xC8	; 200
    4f40:	b2 e4       	ldi	r27, 0x42	; 66
    4f42:	f9 01       	movw	r30, r18
    4f44:	80 83       	st	Z, r24
    4f46:	91 83       	std	Z+1, r25	; 0x01
    4f48:	a2 83       	std	Z+2, r26	; 0x02
    4f4a:	b3 83       	std	Z+3, r27	; 0x03

00004f4c <.LM216>:
    4f4c:	8e 01       	movw	r16, r28
    4f4e:	00 56       	subi	r16, 0x60	; 96
    4f50:	1f 4f       	sbci	r17, 0xFF	; 255
    4f52:	ce 01       	movw	r24, r28
    4f54:	84 56       	subi	r24, 0x64	; 100
    4f56:	9f 4f       	sbci	r25, 0xFF	; 255
    4f58:	20 e0       	ldi	r18, 0x00	; 0
    4f5a:	30 e0       	ldi	r19, 0x00	; 0
    4f5c:	4a ef       	ldi	r20, 0xFA	; 250
    4f5e:	54 e4       	ldi	r21, 0x44	; 68
    4f60:	dc 01       	movw	r26, r24
    4f62:	6d 91       	ld	r22, X+
    4f64:	7d 91       	ld	r23, X+
    4f66:	8d 91       	ld	r24, X+
    4f68:	9c 91       	ld	r25, X
    4f6a:	0e 94 35 30 	call	0x606a	; 0x606a <__mulsf3>
    4f6e:	c4 57       	subi	r28, 0x74	; 116
    4f70:	de 4f       	sbci	r29, 0xFE	; 254
    4f72:	68 83       	st	Y, r22
    4f74:	79 83       	std	Y+1, r23	; 0x01
    4f76:	8a 83       	std	Y+2, r24	; 0x02
    4f78:	9b 83       	std	Y+3, r25	; 0x03
    4f7a:	cc 58       	subi	r28, 0x8C	; 140
    4f7c:	d1 40       	sbci	r29, 0x01	; 1
    4f7e:	c4 57       	subi	r28, 0x74	; 116
    4f80:	de 4f       	sbci	r29, 0xFE	; 254
    4f82:	88 81       	ld	r24, Y
    4f84:	99 81       	ldd	r25, Y+1	; 0x01
    4f86:	aa 81       	ldd	r26, Y+2	; 0x02
    4f88:	bb 81       	ldd	r27, Y+3	; 0x03
    4f8a:	cc 58       	subi	r28, 0x8C	; 140
    4f8c:	d1 40       	sbci	r29, 0x01	; 1
    4f8e:	f8 01       	movw	r30, r16
    4f90:	80 83       	st	Z, r24
    4f92:	91 83       	std	Z+1, r25	; 0x01
    4f94:	a2 83       	std	Z+2, r26	; 0x02
    4f96:	b3 83       	std	Z+3, r27	; 0x03

00004f98 <.LM217>:
    4f98:	ce 01       	movw	r24, r28
    4f9a:	80 56       	subi	r24, 0x60	; 96
    4f9c:	9f 4f       	sbci	r25, 0xFF	; 255
    4f9e:	20 e0       	ldi	r18, 0x00	; 0
    4fa0:	30 e0       	ldi	r19, 0x00	; 0
    4fa2:	40 e8       	ldi	r20, 0x80	; 128
    4fa4:	5f e3       	ldi	r21, 0x3F	; 63
    4fa6:	dc 01       	movw	r26, r24
    4fa8:	6d 91       	ld	r22, X+
    4faa:	7d 91       	ld	r23, X+
    4fac:	8d 91       	ld	r24, X+
    4fae:	9c 91       	ld	r25, X
    4fb0:	0e 94 af 2f 	call	0x5f5e	; 0x5f5e <__cmpsf2>
    4fb4:	88 23       	and	r24, r24
    4fb6:	4c f4       	brge	.+18     	; 0x4fca <.L164>

00004fb8 <.LM218>:
    4fb8:	ce 01       	movw	r24, r28
    4fba:	8c 55       	subi	r24, 0x5C	; 92
    4fbc:	9f 4f       	sbci	r25, 0xFF	; 255
    4fbe:	21 e0       	ldi	r18, 0x01	; 1
    4fc0:	30 e0       	ldi	r19, 0x00	; 0
    4fc2:	fc 01       	movw	r30, r24
    4fc4:	31 83       	std	Z+1, r19	; 0x01
    4fc6:	20 83       	st	Z, r18
    4fc8:	a5 c0       	rjmp	.+330    	; 0x5114 <.L96>

00004fca <.L164>:
    4fca:	ce 01       	movw	r24, r28
    4fcc:	80 56       	subi	r24, 0x60	; 96
    4fce:	9f 4f       	sbci	r25, 0xFF	; 255
    4fd0:	20 e0       	ldi	r18, 0x00	; 0
    4fd2:	3f ef       	ldi	r19, 0xFF	; 255
    4fd4:	4f e7       	ldi	r20, 0x7F	; 127
    4fd6:	57 e4       	ldi	r21, 0x47	; 71
    4fd8:	dc 01       	movw	r26, r24
    4fda:	6d 91       	ld	r22, X+
    4fdc:	7d 91       	ld	r23, X+
    4fde:	8d 91       	ld	r24, X+
    4fe0:	9c 91       	ld	r25, X
    4fe2:	0e 94 30 30 	call	0x6060	; 0x6060 <__gesf2>
    4fe6:	88 23       	and	r24, r24
    4fe8:	09 f0       	breq	.+2      	; 0x4fec <L0^A>

00004fea <L0^A>:
    4fea:	0c f4       	brge	.+2      	; 0x4fee <.LM220>

00004fec <L0^A>:
    4fec:	75 c0       	rjmp	.+234    	; 0x50d8 <.L165>

00004fee <.LM220>:
    4fee:	ce 01       	movw	r24, r28
    4ff0:	84 56       	subi	r24, 0x64	; 100
    4ff2:	9f 4f       	sbci	r25, 0xFF	; 255
    4ff4:	20 e0       	ldi	r18, 0x00	; 0
    4ff6:	30 e0       	ldi	r19, 0x00	; 0
    4ff8:	40 e2       	ldi	r20, 0x20	; 32
    4ffa:	51 e4       	ldi	r21, 0x41	; 65
    4ffc:	fc 01       	movw	r30, r24
    4ffe:	60 81       	ld	r22, Z
    5000:	71 81       	ldd	r23, Z+1	; 0x01
    5002:	82 81       	ldd	r24, Z+2	; 0x02
    5004:	93 81       	ldd	r25, Z+3	; 0x03
    5006:	0e 94 35 30 	call	0x606a	; 0x606a <__mulsf3>
    500a:	c0 57       	subi	r28, 0x70	; 112
    500c:	de 4f       	sbci	r29, 0xFE	; 254
    500e:	68 83       	st	Y, r22
    5010:	79 83       	std	Y+1, r23	; 0x01
    5012:	8a 83       	std	Y+2, r24	; 0x02
    5014:	9b 83       	std	Y+3, r25	; 0x03
    5016:	c0 59       	subi	r28, 0x90	; 144
    5018:	d1 40       	sbci	r29, 0x01	; 1
    501a:	c0 57       	subi	r28, 0x70	; 112
    501c:	de 4f       	sbci	r29, 0xFE	; 254
    501e:	88 81       	ld	r24, Y
    5020:	99 81       	ldd	r25, Y+1	; 0x01
    5022:	aa 81       	ldd	r26, Y+2	; 0x02
    5024:	bb 81       	ldd	r27, Y+3	; 0x03
    5026:	c0 59       	subi	r28, 0x90	; 144
    5028:	d1 40       	sbci	r29, 0x01	; 1
    502a:	cc 51       	subi	r28, 0x1C	; 28
    502c:	df 4f       	sbci	r29, 0xFF	; 255
    502e:	88 83       	st	Y, r24
    5030:	99 83       	std	Y+1, r25	; 0x01
    5032:	aa 83       	std	Y+2, r26	; 0x02
    5034:	bb 83       	std	Y+3, r27	; 0x03
    5036:	c4 5e       	subi	r28, 0xE4	; 228
    5038:	d0 40       	sbci	r29, 0x00	; 0

0000503a <.LM221>:
    503a:	8e 01       	movw	r16, r28
    503c:	0c 55       	subi	r16, 0x5C	; 92
    503e:	1f 4f       	sbci	r17, 0xFF	; 255
    5040:	cc 51       	subi	r28, 0x1C	; 28
    5042:	df 4f       	sbci	r29, 0xFF	; 255
    5044:	68 81       	ld	r22, Y
    5046:	79 81       	ldd	r23, Y+1	; 0x01
    5048:	8a 81       	ldd	r24, Y+2	; 0x02
    504a:	9b 81       	ldd	r25, Y+3	; 0x03
    504c:	c4 5e       	subi	r28, 0xE4	; 228
    504e:	d0 40       	sbci	r29, 0x00	; 0
    5050:	0e 94 b4 2f 	call	0x5f68	; 0x5f68 <__fixunssfsi>
    5054:	cc 56       	subi	r28, 0x6C	; 108
    5056:	de 4f       	sbci	r29, 0xFE	; 254
    5058:	68 83       	st	Y, r22
    505a:	79 83       	std	Y+1, r23	; 0x01
    505c:	8a 83       	std	Y+2, r24	; 0x02
    505e:	9b 83       	std	Y+3, r25	; 0x03
    5060:	c4 59       	subi	r28, 0x94	; 148
    5062:	d1 40       	sbci	r29, 0x01	; 1
    5064:	cc 56       	subi	r28, 0x6C	; 108
    5066:	de 4f       	sbci	r29, 0xFE	; 254
    5068:	e8 81       	ld	r30, Y
    506a:	f9 81       	ldd	r31, Y+1	; 0x01
    506c:	c4 59       	subi	r28, 0x94	; 148
    506e:	d1 40       	sbci	r29, 0x01	; 1
    5070:	d8 01       	movw	r26, r16
    5072:	11 96       	adiw	r26, 0x01	; 1
    5074:	fc 93       	st	X, r31
    5076:	ee 93       	st	-X, r30

00005078 <.LM222>:
    5078:	26 c0       	rjmp	.+76     	; 0x50c6 <.L99>

0000507a <.L100>:
    507a:	ce 01       	movw	r24, r28
    507c:	8a 55       	subi	r24, 0x5A	; 90
    507e:	9f 4f       	sbci	r25, 0xFF	; 255
    5080:	28 ec       	ldi	r18, 0xC8	; 200
    5082:	30 e0       	ldi	r19, 0x00	; 0
    5084:	dc 01       	movw	r26, r24
    5086:	2d 93       	st	X+, r18
    5088:	3c 93       	st	X, r19

0000508a <.LM223>:
    508a:	ce 01       	movw	r24, r28
    508c:	8a 55       	subi	r24, 0x5A	; 90
    508e:	9f 4f       	sbci	r25, 0xFF	; 255
    5090:	fc 01       	movw	r30, r24
    5092:	80 81       	ld	r24, Z
    5094:	91 81       	ldd	r25, Z+1	; 0x01

00005096 <.L1^B21>:
    5096:	01 97       	sbiw	r24, 0x01	; 1
    5098:	f1 f7       	brne	.-4      	; 0x5096 <.L1^B21>
    509a:	9e 01       	movw	r18, r28
    509c:	2a 55       	subi	r18, 0x5A	; 90
    509e:	3f 4f       	sbci	r19, 0xFF	; 255
    50a0:	d9 01       	movw	r26, r18
    50a2:	8d 93       	st	X+, r24
    50a4:	9c 93       	st	X, r25

000050a6 <.LM224>:
	...

000050a8 <.LM225>:
    50a8:	ce 01       	movw	r24, r28
    50aa:	8c 55       	subi	r24, 0x5C	; 92
    50ac:	9f 4f       	sbci	r25, 0xFF	; 255
    50ae:	9e 01       	movw	r18, r28
    50b0:	2c 55       	subi	r18, 0x5C	; 92
    50b2:	3f 4f       	sbci	r19, 0xFF	; 255
    50b4:	f9 01       	movw	r30, r18
    50b6:	20 81       	ld	r18, Z
    50b8:	31 81       	ldd	r19, Z+1	; 0x01
    50ba:	21 50       	subi	r18, 0x01	; 1
    50bc:	31 09       	sbc	r19, r1
    50be:	dc 01       	movw	r26, r24
    50c0:	11 96       	adiw	r26, 0x01	; 1
    50c2:	3c 93       	st	X, r19
    50c4:	2e 93       	st	-X, r18

000050c6 <.L99>:
    50c6:	ce 01       	movw	r24, r28
    50c8:	8c 55       	subi	r24, 0x5C	; 92
    50ca:	9f 4f       	sbci	r25, 0xFF	; 255
    50cc:	fc 01       	movw	r30, r24
    50ce:	80 81       	ld	r24, Z
    50d0:	91 81       	ldd	r25, Z+1	; 0x01
    50d2:	00 97       	sbiw	r24, 0x00	; 0
    50d4:	91 f6       	brne	.-92     	; 0x507a <.L100>

000050d6 <.LM227>:
    50d6:	39 c0       	rjmp	.+114    	; 0x514a <.L101>

000050d8 <.L165>:
    50d8:	8e 01       	movw	r16, r28
    50da:	0c 55       	subi	r16, 0x5C	; 92
    50dc:	1f 4f       	sbci	r17, 0xFF	; 255
    50de:	ce 01       	movw	r24, r28
    50e0:	80 56       	subi	r24, 0x60	; 96
    50e2:	9f 4f       	sbci	r25, 0xFF	; 255
    50e4:	dc 01       	movw	r26, r24
    50e6:	6d 91       	ld	r22, X+
    50e8:	7d 91       	ld	r23, X+
    50ea:	8d 91       	ld	r24, X+
    50ec:	9c 91       	ld	r25, X
    50ee:	0e 94 b4 2f 	call	0x5f68	; 0x5f68 <__fixunssfsi>
    50f2:	c8 56       	subi	r28, 0x68	; 104
    50f4:	de 4f       	sbci	r29, 0xFE	; 254
    50f6:	68 83       	st	Y, r22
    50f8:	79 83       	std	Y+1, r23	; 0x01
    50fa:	8a 83       	std	Y+2, r24	; 0x02
    50fc:	9b 83       	std	Y+3, r25	; 0x03
    50fe:	c8 59       	subi	r28, 0x98	; 152
    5100:	d1 40       	sbci	r29, 0x01	; 1
    5102:	c8 56       	subi	r28, 0x68	; 104
    5104:	de 4f       	sbci	r29, 0xFE	; 254
    5106:	88 81       	ld	r24, Y
    5108:	99 81       	ldd	r25, Y+1	; 0x01
    510a:	c8 59       	subi	r28, 0x98	; 152
    510c:	d1 40       	sbci	r29, 0x01	; 1
    510e:	f8 01       	movw	r30, r16
    5110:	91 83       	std	Z+1, r25	; 0x01
    5112:	80 83       	st	Z, r24

00005114 <.L96>:
    5114:	ce 01       	movw	r24, r28
    5116:	88 55       	subi	r24, 0x58	; 88
    5118:	9f 4f       	sbci	r25, 0xFF	; 255
    511a:	9e 01       	movw	r18, r28
    511c:	2c 55       	subi	r18, 0x5C	; 92
    511e:	3f 4f       	sbci	r19, 0xFF	; 255
    5120:	d9 01       	movw	r26, r18
    5122:	2d 91       	ld	r18, X+
    5124:	3c 91       	ld	r19, X
    5126:	fc 01       	movw	r30, r24
    5128:	31 83       	std	Z+1, r19	; 0x01
    512a:	20 83       	st	Z, r18

0000512c <.LM229>:
    512c:	ce 01       	movw	r24, r28
    512e:	88 55       	subi	r24, 0x58	; 88
    5130:	9f 4f       	sbci	r25, 0xFF	; 255
    5132:	dc 01       	movw	r26, r24
    5134:	8d 91       	ld	r24, X+
    5136:	9c 91       	ld	r25, X

00005138 <.L1^B22>:
    5138:	01 97       	sbiw	r24, 0x01	; 1
    513a:	f1 f7       	brne	.-4      	; 0x5138 <.L1^B22>
    513c:	9e 01       	movw	r18, r28
    513e:	28 55       	subi	r18, 0x58	; 88
    5140:	3f 4f       	sbci	r19, 0xFF	; 255
    5142:	f9 01       	movw	r30, r18
    5144:	91 83       	std	Z+1, r25	; 0x01
    5146:	80 83       	st	Z, r24

00005148 <.LM230>:
	...

0000514a <.L101>:
    514a:	81 e0       	ldi	r24, 0x01	; 1
    514c:	0e 94 66 15 	call	0x2acc	; 0x2acc <LCD_WriteCommand>

00005150 <.LM232>:
    5150:	89 eb       	ldi	r24, 0xB9	; 185
    5152:	90 e0       	ldi	r25, 0x00	; 0
    5154:	0e 94 97 1b 	call	0x372e	; 0x372e <LCD_WriteString>

00005158 <.LM233>:
    5158:	66 e0       	ldi	r22, 0x06	; 6
    515a:	81 e0       	ldi	r24, 0x01	; 1
    515c:	0e 94 c2 1b 	call	0x3784	; 0x3784 <LCD_GoToXY>

00005160 <.LM234>:
    5160:	89 ec       	ldi	r24, 0xC9	; 201
    5162:	90 e0       	ldi	r25, 0x00	; 0
    5164:	0e 94 97 1b 	call	0x372e	; 0x372e <LCD_WriteString>
    5168:	9e 01       	movw	r18, r28
    516a:	22 57       	subi	r18, 0x72	; 114
    516c:	3f 4f       	sbci	r19, 0xFF	; 255
    516e:	80 e0       	ldi	r24, 0x00	; 0
    5170:	90 e0       	ldi	r25, 0x00	; 0
    5172:	aa e7       	ldi	r26, 0x7A	; 122
    5174:	b5 e4       	ldi	r27, 0x45	; 69
    5176:	f9 01       	movw	r30, r18
    5178:	80 83       	st	Z, r24
    517a:	91 83       	std	Z+1, r25	; 0x01
    517c:	a2 83       	std	Z+2, r26	; 0x02
    517e:	b3 83       	std	Z+3, r27	; 0x03

00005180 <.LM235>:
    5180:	8e 01       	movw	r16, r28
    5182:	0e 56       	subi	r16, 0x6E	; 110
    5184:	1f 4f       	sbci	r17, 0xFF	; 255
    5186:	ce 01       	movw	r24, r28
    5188:	82 57       	subi	r24, 0x72	; 114
    518a:	9f 4f       	sbci	r25, 0xFF	; 255
    518c:	20 e0       	ldi	r18, 0x00	; 0
    518e:	30 e0       	ldi	r19, 0x00	; 0
    5190:	4a ef       	ldi	r20, 0xFA	; 250
    5192:	54 e4       	ldi	r21, 0x44	; 68
    5194:	dc 01       	movw	r26, r24
    5196:	6d 91       	ld	r22, X+
    5198:	7d 91       	ld	r23, X+
    519a:	8d 91       	ld	r24, X+
    519c:	9c 91       	ld	r25, X
    519e:	0e 94 35 30 	call	0x606a	; 0x606a <__mulsf3>
    51a2:	c4 56       	subi	r28, 0x64	; 100
    51a4:	de 4f       	sbci	r29, 0xFE	; 254
    51a6:	68 83       	st	Y, r22
    51a8:	79 83       	std	Y+1, r23	; 0x01
    51aa:	8a 83       	std	Y+2, r24	; 0x02
    51ac:	9b 83       	std	Y+3, r25	; 0x03
    51ae:	cc 59       	subi	r28, 0x9C	; 156
    51b0:	d1 40       	sbci	r29, 0x01	; 1
    51b2:	c4 56       	subi	r28, 0x64	; 100
    51b4:	de 4f       	sbci	r29, 0xFE	; 254
    51b6:	88 81       	ld	r24, Y
    51b8:	99 81       	ldd	r25, Y+1	; 0x01
    51ba:	aa 81       	ldd	r26, Y+2	; 0x02
    51bc:	bb 81       	ldd	r27, Y+3	; 0x03
    51be:	cc 59       	subi	r28, 0x9C	; 156
    51c0:	d1 40       	sbci	r29, 0x01	; 1
    51c2:	f8 01       	movw	r30, r16
    51c4:	80 83       	st	Z, r24
    51c6:	91 83       	std	Z+1, r25	; 0x01
    51c8:	a2 83       	std	Z+2, r26	; 0x02
    51ca:	b3 83       	std	Z+3, r27	; 0x03

000051cc <.LM236>:
    51cc:	ce 01       	movw	r24, r28
    51ce:	8e 56       	subi	r24, 0x6E	; 110
    51d0:	9f 4f       	sbci	r25, 0xFF	; 255
    51d2:	20 e0       	ldi	r18, 0x00	; 0
    51d4:	30 e0       	ldi	r19, 0x00	; 0
    51d6:	40 e8       	ldi	r20, 0x80	; 128
    51d8:	5f e3       	ldi	r21, 0x3F	; 63
    51da:	dc 01       	movw	r26, r24
    51dc:	6d 91       	ld	r22, X+
    51de:	7d 91       	ld	r23, X+
    51e0:	8d 91       	ld	r24, X+
    51e2:	9c 91       	ld	r25, X
    51e4:	0e 94 af 2f 	call	0x5f5e	; 0x5f5e <__cmpsf2>
    51e8:	88 23       	and	r24, r24
    51ea:	4c f4       	brge	.+18     	; 0x51fe <.L166>

000051ec <.LM237>:
    51ec:	ce 01       	movw	r24, r28
    51ee:	8a 56       	subi	r24, 0x6A	; 106
    51f0:	9f 4f       	sbci	r25, 0xFF	; 255
    51f2:	21 e0       	ldi	r18, 0x01	; 1
    51f4:	30 e0       	ldi	r19, 0x00	; 0
    51f6:	fc 01       	movw	r30, r24
    51f8:	31 83       	std	Z+1, r19	; 0x01
    51fa:	20 83       	st	Z, r18
    51fc:	a5 c0       	rjmp	.+330    	; 0x5348 <.L104>

000051fe <.L166>:
    51fe:	ce 01       	movw	r24, r28
    5200:	8e 56       	subi	r24, 0x6E	; 110
    5202:	9f 4f       	sbci	r25, 0xFF	; 255
    5204:	20 e0       	ldi	r18, 0x00	; 0
    5206:	3f ef       	ldi	r19, 0xFF	; 255
    5208:	4f e7       	ldi	r20, 0x7F	; 127
    520a:	57 e4       	ldi	r21, 0x47	; 71
    520c:	dc 01       	movw	r26, r24
    520e:	6d 91       	ld	r22, X+
    5210:	7d 91       	ld	r23, X+
    5212:	8d 91       	ld	r24, X+
    5214:	9c 91       	ld	r25, X
    5216:	0e 94 30 30 	call	0x6060	; 0x6060 <__gesf2>
    521a:	88 23       	and	r24, r24
    521c:	09 f0       	breq	.+2      	; 0x5220 <L0^A>

0000521e <L0^A>:
    521e:	0c f4       	brge	.+2      	; 0x5222 <.LM239>

00005220 <L0^A>:
    5220:	75 c0       	rjmp	.+234    	; 0x530c <.L167>

00005222 <.LM239>:
    5222:	ce 01       	movw	r24, r28
    5224:	82 57       	subi	r24, 0x72	; 114
    5226:	9f 4f       	sbci	r25, 0xFF	; 255
    5228:	20 e0       	ldi	r18, 0x00	; 0
    522a:	30 e0       	ldi	r19, 0x00	; 0
    522c:	40 e2       	ldi	r20, 0x20	; 32
    522e:	51 e4       	ldi	r21, 0x41	; 65
    5230:	fc 01       	movw	r30, r24
    5232:	60 81       	ld	r22, Z
    5234:	71 81       	ldd	r23, Z+1	; 0x01
    5236:	82 81       	ldd	r24, Z+2	; 0x02
    5238:	93 81       	ldd	r25, Z+3	; 0x03
    523a:	0e 94 35 30 	call	0x606a	; 0x606a <__mulsf3>
    523e:	c0 56       	subi	r28, 0x60	; 96
    5240:	de 4f       	sbci	r29, 0xFE	; 254
    5242:	68 83       	st	Y, r22
    5244:	79 83       	std	Y+1, r23	; 0x01
    5246:	8a 83       	std	Y+2, r24	; 0x02
    5248:	9b 83       	std	Y+3, r25	; 0x03
    524a:	c0 5a       	subi	r28, 0xA0	; 160
    524c:	d1 40       	sbci	r29, 0x01	; 1
    524e:	c0 56       	subi	r28, 0x60	; 96
    5250:	de 4f       	sbci	r29, 0xFE	; 254
    5252:	88 81       	ld	r24, Y
    5254:	99 81       	ldd	r25, Y+1	; 0x01
    5256:	aa 81       	ldd	r26, Y+2	; 0x02
    5258:	bb 81       	ldd	r27, Y+3	; 0x03
    525a:	c0 5a       	subi	r28, 0xA0	; 160
    525c:	d1 40       	sbci	r29, 0x01	; 1
    525e:	c0 52       	subi	r28, 0x20	; 32
    5260:	df 4f       	sbci	r29, 0xFF	; 255
    5262:	88 83       	st	Y, r24
    5264:	99 83       	std	Y+1, r25	; 0x01
    5266:	aa 83       	std	Y+2, r26	; 0x02
    5268:	bb 83       	std	Y+3, r27	; 0x03
    526a:	c0 5e       	subi	r28, 0xE0	; 224
    526c:	d0 40       	sbci	r29, 0x00	; 0

0000526e <.LM240>:
    526e:	8e 01       	movw	r16, r28
    5270:	0a 56       	subi	r16, 0x6A	; 106
    5272:	1f 4f       	sbci	r17, 0xFF	; 255
    5274:	c0 52       	subi	r28, 0x20	; 32
    5276:	df 4f       	sbci	r29, 0xFF	; 255
    5278:	68 81       	ld	r22, Y
    527a:	79 81       	ldd	r23, Y+1	; 0x01
    527c:	8a 81       	ldd	r24, Y+2	; 0x02
    527e:	9b 81       	ldd	r25, Y+3	; 0x03
    5280:	c0 5e       	subi	r28, 0xE0	; 224
    5282:	d0 40       	sbci	r29, 0x00	; 0
    5284:	0e 94 b4 2f 	call	0x5f68	; 0x5f68 <__fixunssfsi>
    5288:	cc 55       	subi	r28, 0x5C	; 92
    528a:	de 4f       	sbci	r29, 0xFE	; 254
    528c:	68 83       	st	Y, r22
    528e:	79 83       	std	Y+1, r23	; 0x01
    5290:	8a 83       	std	Y+2, r24	; 0x02
    5292:	9b 83       	std	Y+3, r25	; 0x03
    5294:	c4 5a       	subi	r28, 0xA4	; 164
    5296:	d1 40       	sbci	r29, 0x01	; 1
    5298:	cc 55       	subi	r28, 0x5C	; 92
    529a:	de 4f       	sbci	r29, 0xFE	; 254
    529c:	e8 81       	ld	r30, Y
    529e:	f9 81       	ldd	r31, Y+1	; 0x01
    52a0:	c4 5a       	subi	r28, 0xA4	; 164
    52a2:	d1 40       	sbci	r29, 0x01	; 1
    52a4:	d8 01       	movw	r26, r16
    52a6:	11 96       	adiw	r26, 0x01	; 1
    52a8:	fc 93       	st	X, r31
    52aa:	ee 93       	st	-X, r30

000052ac <.LM241>:
    52ac:	26 c0       	rjmp	.+76     	; 0x52fa <.L107>

000052ae <.L108>:
    52ae:	ce 01       	movw	r24, r28
    52b0:	88 56       	subi	r24, 0x68	; 104
    52b2:	9f 4f       	sbci	r25, 0xFF	; 255
    52b4:	28 ec       	ldi	r18, 0xC8	; 200
    52b6:	30 e0       	ldi	r19, 0x00	; 0
    52b8:	dc 01       	movw	r26, r24
    52ba:	2d 93       	st	X+, r18
    52bc:	3c 93       	st	X, r19

000052be <.LM242>:
    52be:	ce 01       	movw	r24, r28
    52c0:	88 56       	subi	r24, 0x68	; 104
    52c2:	9f 4f       	sbci	r25, 0xFF	; 255
    52c4:	fc 01       	movw	r30, r24
    52c6:	80 81       	ld	r24, Z
    52c8:	91 81       	ldd	r25, Z+1	; 0x01

000052ca <.L1^B23>:
    52ca:	01 97       	sbiw	r24, 0x01	; 1
    52cc:	f1 f7       	brne	.-4      	; 0x52ca <.L1^B23>
    52ce:	9e 01       	movw	r18, r28
    52d0:	28 56       	subi	r18, 0x68	; 104
    52d2:	3f 4f       	sbci	r19, 0xFF	; 255
    52d4:	d9 01       	movw	r26, r18
    52d6:	8d 93       	st	X+, r24
    52d8:	9c 93       	st	X, r25

000052da <.LM243>:
	...

000052dc <.LM244>:
    52dc:	ce 01       	movw	r24, r28
    52de:	8a 56       	subi	r24, 0x6A	; 106
    52e0:	9f 4f       	sbci	r25, 0xFF	; 255
    52e2:	9e 01       	movw	r18, r28
    52e4:	2a 56       	subi	r18, 0x6A	; 106
    52e6:	3f 4f       	sbci	r19, 0xFF	; 255
    52e8:	f9 01       	movw	r30, r18
    52ea:	20 81       	ld	r18, Z
    52ec:	31 81       	ldd	r19, Z+1	; 0x01
    52ee:	21 50       	subi	r18, 0x01	; 1
    52f0:	31 09       	sbc	r19, r1
    52f2:	dc 01       	movw	r26, r24
    52f4:	11 96       	adiw	r26, 0x01	; 1
    52f6:	3c 93       	st	X, r19
    52f8:	2e 93       	st	-X, r18

000052fa <.L107>:
    52fa:	ce 01       	movw	r24, r28
    52fc:	8a 56       	subi	r24, 0x6A	; 106
    52fe:	9f 4f       	sbci	r25, 0xFF	; 255
    5300:	fc 01       	movw	r30, r24
    5302:	80 81       	ld	r24, Z
    5304:	91 81       	ldd	r25, Z+1	; 0x01
    5306:	00 97       	sbiw	r24, 0x00	; 0
    5308:	91 f6       	brne	.-92     	; 0x52ae <.L108>

0000530a <.LM246>:
    530a:	39 c0       	rjmp	.+114    	; 0x537e <.L109>

0000530c <.L167>:
    530c:	8e 01       	movw	r16, r28
    530e:	0a 56       	subi	r16, 0x6A	; 106
    5310:	1f 4f       	sbci	r17, 0xFF	; 255
    5312:	ce 01       	movw	r24, r28
    5314:	8e 56       	subi	r24, 0x6E	; 110
    5316:	9f 4f       	sbci	r25, 0xFF	; 255
    5318:	dc 01       	movw	r26, r24
    531a:	6d 91       	ld	r22, X+
    531c:	7d 91       	ld	r23, X+
    531e:	8d 91       	ld	r24, X+
    5320:	9c 91       	ld	r25, X
    5322:	0e 94 b4 2f 	call	0x5f68	; 0x5f68 <__fixunssfsi>
    5326:	c8 55       	subi	r28, 0x58	; 88
    5328:	de 4f       	sbci	r29, 0xFE	; 254
    532a:	68 83       	st	Y, r22
    532c:	79 83       	std	Y+1, r23	; 0x01
    532e:	8a 83       	std	Y+2, r24	; 0x02
    5330:	9b 83       	std	Y+3, r25	; 0x03
    5332:	c8 5a       	subi	r28, 0xA8	; 168
    5334:	d1 40       	sbci	r29, 0x01	; 1
    5336:	c8 55       	subi	r28, 0x58	; 88
    5338:	de 4f       	sbci	r29, 0xFE	; 254
    533a:	88 81       	ld	r24, Y
    533c:	99 81       	ldd	r25, Y+1	; 0x01
    533e:	c8 5a       	subi	r28, 0xA8	; 168
    5340:	d1 40       	sbci	r29, 0x01	; 1
    5342:	f8 01       	movw	r30, r16
    5344:	91 83       	std	Z+1, r25	; 0x01
    5346:	80 83       	st	Z, r24

00005348 <.L104>:
    5348:	ce 01       	movw	r24, r28
    534a:	86 56       	subi	r24, 0x66	; 102
    534c:	9f 4f       	sbci	r25, 0xFF	; 255
    534e:	9e 01       	movw	r18, r28
    5350:	2a 56       	subi	r18, 0x6A	; 106
    5352:	3f 4f       	sbci	r19, 0xFF	; 255
    5354:	d9 01       	movw	r26, r18
    5356:	2d 91       	ld	r18, X+
    5358:	3c 91       	ld	r19, X
    535a:	fc 01       	movw	r30, r24
    535c:	31 83       	std	Z+1, r19	; 0x01
    535e:	20 83       	st	Z, r18

00005360 <.LM248>:
    5360:	ce 01       	movw	r24, r28
    5362:	86 56       	subi	r24, 0x66	; 102
    5364:	9f 4f       	sbci	r25, 0xFF	; 255
    5366:	dc 01       	movw	r26, r24
    5368:	8d 91       	ld	r24, X+
    536a:	9c 91       	ld	r25, X

0000536c <.L1^B24>:
    536c:	01 97       	sbiw	r24, 0x01	; 1
    536e:	f1 f7       	brne	.-4      	; 0x536c <.L1^B24>
    5370:	9e 01       	movw	r18, r28
    5372:	26 56       	subi	r18, 0x66	; 102
    5374:	3f 4f       	sbci	r19, 0xFF	; 255
    5376:	f9 01       	movw	r30, r18
    5378:	91 83       	std	Z+1, r25	; 0x01
    537a:	80 83       	st	Z, r24

0000537c <.LM249>:
	...

0000537e <.L109>:
    537e:	81 e0       	ldi	r24, 0x01	; 1
    5380:	0e 94 66 15 	call	0x2acc	; 0x2acc <LCD_WriteCommand>

00005384 <.LM251>:
    5384:	80 e0       	ldi	r24, 0x00	; 0
    5386:	11 c1       	rjmp	.+546    	; 0x55aa <.L43>

00005388 <.L31>:
    5388:	80 ed       	ldi	r24, 0xD0	; 208
    538a:	90 e0       	ldi	r25, 0x00	; 0
    538c:	0e 94 97 1b 	call	0x372e	; 0x372e <LCD_WriteString>
    5390:	9e 01       	movw	r18, r28
    5392:	26 55       	subi	r18, 0x56	; 86
    5394:	3f 4f       	sbci	r19, 0xFF	; 255
    5396:	80 e0       	ldi	r24, 0x00	; 0
    5398:	90 e0       	ldi	r25, 0x00	; 0
    539a:	a8 ec       	ldi	r26, 0xC8	; 200
    539c:	b2 e4       	ldi	r27, 0x42	; 66
    539e:	f9 01       	movw	r30, r18
    53a0:	80 83       	st	Z, r24
    53a2:	91 83       	std	Z+1, r25	; 0x01
    53a4:	a2 83       	std	Z+2, r26	; 0x02
    53a6:	b3 83       	std	Z+3, r27	; 0x03

000053a8 <.LM253>:
    53a8:	8e 01       	movw	r16, r28
    53aa:	02 55       	subi	r16, 0x52	; 82
    53ac:	1f 4f       	sbci	r17, 0xFF	; 255
    53ae:	ce 01       	movw	r24, r28
    53b0:	86 55       	subi	r24, 0x56	; 86
    53b2:	9f 4f       	sbci	r25, 0xFF	; 255
    53b4:	20 e0       	ldi	r18, 0x00	; 0
    53b6:	30 e0       	ldi	r19, 0x00	; 0
    53b8:	4a ef       	ldi	r20, 0xFA	; 250
    53ba:	54 e4       	ldi	r21, 0x44	; 68
    53bc:	dc 01       	movw	r26, r24
    53be:	6d 91       	ld	r22, X+
    53c0:	7d 91       	ld	r23, X+
    53c2:	8d 91       	ld	r24, X+
    53c4:	9c 91       	ld	r25, X
    53c6:	0e 94 35 30 	call	0x606a	; 0x606a <__mulsf3>
    53ca:	c4 55       	subi	r28, 0x54	; 84
    53cc:	de 4f       	sbci	r29, 0xFE	; 254
    53ce:	68 83       	st	Y, r22
    53d0:	79 83       	std	Y+1, r23	; 0x01
    53d2:	8a 83       	std	Y+2, r24	; 0x02
    53d4:	9b 83       	std	Y+3, r25	; 0x03
    53d6:	cc 5a       	subi	r28, 0xAC	; 172
    53d8:	d1 40       	sbci	r29, 0x01	; 1
    53da:	c4 55       	subi	r28, 0x54	; 84
    53dc:	de 4f       	sbci	r29, 0xFE	; 254
    53de:	88 81       	ld	r24, Y
    53e0:	99 81       	ldd	r25, Y+1	; 0x01
    53e2:	aa 81       	ldd	r26, Y+2	; 0x02
    53e4:	bb 81       	ldd	r27, Y+3	; 0x03
    53e6:	cc 5a       	subi	r28, 0xAC	; 172
    53e8:	d1 40       	sbci	r29, 0x01	; 1
    53ea:	f8 01       	movw	r30, r16
    53ec:	80 83       	st	Z, r24
    53ee:	91 83       	std	Z+1, r25	; 0x01
    53f0:	a2 83       	std	Z+2, r26	; 0x02
    53f2:	b3 83       	std	Z+3, r27	; 0x03

000053f4 <.LM254>:
    53f4:	ce 01       	movw	r24, r28
    53f6:	82 55       	subi	r24, 0x52	; 82
    53f8:	9f 4f       	sbci	r25, 0xFF	; 255
    53fa:	20 e0       	ldi	r18, 0x00	; 0
    53fc:	30 e0       	ldi	r19, 0x00	; 0
    53fe:	40 e8       	ldi	r20, 0x80	; 128
    5400:	5f e3       	ldi	r21, 0x3F	; 63
    5402:	dc 01       	movw	r26, r24
    5404:	6d 91       	ld	r22, X+
    5406:	7d 91       	ld	r23, X+
    5408:	8d 91       	ld	r24, X+
    540a:	9c 91       	ld	r25, X
    540c:	0e 94 af 2f 	call	0x5f5e	; 0x5f5e <__cmpsf2>
    5410:	88 23       	and	r24, r24
    5412:	4c f4       	brge	.+18     	; 0x5426 <.L168>

00005414 <.LM255>:
    5414:	ce 01       	movw	r24, r28
    5416:	8e 54       	subi	r24, 0x4E	; 78
    5418:	9f 4f       	sbci	r25, 0xFF	; 255
    541a:	21 e0       	ldi	r18, 0x01	; 1
    541c:	30 e0       	ldi	r19, 0x00	; 0
    541e:	fc 01       	movw	r30, r24
    5420:	31 83       	std	Z+1, r19	; 0x01
    5422:	20 83       	st	Z, r18
    5424:	a5 c0       	rjmp	.+330    	; 0x5570 <.L112>

00005426 <.L168>:
    5426:	ce 01       	movw	r24, r28
    5428:	82 55       	subi	r24, 0x52	; 82
    542a:	9f 4f       	sbci	r25, 0xFF	; 255
    542c:	20 e0       	ldi	r18, 0x00	; 0
    542e:	3f ef       	ldi	r19, 0xFF	; 255
    5430:	4f e7       	ldi	r20, 0x7F	; 127
    5432:	57 e4       	ldi	r21, 0x47	; 71
    5434:	dc 01       	movw	r26, r24
    5436:	6d 91       	ld	r22, X+
    5438:	7d 91       	ld	r23, X+
    543a:	8d 91       	ld	r24, X+
    543c:	9c 91       	ld	r25, X
    543e:	0e 94 30 30 	call	0x6060	; 0x6060 <__gesf2>
    5442:	88 23       	and	r24, r24
    5444:	09 f0       	breq	.+2      	; 0x5448 <L0^A>

00005446 <L0^A>:
    5446:	0c f4       	brge	.+2      	; 0x544a <.LM257>

00005448 <L0^A>:
    5448:	75 c0       	rjmp	.+234    	; 0x5534 <.L169>

0000544a <.LM257>:
    544a:	ce 01       	movw	r24, r28
    544c:	86 55       	subi	r24, 0x56	; 86
    544e:	9f 4f       	sbci	r25, 0xFF	; 255
    5450:	20 e0       	ldi	r18, 0x00	; 0
    5452:	30 e0       	ldi	r19, 0x00	; 0
    5454:	40 e2       	ldi	r20, 0x20	; 32
    5456:	51 e4       	ldi	r21, 0x41	; 65
    5458:	fc 01       	movw	r30, r24
    545a:	60 81       	ld	r22, Z
    545c:	71 81       	ldd	r23, Z+1	; 0x01
    545e:	82 81       	ldd	r24, Z+2	; 0x02
    5460:	93 81       	ldd	r25, Z+3	; 0x03
    5462:	0e 94 35 30 	call	0x606a	; 0x606a <__mulsf3>
    5466:	c0 55       	subi	r28, 0x50	; 80
    5468:	de 4f       	sbci	r29, 0xFE	; 254
    546a:	68 83       	st	Y, r22
    546c:	79 83       	std	Y+1, r23	; 0x01
    546e:	8a 83       	std	Y+2, r24	; 0x02
    5470:	9b 83       	std	Y+3, r25	; 0x03
    5472:	c0 5b       	subi	r28, 0xB0	; 176
    5474:	d1 40       	sbci	r29, 0x01	; 1
    5476:	c0 55       	subi	r28, 0x50	; 80
    5478:	de 4f       	sbci	r29, 0xFE	; 254
    547a:	88 81       	ld	r24, Y
    547c:	99 81       	ldd	r25, Y+1	; 0x01
    547e:	aa 81       	ldd	r26, Y+2	; 0x02
    5480:	bb 81       	ldd	r27, Y+3	; 0x03
    5482:	c0 5b       	subi	r28, 0xB0	; 176
    5484:	d1 40       	sbci	r29, 0x01	; 1
    5486:	c8 51       	subi	r28, 0x18	; 24
    5488:	df 4f       	sbci	r29, 0xFF	; 255
    548a:	88 83       	st	Y, r24
    548c:	99 83       	std	Y+1, r25	; 0x01
    548e:	aa 83       	std	Y+2, r26	; 0x02
    5490:	bb 83       	std	Y+3, r27	; 0x03
    5492:	c8 5e       	subi	r28, 0xE8	; 232
    5494:	d0 40       	sbci	r29, 0x00	; 0

00005496 <.LM258>:
    5496:	8e 01       	movw	r16, r28
    5498:	0e 54       	subi	r16, 0x4E	; 78
    549a:	1f 4f       	sbci	r17, 0xFF	; 255
    549c:	c8 51       	subi	r28, 0x18	; 24
    549e:	df 4f       	sbci	r29, 0xFF	; 255
    54a0:	68 81       	ld	r22, Y
    54a2:	79 81       	ldd	r23, Y+1	; 0x01
    54a4:	8a 81       	ldd	r24, Y+2	; 0x02
    54a6:	9b 81       	ldd	r25, Y+3	; 0x03
    54a8:	c8 5e       	subi	r28, 0xE8	; 232
    54aa:	d0 40       	sbci	r29, 0x00	; 0
    54ac:	0e 94 b4 2f 	call	0x5f68	; 0x5f68 <__fixunssfsi>
    54b0:	cc 54       	subi	r28, 0x4C	; 76
    54b2:	de 4f       	sbci	r29, 0xFE	; 254
    54b4:	68 83       	st	Y, r22
    54b6:	79 83       	std	Y+1, r23	; 0x01
    54b8:	8a 83       	std	Y+2, r24	; 0x02
    54ba:	9b 83       	std	Y+3, r25	; 0x03
    54bc:	c4 5b       	subi	r28, 0xB4	; 180
    54be:	d1 40       	sbci	r29, 0x01	; 1
    54c0:	cc 54       	subi	r28, 0x4C	; 76
    54c2:	de 4f       	sbci	r29, 0xFE	; 254
    54c4:	e8 81       	ld	r30, Y
    54c6:	f9 81       	ldd	r31, Y+1	; 0x01
    54c8:	c4 5b       	subi	r28, 0xB4	; 180
    54ca:	d1 40       	sbci	r29, 0x01	; 1
    54cc:	d8 01       	movw	r26, r16
    54ce:	11 96       	adiw	r26, 0x01	; 1
    54d0:	fc 93       	st	X, r31
    54d2:	ee 93       	st	-X, r30

000054d4 <.LM259>:
    54d4:	26 c0       	rjmp	.+76     	; 0x5522 <.L115>

000054d6 <.L116>:
    54d6:	ce 01       	movw	r24, r28
    54d8:	8c 54       	subi	r24, 0x4C	; 76
    54da:	9f 4f       	sbci	r25, 0xFF	; 255
    54dc:	28 ec       	ldi	r18, 0xC8	; 200
    54de:	30 e0       	ldi	r19, 0x00	; 0
    54e0:	dc 01       	movw	r26, r24
    54e2:	2d 93       	st	X+, r18
    54e4:	3c 93       	st	X, r19

000054e6 <.LM260>:
    54e6:	ce 01       	movw	r24, r28
    54e8:	8c 54       	subi	r24, 0x4C	; 76
    54ea:	9f 4f       	sbci	r25, 0xFF	; 255
    54ec:	fc 01       	movw	r30, r24
    54ee:	80 81       	ld	r24, Z
    54f0:	91 81       	ldd	r25, Z+1	; 0x01

000054f2 <.L1^B25>:
    54f2:	01 97       	sbiw	r24, 0x01	; 1
    54f4:	f1 f7       	brne	.-4      	; 0x54f2 <.L1^B25>
    54f6:	9e 01       	movw	r18, r28
    54f8:	2c 54       	subi	r18, 0x4C	; 76
    54fa:	3f 4f       	sbci	r19, 0xFF	; 255
    54fc:	d9 01       	movw	r26, r18
    54fe:	8d 93       	st	X+, r24
    5500:	9c 93       	st	X, r25

00005502 <.LM261>:
	...

00005504 <.LM262>:
    5504:	ce 01       	movw	r24, r28
    5506:	8e 54       	subi	r24, 0x4E	; 78
    5508:	9f 4f       	sbci	r25, 0xFF	; 255
    550a:	9e 01       	movw	r18, r28
    550c:	2e 54       	subi	r18, 0x4E	; 78
    550e:	3f 4f       	sbci	r19, 0xFF	; 255
    5510:	f9 01       	movw	r30, r18
    5512:	20 81       	ld	r18, Z
    5514:	31 81       	ldd	r19, Z+1	; 0x01
    5516:	21 50       	subi	r18, 0x01	; 1
    5518:	31 09       	sbc	r19, r1
    551a:	dc 01       	movw	r26, r24
    551c:	11 96       	adiw	r26, 0x01	; 1
    551e:	3c 93       	st	X, r19
    5520:	2e 93       	st	-X, r18

00005522 <.L115>:
    5522:	ce 01       	movw	r24, r28
    5524:	8e 54       	subi	r24, 0x4E	; 78
    5526:	9f 4f       	sbci	r25, 0xFF	; 255
    5528:	fc 01       	movw	r30, r24
    552a:	80 81       	ld	r24, Z
    552c:	91 81       	ldd	r25, Z+1	; 0x01
    552e:	00 97       	sbiw	r24, 0x00	; 0
    5530:	91 f6       	brne	.-92     	; 0x54d6 <.L116>

00005532 <.LM264>:
    5532:	3a c0       	rjmp	.+116    	; 0x55a8 <.L117>

00005534 <.L169>:
    5534:	8e 01       	movw	r16, r28
    5536:	0e 54       	subi	r16, 0x4E	; 78
    5538:	1f 4f       	sbci	r17, 0xFF	; 255
    553a:	ce 01       	movw	r24, r28
    553c:	82 55       	subi	r24, 0x52	; 82
    553e:	9f 4f       	sbci	r25, 0xFF	; 255
    5540:	dc 01       	movw	r26, r24
    5542:	6d 91       	ld	r22, X+
    5544:	7d 91       	ld	r23, X+
    5546:	8d 91       	ld	r24, X+
    5548:	9c 91       	ld	r25, X
    554a:	0e 94 b4 2f 	call	0x5f68	; 0x5f68 <__fixunssfsi>
    554e:	c8 54       	subi	r28, 0x48	; 72
    5550:	de 4f       	sbci	r29, 0xFE	; 254
    5552:	68 83       	st	Y, r22
    5554:	79 83       	std	Y+1, r23	; 0x01
    5556:	8a 83       	std	Y+2, r24	; 0x02
    5558:	9b 83       	std	Y+3, r25	; 0x03
    555a:	c8 5b       	subi	r28, 0xB8	; 184
    555c:	d1 40       	sbci	r29, 0x01	; 1
    555e:	c8 54       	subi	r28, 0x48	; 72
    5560:	de 4f       	sbci	r29, 0xFE	; 254
    5562:	88 81       	ld	r24, Y
    5564:	99 81       	ldd	r25, Y+1	; 0x01
    5566:	c8 5b       	subi	r28, 0xB8	; 184
    5568:	d1 40       	sbci	r29, 0x01	; 1
    556a:	f8 01       	movw	r30, r16
    556c:	91 83       	std	Z+1, r25	; 0x01
    556e:	80 83       	st	Z, r24

00005570 <.L112>:
    5570:	ce 01       	movw	r24, r28
    5572:	8a 54       	subi	r24, 0x4A	; 74
    5574:	9f 4f       	sbci	r25, 0xFF	; 255
    5576:	9e 01       	movw	r18, r28
    5578:	2e 54       	subi	r18, 0x4E	; 78
    557a:	3f 4f       	sbci	r19, 0xFF	; 255
    557c:	d9 01       	movw	r26, r18
    557e:	2d 91       	ld	r18, X+
    5580:	3c 91       	ld	r19, X
    5582:	fc 01       	movw	r30, r24
    5584:	31 83       	std	Z+1, r19	; 0x01
    5586:	20 83       	st	Z, r18

00005588 <.LM266>:
    5588:	ce 01       	movw	r24, r28
    558a:	8a 54       	subi	r24, 0x4A	; 74
    558c:	9f 4f       	sbci	r25, 0xFF	; 255
    558e:	dc 01       	movw	r26, r24
    5590:	8d 91       	ld	r24, X+
    5592:	9c 91       	ld	r25, X
    5594:	11 97       	sbiw	r26, 0x01	; 1

00005596 <.L1^B26>:
    5596:	01 97       	sbiw	r24, 0x01	; 1
    5598:	f1 f7       	brne	.-4      	; 0x5596 <.L1^B26>
    559a:	9e 01       	movw	r18, r28
    559c:	2a 54       	subi	r18, 0x4A	; 74
    559e:	3f 4f       	sbci	r19, 0xFF	; 255
    55a0:	f9 01       	movw	r30, r18
    55a2:	91 83       	std	Z+1, r25	; 0x01
    55a4:	80 83       	st	Z, r24

000055a6 <.LM267>:
	...

000055a8 <.L117>:
    55a8:	80 e0       	ldi	r24, 0x00	; 0

000055aa <.L43>:
    55aa:	c5 54       	subi	r28, 0x45	; 69
    55ac:	de 4f       	sbci	r29, 0xFE	; 254
    55ae:	0f b6       	in	r0, 0x3f	; 63
    55b0:	f8 94       	cli
    55b2:	de bf       	out	0x3e, r29	; 62
    55b4:	0f be       	out	0x3f, r0	; 63
    55b6:	cd bf       	out	0x3d, r28	; 61
    55b8:	df 91       	pop	r29
    55ba:	cf 91       	pop	r28
    55bc:	1f 91       	pop	r17
    55be:	0f 91       	pop	r16
    55c0:	08 95       	ret

000055c2 <checkUser1Pass>:
    55c2:	cf 93       	push	r28
    55c4:	df 93       	push	r29
    55c6:	cd b7       	in	r28, 0x3d	; 61
    55c8:	de b7       	in	r29, 0x3e	; 62
    55ca:	ab 97       	sbiw	r28, 0x2b	; 43
    55cc:	0f b6       	in	r0, 0x3f	; 63
    55ce:	f8 94       	cli
    55d0:	de bf       	out	0x3e, r29	; 62
    55d2:	0f be       	out	0x3f, r0	; 63
    55d4:	cd bf       	out	0x3d, r28	; 61

000055d6 <.LM271>:
    55d6:	83 e0       	ldi	r24, 0x03	; 3
    55d8:	89 83       	std	Y+1, r24	; 0x01

000055da <.LM272>:
    55da:	ba c0       	rjmp	.+372    	; 0x5750 <.L171>

000055dc <.L182>:
    55dc:	0e 94 bc 2d 	call	0x5b78	; 0x5b78 <getPass>
    55e0:	68 8f       	std	Y+24, r22	; 0x18
    55e2:	79 8f       	std	Y+25, r23	; 0x19
    55e4:	8a 8f       	std	Y+26, r24	; 0x1a
    55e6:	9b 8f       	std	Y+27, r25	; 0x1b
    55e8:	88 8d       	ldd	r24, Y+24	; 0x18
    55ea:	99 8d       	ldd	r25, Y+25	; 0x19
    55ec:	aa 8d       	ldd	r26, Y+26	; 0x1a
    55ee:	bb 8d       	ldd	r27, Y+27	; 0x1b
    55f0:	8a 83       	std	Y+2, r24	; 0x02
    55f2:	9b 83       	std	Y+3, r25	; 0x03
    55f4:	ac 83       	std	Y+4, r26	; 0x04
    55f6:	bd 83       	std	Y+5, r27	; 0x05

000055f8 <.LM274>:
    55f8:	80 91 60 00 	lds	r24, 0x0060	; 0x800060 <savedpass1>
    55fc:	90 91 61 00 	lds	r25, 0x0061	; 0x800061 <savedpass1+0x1>
    5600:	a0 91 62 00 	lds	r26, 0x0062	; 0x800062 <savedpass1+0x2>
    5604:	b0 91 63 00 	lds	r27, 0x0063	; 0x800063 <savedpass1+0x3>

00005608 <.LM275>:
    5608:	4a 81       	ldd	r20, Y+2	; 0x02
    560a:	5b 81       	ldd	r21, Y+3	; 0x03
    560c:	6c 81       	ldd	r22, Y+4	; 0x04
    560e:	7d 81       	ldd	r23, Y+5	; 0x05
    5610:	48 17       	cp	r20, r24
    5612:	59 07       	cpc	r21, r25
    5614:	6a 07       	cpc	r22, r26
    5616:	7b 07       	cpc	r23, r27
    5618:	11 f4       	brne	.+4      	; 0x561e <.L172>

0000561a <.LM276>:
    561a:	81 e0       	ldi	r24, 0x01	; 1
    561c:	9e c0       	rjmp	.+316    	; 0x575a <.L173>

0000561e <.L172>:
    561e:	8d ed       	ldi	r24, 0xDD	; 221
    5620:	90 e0       	ldi	r25, 0x00	; 0
    5622:	0e 94 97 1b 	call	0x372e	; 0x372e <LCD_WriteString>
    5626:	80 e0       	ldi	r24, 0x00	; 0
    5628:	90 e0       	ldi	r25, 0x00	; 0
    562a:	a8 ec       	ldi	r26, 0xC8	; 200
    562c:	b2 e4       	ldi	r27, 0x42	; 66
    562e:	8e 83       	std	Y+6, r24	; 0x06
    5630:	9f 83       	std	Y+7, r25	; 0x07
    5632:	a8 87       	std	Y+8, r26	; 0x08
    5634:	b9 87       	std	Y+9, r27	; 0x09

00005636 <.LM278>:
    5636:	20 e0       	ldi	r18, 0x00	; 0
    5638:	30 e0       	ldi	r19, 0x00	; 0
    563a:	4a ef       	ldi	r20, 0xFA	; 250
    563c:	54 e4       	ldi	r21, 0x44	; 68
    563e:	6e 81       	ldd	r22, Y+6	; 0x06
    5640:	7f 81       	ldd	r23, Y+7	; 0x07
    5642:	88 85       	ldd	r24, Y+8	; 0x08
    5644:	99 85       	ldd	r25, Y+9	; 0x09
    5646:	0e 94 35 30 	call	0x606a	; 0x606a <__mulsf3>
    564a:	6c 8f       	std	Y+28, r22	; 0x1c
    564c:	7d 8f       	std	Y+29, r23	; 0x1d
    564e:	8e 8f       	std	Y+30, r24	; 0x1e
    5650:	9f 8f       	std	Y+31, r25	; 0x1f
    5652:	8c 8d       	ldd	r24, Y+28	; 0x1c
    5654:	9d 8d       	ldd	r25, Y+29	; 0x1d
    5656:	ae 8d       	ldd	r26, Y+30	; 0x1e
    5658:	bf 8d       	ldd	r27, Y+31	; 0x1f
    565a:	8a 87       	std	Y+10, r24	; 0x0a
    565c:	9b 87       	std	Y+11, r25	; 0x0b
    565e:	ac 87       	std	Y+12, r26	; 0x0c
    5660:	bd 87       	std	Y+13, r27	; 0x0d

00005662 <.LM279>:
    5662:	20 e0       	ldi	r18, 0x00	; 0
    5664:	30 e0       	ldi	r19, 0x00	; 0
    5666:	40 e8       	ldi	r20, 0x80	; 128
    5668:	5f e3       	ldi	r21, 0x3F	; 63
    566a:	6a 85       	ldd	r22, Y+10	; 0x0a
    566c:	7b 85       	ldd	r23, Y+11	; 0x0b
    566e:	8c 85       	ldd	r24, Y+12	; 0x0c
    5670:	9d 85       	ldd	r25, Y+13	; 0x0d
    5672:	0e 94 af 2f 	call	0x5f5e	; 0x5f5e <__cmpsf2>
    5676:	88 23       	and	r24, r24
    5678:	2c f4       	brge	.+10     	; 0x5684 <.L185>

0000567a <.LM280>:
    567a:	81 e0       	ldi	r24, 0x01	; 1
    567c:	90 e0       	ldi	r25, 0x00	; 0
    567e:	9f 87       	std	Y+15, r25	; 0x0f
    5680:	8e 87       	std	Y+14, r24	; 0x0e
    5682:	55 c0       	rjmp	.+170    	; 0x572e <.L176>

00005684 <.L185>:
    5684:	20 e0       	ldi	r18, 0x00	; 0
    5686:	3f ef       	ldi	r19, 0xFF	; 255
    5688:	4f e7       	ldi	r20, 0x7F	; 127
    568a:	57 e4       	ldi	r21, 0x47	; 71
    568c:	6a 85       	ldd	r22, Y+10	; 0x0a
    568e:	7b 85       	ldd	r23, Y+11	; 0x0b
    5690:	8c 85       	ldd	r24, Y+12	; 0x0c
    5692:	9d 85       	ldd	r25, Y+13	; 0x0d
    5694:	0e 94 30 30 	call	0x6060	; 0x6060 <__gesf2>
    5698:	88 23       	and	r24, r24
    569a:	d9 f1       	breq	.+118    	; 0x5712 <.L186>
    569c:	d4 f1       	brlt	.+116    	; 0x5712 <.L186>

0000569e <.LM282>:
    569e:	20 e0       	ldi	r18, 0x00	; 0
    56a0:	30 e0       	ldi	r19, 0x00	; 0
    56a2:	40 e2       	ldi	r20, 0x20	; 32
    56a4:	51 e4       	ldi	r21, 0x41	; 65
    56a6:	6e 81       	ldd	r22, Y+6	; 0x06
    56a8:	7f 81       	ldd	r23, Y+7	; 0x07
    56aa:	88 85       	ldd	r24, Y+8	; 0x08
    56ac:	99 85       	ldd	r25, Y+9	; 0x09
    56ae:	0e 94 35 30 	call	0x606a	; 0x606a <__mulsf3>
    56b2:	68 a3       	std	Y+32, r22	; 0x20
    56b4:	79 a3       	std	Y+33, r23	; 0x21
    56b6:	8a a3       	std	Y+34, r24	; 0x22
    56b8:	9b a3       	std	Y+35, r25	; 0x23
    56ba:	88 a1       	ldd	r24, Y+32	; 0x20
    56bc:	99 a1       	ldd	r25, Y+33	; 0x21
    56be:	aa a1       	ldd	r26, Y+34	; 0x22
    56c0:	bb a1       	ldd	r27, Y+35	; 0x23
    56c2:	8c 8b       	std	Y+20, r24	; 0x14
    56c4:	9d 8b       	std	Y+21, r25	; 0x15
    56c6:	ae 8b       	std	Y+22, r26	; 0x16
    56c8:	bf 8b       	std	Y+23, r27	; 0x17

000056ca <.LM283>:
    56ca:	6c 89       	ldd	r22, Y+20	; 0x14
    56cc:	7d 89       	ldd	r23, Y+21	; 0x15
    56ce:	8e 89       	ldd	r24, Y+22	; 0x16
    56d0:	9f 89       	ldd	r25, Y+23	; 0x17
    56d2:	0e 94 b4 2f 	call	0x5f68	; 0x5f68 <__fixunssfsi>
    56d6:	6c a3       	std	Y+36, r22	; 0x24
    56d8:	7d a3       	std	Y+37, r23	; 0x25
    56da:	8e a3       	std	Y+38, r24	; 0x26
    56dc:	9f a3       	std	Y+39, r25	; 0x27
    56de:	ac a1       	ldd	r26, Y+36	; 0x24
    56e0:	bd a1       	ldd	r27, Y+37	; 0x25
    56e2:	bf 87       	std	Y+15, r27	; 0x0f
    56e4:	ae 87       	std	Y+14, r26	; 0x0e

000056e6 <.LM284>:
    56e6:	10 c0       	rjmp	.+32     	; 0x5708 <.L179>

000056e8 <.L180>:
    56e8:	88 ec       	ldi	r24, 0xC8	; 200
    56ea:	90 e0       	ldi	r25, 0x00	; 0
    56ec:	99 8b       	std	Y+17, r25	; 0x11
    56ee:	88 8b       	std	Y+16, r24	; 0x10

000056f0 <.LM285>:
    56f0:	88 89       	ldd	r24, Y+16	; 0x10
    56f2:	99 89       	ldd	r25, Y+17	; 0x11

000056f4 <.L1^B27>:
    56f4:	01 97       	sbiw	r24, 0x01	; 1
    56f6:	f1 f7       	brne	.-4      	; 0x56f4 <.L1^B27>
    56f8:	99 8b       	std	Y+17, r25	; 0x11
    56fa:	88 8b       	std	Y+16, r24	; 0x10

000056fc <.LM286>:
	...

000056fe <.LM287>:
    56fe:	8e 85       	ldd	r24, Y+14	; 0x0e
    5700:	9f 85       	ldd	r25, Y+15	; 0x0f
    5702:	01 97       	sbiw	r24, 0x01	; 1
    5704:	9f 87       	std	Y+15, r25	; 0x0f
    5706:	8e 87       	std	Y+14, r24	; 0x0e

00005708 <.L179>:
    5708:	8e 85       	ldd	r24, Y+14	; 0x0e
    570a:	9f 85       	ldd	r25, Y+15	; 0x0f
    570c:	00 97       	sbiw	r24, 0x00	; 0
    570e:	61 f7       	brne	.-40     	; 0x56e8 <.L180>

00005710 <.LM289>:
    5710:	19 c0       	rjmp	.+50     	; 0x5744 <.L181>

00005712 <.L186>:
    5712:	6a 85       	ldd	r22, Y+10	; 0x0a
    5714:	7b 85       	ldd	r23, Y+11	; 0x0b
    5716:	8c 85       	ldd	r24, Y+12	; 0x0c
    5718:	9d 85       	ldd	r25, Y+13	; 0x0d
    571a:	0e 94 b4 2f 	call	0x5f68	; 0x5f68 <__fixunssfsi>
    571e:	68 a7       	std	Y+40, r22	; 0x28
    5720:	79 a7       	std	Y+41, r23	; 0x29
    5722:	8a a7       	std	Y+42, r24	; 0x2a
    5724:	9b a7       	std	Y+43, r25	; 0x2b
    5726:	88 a5       	ldd	r24, Y+40	; 0x28
    5728:	99 a5       	ldd	r25, Y+41	; 0x29
    572a:	9f 87       	std	Y+15, r25	; 0x0f
    572c:	8e 87       	std	Y+14, r24	; 0x0e

0000572e <.L176>:
    572e:	8e 85       	ldd	r24, Y+14	; 0x0e
    5730:	9f 85       	ldd	r25, Y+15	; 0x0f
    5732:	9b 8b       	std	Y+19, r25	; 0x13
    5734:	8a 8b       	std	Y+18, r24	; 0x12

00005736 <.LM291>:
    5736:	8a 89       	ldd	r24, Y+18	; 0x12
    5738:	9b 89       	ldd	r25, Y+19	; 0x13

0000573a <.L1^B28>:
    573a:	01 97       	sbiw	r24, 0x01	; 1
    573c:	f1 f7       	brne	.-4      	; 0x573a <.L1^B28>
    573e:	9b 8b       	std	Y+19, r25	; 0x13
    5740:	8a 8b       	std	Y+18, r24	; 0x12

00005742 <.LM292>:
	...

00005744 <.L181>:
    5744:	81 e0       	ldi	r24, 0x01	; 1
    5746:	0e 94 66 15 	call	0x2acc	; 0x2acc <LCD_WriteCommand>

0000574a <.LM294>:
    574a:	89 81       	ldd	r24, Y+1	; 0x01
    574c:	81 50       	subi	r24, 0x01	; 1
    574e:	89 83       	std	Y+1, r24	; 0x01

00005750 <.L171>:
    5750:	89 81       	ldd	r24, Y+1	; 0x01
    5752:	88 23       	and	r24, r24
    5754:	09 f0       	breq	.+2      	; 0x5758 <.LM296>

00005756 <L0^A>:
    5756:	42 cf       	rjmp	.-380    	; 0x55dc <.L182>

00005758 <.LM296>:
    5758:	80 e0       	ldi	r24, 0x00	; 0

0000575a <.L173>:
    575a:	ab 96       	adiw	r28, 0x2b	; 43
    575c:	0f b6       	in	r0, 0x3f	; 63
    575e:	f8 94       	cli
    5760:	de bf       	out	0x3e, r29	; 62
    5762:	0f be       	out	0x3f, r0	; 63
    5764:	cd bf       	out	0x3d, r28	; 61
    5766:	df 91       	pop	r29
    5768:	cf 91       	pop	r28
    576a:	08 95       	ret

0000576c <checkUser2Pass>:
    576c:	cf 93       	push	r28
    576e:	df 93       	push	r29
    5770:	cd b7       	in	r28, 0x3d	; 61
    5772:	de b7       	in	r29, 0x3e	; 62
    5774:	ab 97       	sbiw	r28, 0x2b	; 43
    5776:	0f b6       	in	r0, 0x3f	; 63
    5778:	f8 94       	cli
    577a:	de bf       	out	0x3e, r29	; 62
    577c:	0f be       	out	0x3f, r0	; 63
    577e:	cd bf       	out	0x3d, r28	; 61

00005780 <.LM299>:
    5780:	83 e0       	ldi	r24, 0x03	; 3
    5782:	89 83       	std	Y+1, r24	; 0x01

00005784 <.LM300>:
    5784:	ba c0       	rjmp	.+372    	; 0x58fa <.L188>

00005786 <.L199>:
    5786:	0e 94 bc 2d 	call	0x5b78	; 0x5b78 <getPass>
    578a:	68 8f       	std	Y+24, r22	; 0x18
    578c:	79 8f       	std	Y+25, r23	; 0x19
    578e:	8a 8f       	std	Y+26, r24	; 0x1a
    5790:	9b 8f       	std	Y+27, r25	; 0x1b
    5792:	88 8d       	ldd	r24, Y+24	; 0x18
    5794:	99 8d       	ldd	r25, Y+25	; 0x19
    5796:	aa 8d       	ldd	r26, Y+26	; 0x1a
    5798:	bb 8d       	ldd	r27, Y+27	; 0x1b
    579a:	8a 83       	std	Y+2, r24	; 0x02
    579c:	9b 83       	std	Y+3, r25	; 0x03
    579e:	ac 83       	std	Y+4, r26	; 0x04
    57a0:	bd 83       	std	Y+5, r27	; 0x05

000057a2 <.LM302>:
    57a2:	80 91 64 00 	lds	r24, 0x0064	; 0x800064 <savedpass2>
    57a6:	90 91 65 00 	lds	r25, 0x0065	; 0x800065 <savedpass2+0x1>
    57aa:	a0 91 66 00 	lds	r26, 0x0066	; 0x800066 <savedpass2+0x2>
    57ae:	b0 91 67 00 	lds	r27, 0x0067	; 0x800067 <savedpass2+0x3>

000057b2 <.LM303>:
    57b2:	4a 81       	ldd	r20, Y+2	; 0x02
    57b4:	5b 81       	ldd	r21, Y+3	; 0x03
    57b6:	6c 81       	ldd	r22, Y+4	; 0x04
    57b8:	7d 81       	ldd	r23, Y+5	; 0x05
    57ba:	48 17       	cp	r20, r24
    57bc:	59 07       	cpc	r21, r25
    57be:	6a 07       	cpc	r22, r26
    57c0:	7b 07       	cpc	r23, r27
    57c2:	11 f4       	brne	.+4      	; 0x57c8 <.L189>

000057c4 <.LM304>:
    57c4:	81 e0       	ldi	r24, 0x01	; 1
    57c6:	9e c0       	rjmp	.+316    	; 0x5904 <.L190>

000057c8 <.L189>:
    57c8:	8d ed       	ldi	r24, 0xDD	; 221
    57ca:	90 e0       	ldi	r25, 0x00	; 0
    57cc:	0e 94 97 1b 	call	0x372e	; 0x372e <LCD_WriteString>
    57d0:	80 e0       	ldi	r24, 0x00	; 0
    57d2:	90 e0       	ldi	r25, 0x00	; 0
    57d4:	a8 ec       	ldi	r26, 0xC8	; 200
    57d6:	b2 e4       	ldi	r27, 0x42	; 66
    57d8:	8e 83       	std	Y+6, r24	; 0x06
    57da:	9f 83       	std	Y+7, r25	; 0x07
    57dc:	a8 87       	std	Y+8, r26	; 0x08
    57de:	b9 87       	std	Y+9, r27	; 0x09

000057e0 <.LM306>:
    57e0:	20 e0       	ldi	r18, 0x00	; 0
    57e2:	30 e0       	ldi	r19, 0x00	; 0
    57e4:	4a ef       	ldi	r20, 0xFA	; 250
    57e6:	54 e4       	ldi	r21, 0x44	; 68
    57e8:	6e 81       	ldd	r22, Y+6	; 0x06
    57ea:	7f 81       	ldd	r23, Y+7	; 0x07
    57ec:	88 85       	ldd	r24, Y+8	; 0x08
    57ee:	99 85       	ldd	r25, Y+9	; 0x09
    57f0:	0e 94 35 30 	call	0x606a	; 0x606a <__mulsf3>
    57f4:	6c 8f       	std	Y+28, r22	; 0x1c
    57f6:	7d 8f       	std	Y+29, r23	; 0x1d
    57f8:	8e 8f       	std	Y+30, r24	; 0x1e
    57fa:	9f 8f       	std	Y+31, r25	; 0x1f
    57fc:	8c 8d       	ldd	r24, Y+28	; 0x1c
    57fe:	9d 8d       	ldd	r25, Y+29	; 0x1d
    5800:	ae 8d       	ldd	r26, Y+30	; 0x1e
    5802:	bf 8d       	ldd	r27, Y+31	; 0x1f
    5804:	8a 87       	std	Y+10, r24	; 0x0a
    5806:	9b 87       	std	Y+11, r25	; 0x0b
    5808:	ac 87       	std	Y+12, r26	; 0x0c
    580a:	bd 87       	std	Y+13, r27	; 0x0d

0000580c <.LM307>:
    580c:	20 e0       	ldi	r18, 0x00	; 0
    580e:	30 e0       	ldi	r19, 0x00	; 0
    5810:	40 e8       	ldi	r20, 0x80	; 128
    5812:	5f e3       	ldi	r21, 0x3F	; 63
    5814:	6a 85       	ldd	r22, Y+10	; 0x0a
    5816:	7b 85       	ldd	r23, Y+11	; 0x0b
    5818:	8c 85       	ldd	r24, Y+12	; 0x0c
    581a:	9d 85       	ldd	r25, Y+13	; 0x0d
    581c:	0e 94 af 2f 	call	0x5f5e	; 0x5f5e <__cmpsf2>
    5820:	88 23       	and	r24, r24
    5822:	2c f4       	brge	.+10     	; 0x582e <.L202>

00005824 <.LM308>:
    5824:	81 e0       	ldi	r24, 0x01	; 1
    5826:	90 e0       	ldi	r25, 0x00	; 0
    5828:	9f 87       	std	Y+15, r25	; 0x0f
    582a:	8e 87       	std	Y+14, r24	; 0x0e
    582c:	55 c0       	rjmp	.+170    	; 0x58d8 <.L193>

0000582e <.L202>:
    582e:	20 e0       	ldi	r18, 0x00	; 0
    5830:	3f ef       	ldi	r19, 0xFF	; 255
    5832:	4f e7       	ldi	r20, 0x7F	; 127
    5834:	57 e4       	ldi	r21, 0x47	; 71
    5836:	6a 85       	ldd	r22, Y+10	; 0x0a
    5838:	7b 85       	ldd	r23, Y+11	; 0x0b
    583a:	8c 85       	ldd	r24, Y+12	; 0x0c
    583c:	9d 85       	ldd	r25, Y+13	; 0x0d
    583e:	0e 94 30 30 	call	0x6060	; 0x6060 <__gesf2>
    5842:	88 23       	and	r24, r24
    5844:	d9 f1       	breq	.+118    	; 0x58bc <.L203>
    5846:	d4 f1       	brlt	.+116    	; 0x58bc <.L203>

00005848 <.LM310>:
    5848:	20 e0       	ldi	r18, 0x00	; 0
    584a:	30 e0       	ldi	r19, 0x00	; 0
    584c:	40 e2       	ldi	r20, 0x20	; 32
    584e:	51 e4       	ldi	r21, 0x41	; 65
    5850:	6e 81       	ldd	r22, Y+6	; 0x06
    5852:	7f 81       	ldd	r23, Y+7	; 0x07
    5854:	88 85       	ldd	r24, Y+8	; 0x08
    5856:	99 85       	ldd	r25, Y+9	; 0x09
    5858:	0e 94 35 30 	call	0x606a	; 0x606a <__mulsf3>
    585c:	68 a3       	std	Y+32, r22	; 0x20
    585e:	79 a3       	std	Y+33, r23	; 0x21
    5860:	8a a3       	std	Y+34, r24	; 0x22
    5862:	9b a3       	std	Y+35, r25	; 0x23
    5864:	88 a1       	ldd	r24, Y+32	; 0x20
    5866:	99 a1       	ldd	r25, Y+33	; 0x21
    5868:	aa a1       	ldd	r26, Y+34	; 0x22
    586a:	bb a1       	ldd	r27, Y+35	; 0x23
    586c:	8c 8b       	std	Y+20, r24	; 0x14
    586e:	9d 8b       	std	Y+21, r25	; 0x15
    5870:	ae 8b       	std	Y+22, r26	; 0x16
    5872:	bf 8b       	std	Y+23, r27	; 0x17

00005874 <.LM311>:
    5874:	6c 89       	ldd	r22, Y+20	; 0x14
    5876:	7d 89       	ldd	r23, Y+21	; 0x15
    5878:	8e 89       	ldd	r24, Y+22	; 0x16
    587a:	9f 89       	ldd	r25, Y+23	; 0x17
    587c:	0e 94 b4 2f 	call	0x5f68	; 0x5f68 <__fixunssfsi>
    5880:	6c a3       	std	Y+36, r22	; 0x24
    5882:	7d a3       	std	Y+37, r23	; 0x25
    5884:	8e a3       	std	Y+38, r24	; 0x26
    5886:	9f a3       	std	Y+39, r25	; 0x27
    5888:	ac a1       	ldd	r26, Y+36	; 0x24
    588a:	bd a1       	ldd	r27, Y+37	; 0x25
    588c:	bf 87       	std	Y+15, r27	; 0x0f
    588e:	ae 87       	std	Y+14, r26	; 0x0e

00005890 <.LM312>:
    5890:	10 c0       	rjmp	.+32     	; 0x58b2 <.L196>

00005892 <.L197>:
    5892:	88 ec       	ldi	r24, 0xC8	; 200
    5894:	90 e0       	ldi	r25, 0x00	; 0
    5896:	99 8b       	std	Y+17, r25	; 0x11
    5898:	88 8b       	std	Y+16, r24	; 0x10

0000589a <.LM313>:
    589a:	88 89       	ldd	r24, Y+16	; 0x10
    589c:	99 89       	ldd	r25, Y+17	; 0x11

0000589e <.L1^B29>:
    589e:	01 97       	sbiw	r24, 0x01	; 1
    58a0:	f1 f7       	brne	.-4      	; 0x589e <.L1^B29>
    58a2:	99 8b       	std	Y+17, r25	; 0x11
    58a4:	88 8b       	std	Y+16, r24	; 0x10

000058a6 <.LM314>:
	...

000058a8 <.LM315>:
    58a8:	8e 85       	ldd	r24, Y+14	; 0x0e
    58aa:	9f 85       	ldd	r25, Y+15	; 0x0f
    58ac:	01 97       	sbiw	r24, 0x01	; 1
    58ae:	9f 87       	std	Y+15, r25	; 0x0f
    58b0:	8e 87       	std	Y+14, r24	; 0x0e

000058b2 <.L196>:
    58b2:	8e 85       	ldd	r24, Y+14	; 0x0e
    58b4:	9f 85       	ldd	r25, Y+15	; 0x0f
    58b6:	00 97       	sbiw	r24, 0x00	; 0
    58b8:	61 f7       	brne	.-40     	; 0x5892 <.L197>

000058ba <.LM317>:
    58ba:	19 c0       	rjmp	.+50     	; 0x58ee <.L198>

000058bc <.L203>:
    58bc:	6a 85       	ldd	r22, Y+10	; 0x0a
    58be:	7b 85       	ldd	r23, Y+11	; 0x0b
    58c0:	8c 85       	ldd	r24, Y+12	; 0x0c
    58c2:	9d 85       	ldd	r25, Y+13	; 0x0d
    58c4:	0e 94 b4 2f 	call	0x5f68	; 0x5f68 <__fixunssfsi>
    58c8:	68 a7       	std	Y+40, r22	; 0x28
    58ca:	79 a7       	std	Y+41, r23	; 0x29
    58cc:	8a a7       	std	Y+42, r24	; 0x2a
    58ce:	9b a7       	std	Y+43, r25	; 0x2b
    58d0:	88 a5       	ldd	r24, Y+40	; 0x28
    58d2:	99 a5       	ldd	r25, Y+41	; 0x29
    58d4:	9f 87       	std	Y+15, r25	; 0x0f
    58d6:	8e 87       	std	Y+14, r24	; 0x0e

000058d8 <.L193>:
    58d8:	8e 85       	ldd	r24, Y+14	; 0x0e
    58da:	9f 85       	ldd	r25, Y+15	; 0x0f
    58dc:	9b 8b       	std	Y+19, r25	; 0x13
    58de:	8a 8b       	std	Y+18, r24	; 0x12

000058e0 <.LM319>:
    58e0:	8a 89       	ldd	r24, Y+18	; 0x12
    58e2:	9b 89       	ldd	r25, Y+19	; 0x13

000058e4 <.L1^B30>:
    58e4:	01 97       	sbiw	r24, 0x01	; 1
    58e6:	f1 f7       	brne	.-4      	; 0x58e4 <.L1^B30>
    58e8:	9b 8b       	std	Y+19, r25	; 0x13
    58ea:	8a 8b       	std	Y+18, r24	; 0x12

000058ec <.LM320>:
	...

000058ee <.L198>:
    58ee:	81 e0       	ldi	r24, 0x01	; 1
    58f0:	0e 94 66 15 	call	0x2acc	; 0x2acc <LCD_WriteCommand>

000058f4 <.LM322>:
    58f4:	89 81       	ldd	r24, Y+1	; 0x01
    58f6:	81 50       	subi	r24, 0x01	; 1
    58f8:	89 83       	std	Y+1, r24	; 0x01

000058fa <.L188>:
    58fa:	89 81       	ldd	r24, Y+1	; 0x01
    58fc:	88 23       	and	r24, r24
    58fe:	09 f0       	breq	.+2      	; 0x5902 <.LM324>

00005900 <L0^A>:
    5900:	42 cf       	rjmp	.-380    	; 0x5786 <.L199>

00005902 <.LM324>:
    5902:	80 e0       	ldi	r24, 0x00	; 0

00005904 <.L190>:
    5904:	ab 96       	adiw	r28, 0x2b	; 43
    5906:	0f b6       	in	r0, 0x3f	; 63
    5908:	f8 94       	cli
    590a:	de bf       	out	0x3e, r29	; 62
    590c:	0f be       	out	0x3f, r0	; 63
    590e:	cd bf       	out	0x3d, r28	; 61
    5910:	df 91       	pop	r29
    5912:	cf 91       	pop	r28
    5914:	08 95       	ret

00005916 <checkUser3Pass>:
    5916:	cf 93       	push	r28
    5918:	df 93       	push	r29
    591a:	cd b7       	in	r28, 0x3d	; 61
    591c:	de b7       	in	r29, 0x3e	; 62
    591e:	ab 97       	sbiw	r28, 0x2b	; 43
    5920:	0f b6       	in	r0, 0x3f	; 63
    5922:	f8 94       	cli
    5924:	de bf       	out	0x3e, r29	; 62
    5926:	0f be       	out	0x3f, r0	; 63
    5928:	cd bf       	out	0x3d, r28	; 61

0000592a <.LM327>:
    592a:	83 e0       	ldi	r24, 0x03	; 3
    592c:	89 83       	std	Y+1, r24	; 0x01

0000592e <.LM328>:
    592e:	ba c0       	rjmp	.+372    	; 0x5aa4 <.L205>

00005930 <.L216>:
    5930:	0e 94 bc 2d 	call	0x5b78	; 0x5b78 <getPass>
    5934:	68 8f       	std	Y+24, r22	; 0x18
    5936:	79 8f       	std	Y+25, r23	; 0x19
    5938:	8a 8f       	std	Y+26, r24	; 0x1a
    593a:	9b 8f       	std	Y+27, r25	; 0x1b
    593c:	88 8d       	ldd	r24, Y+24	; 0x18
    593e:	99 8d       	ldd	r25, Y+25	; 0x19
    5940:	aa 8d       	ldd	r26, Y+26	; 0x1a
    5942:	bb 8d       	ldd	r27, Y+27	; 0x1b
    5944:	8a 83       	std	Y+2, r24	; 0x02
    5946:	9b 83       	std	Y+3, r25	; 0x03
    5948:	ac 83       	std	Y+4, r26	; 0x04
    594a:	bd 83       	std	Y+5, r27	; 0x05

0000594c <.LM330>:
    594c:	80 91 3d 01 	lds	r24, 0x013D	; 0x80013d <savedpass3>
    5950:	90 91 3e 01 	lds	r25, 0x013E	; 0x80013e <savedpass3+0x1>
    5954:	a0 91 3f 01 	lds	r26, 0x013F	; 0x80013f <savedpass3+0x2>
    5958:	b0 91 40 01 	lds	r27, 0x0140	; 0x800140 <savedpass3+0x3>

0000595c <.LM331>:
    595c:	4a 81       	ldd	r20, Y+2	; 0x02
    595e:	5b 81       	ldd	r21, Y+3	; 0x03
    5960:	6c 81       	ldd	r22, Y+4	; 0x04
    5962:	7d 81       	ldd	r23, Y+5	; 0x05
    5964:	48 17       	cp	r20, r24
    5966:	59 07       	cpc	r21, r25
    5968:	6a 07       	cpc	r22, r26
    596a:	7b 07       	cpc	r23, r27
    596c:	11 f4       	brne	.+4      	; 0x5972 <.L206>

0000596e <.LM332>:
    596e:	81 e0       	ldi	r24, 0x01	; 1
    5970:	9e c0       	rjmp	.+316    	; 0x5aae <.L207>

00005972 <.L206>:
    5972:	8d ed       	ldi	r24, 0xDD	; 221
    5974:	90 e0       	ldi	r25, 0x00	; 0
    5976:	0e 94 97 1b 	call	0x372e	; 0x372e <LCD_WriteString>
    597a:	80 e0       	ldi	r24, 0x00	; 0
    597c:	90 e0       	ldi	r25, 0x00	; 0
    597e:	a8 ec       	ldi	r26, 0xC8	; 200
    5980:	b2 e4       	ldi	r27, 0x42	; 66
    5982:	8e 83       	std	Y+6, r24	; 0x06
    5984:	9f 83       	std	Y+7, r25	; 0x07
    5986:	a8 87       	std	Y+8, r26	; 0x08
    5988:	b9 87       	std	Y+9, r27	; 0x09

0000598a <.LM334>:
    598a:	20 e0       	ldi	r18, 0x00	; 0
    598c:	30 e0       	ldi	r19, 0x00	; 0
    598e:	4a ef       	ldi	r20, 0xFA	; 250
    5990:	54 e4       	ldi	r21, 0x44	; 68
    5992:	6e 81       	ldd	r22, Y+6	; 0x06
    5994:	7f 81       	ldd	r23, Y+7	; 0x07
    5996:	88 85       	ldd	r24, Y+8	; 0x08
    5998:	99 85       	ldd	r25, Y+9	; 0x09
    599a:	0e 94 35 30 	call	0x606a	; 0x606a <__mulsf3>
    599e:	6c 8f       	std	Y+28, r22	; 0x1c
    59a0:	7d 8f       	std	Y+29, r23	; 0x1d
    59a2:	8e 8f       	std	Y+30, r24	; 0x1e
    59a4:	9f 8f       	std	Y+31, r25	; 0x1f
    59a6:	8c 8d       	ldd	r24, Y+28	; 0x1c
    59a8:	9d 8d       	ldd	r25, Y+29	; 0x1d
    59aa:	ae 8d       	ldd	r26, Y+30	; 0x1e
    59ac:	bf 8d       	ldd	r27, Y+31	; 0x1f
    59ae:	8a 87       	std	Y+10, r24	; 0x0a
    59b0:	9b 87       	std	Y+11, r25	; 0x0b
    59b2:	ac 87       	std	Y+12, r26	; 0x0c
    59b4:	bd 87       	std	Y+13, r27	; 0x0d

000059b6 <.LM335>:
    59b6:	20 e0       	ldi	r18, 0x00	; 0
    59b8:	30 e0       	ldi	r19, 0x00	; 0
    59ba:	40 e8       	ldi	r20, 0x80	; 128
    59bc:	5f e3       	ldi	r21, 0x3F	; 63
    59be:	6a 85       	ldd	r22, Y+10	; 0x0a
    59c0:	7b 85       	ldd	r23, Y+11	; 0x0b
    59c2:	8c 85       	ldd	r24, Y+12	; 0x0c
    59c4:	9d 85       	ldd	r25, Y+13	; 0x0d
    59c6:	0e 94 af 2f 	call	0x5f5e	; 0x5f5e <__cmpsf2>
    59ca:	88 23       	and	r24, r24
    59cc:	2c f4       	brge	.+10     	; 0x59d8 <.L219>

000059ce <.LM336>:
    59ce:	81 e0       	ldi	r24, 0x01	; 1
    59d0:	90 e0       	ldi	r25, 0x00	; 0
    59d2:	9f 87       	std	Y+15, r25	; 0x0f
    59d4:	8e 87       	std	Y+14, r24	; 0x0e
    59d6:	55 c0       	rjmp	.+170    	; 0x5a82 <.L210>

000059d8 <.L219>:
    59d8:	20 e0       	ldi	r18, 0x00	; 0
    59da:	3f ef       	ldi	r19, 0xFF	; 255
    59dc:	4f e7       	ldi	r20, 0x7F	; 127
    59de:	57 e4       	ldi	r21, 0x47	; 71
    59e0:	6a 85       	ldd	r22, Y+10	; 0x0a
    59e2:	7b 85       	ldd	r23, Y+11	; 0x0b
    59e4:	8c 85       	ldd	r24, Y+12	; 0x0c
    59e6:	9d 85       	ldd	r25, Y+13	; 0x0d
    59e8:	0e 94 30 30 	call	0x6060	; 0x6060 <__gesf2>
    59ec:	88 23       	and	r24, r24
    59ee:	d9 f1       	breq	.+118    	; 0x5a66 <.L220>
    59f0:	d4 f1       	brlt	.+116    	; 0x5a66 <.L220>

000059f2 <.LM338>:
    59f2:	20 e0       	ldi	r18, 0x00	; 0
    59f4:	30 e0       	ldi	r19, 0x00	; 0
    59f6:	40 e2       	ldi	r20, 0x20	; 32
    59f8:	51 e4       	ldi	r21, 0x41	; 65
    59fa:	6e 81       	ldd	r22, Y+6	; 0x06
    59fc:	7f 81       	ldd	r23, Y+7	; 0x07
    59fe:	88 85       	ldd	r24, Y+8	; 0x08
    5a00:	99 85       	ldd	r25, Y+9	; 0x09
    5a02:	0e 94 35 30 	call	0x606a	; 0x606a <__mulsf3>
    5a06:	68 a3       	std	Y+32, r22	; 0x20
    5a08:	79 a3       	std	Y+33, r23	; 0x21
    5a0a:	8a a3       	std	Y+34, r24	; 0x22
    5a0c:	9b a3       	std	Y+35, r25	; 0x23
    5a0e:	88 a1       	ldd	r24, Y+32	; 0x20
    5a10:	99 a1       	ldd	r25, Y+33	; 0x21
    5a12:	aa a1       	ldd	r26, Y+34	; 0x22
    5a14:	bb a1       	ldd	r27, Y+35	; 0x23
    5a16:	8c 8b       	std	Y+20, r24	; 0x14
    5a18:	9d 8b       	std	Y+21, r25	; 0x15
    5a1a:	ae 8b       	std	Y+22, r26	; 0x16
    5a1c:	bf 8b       	std	Y+23, r27	; 0x17

00005a1e <.LM339>:
    5a1e:	6c 89       	ldd	r22, Y+20	; 0x14
    5a20:	7d 89       	ldd	r23, Y+21	; 0x15
    5a22:	8e 89       	ldd	r24, Y+22	; 0x16
    5a24:	9f 89       	ldd	r25, Y+23	; 0x17
    5a26:	0e 94 b4 2f 	call	0x5f68	; 0x5f68 <__fixunssfsi>
    5a2a:	6c a3       	std	Y+36, r22	; 0x24
    5a2c:	7d a3       	std	Y+37, r23	; 0x25
    5a2e:	8e a3       	std	Y+38, r24	; 0x26
    5a30:	9f a3       	std	Y+39, r25	; 0x27
    5a32:	ac a1       	ldd	r26, Y+36	; 0x24
    5a34:	bd a1       	ldd	r27, Y+37	; 0x25
    5a36:	bf 87       	std	Y+15, r27	; 0x0f
    5a38:	ae 87       	std	Y+14, r26	; 0x0e

00005a3a <.LM340>:
    5a3a:	10 c0       	rjmp	.+32     	; 0x5a5c <.L213>

00005a3c <.L214>:
    5a3c:	88 ec       	ldi	r24, 0xC8	; 200
    5a3e:	90 e0       	ldi	r25, 0x00	; 0
    5a40:	99 8b       	std	Y+17, r25	; 0x11
    5a42:	88 8b       	std	Y+16, r24	; 0x10

00005a44 <.LM341>:
    5a44:	88 89       	ldd	r24, Y+16	; 0x10
    5a46:	99 89       	ldd	r25, Y+17	; 0x11

00005a48 <.L1^B31>:
    5a48:	01 97       	sbiw	r24, 0x01	; 1
    5a4a:	f1 f7       	brne	.-4      	; 0x5a48 <.L1^B31>
    5a4c:	99 8b       	std	Y+17, r25	; 0x11
    5a4e:	88 8b       	std	Y+16, r24	; 0x10

00005a50 <.LM342>:
	...

00005a52 <.LM343>:
    5a52:	8e 85       	ldd	r24, Y+14	; 0x0e
    5a54:	9f 85       	ldd	r25, Y+15	; 0x0f
    5a56:	01 97       	sbiw	r24, 0x01	; 1
    5a58:	9f 87       	std	Y+15, r25	; 0x0f
    5a5a:	8e 87       	std	Y+14, r24	; 0x0e

00005a5c <.L213>:
    5a5c:	8e 85       	ldd	r24, Y+14	; 0x0e
    5a5e:	9f 85       	ldd	r25, Y+15	; 0x0f
    5a60:	00 97       	sbiw	r24, 0x00	; 0
    5a62:	61 f7       	brne	.-40     	; 0x5a3c <.L214>

00005a64 <.LM345>:
    5a64:	19 c0       	rjmp	.+50     	; 0x5a98 <.L215>

00005a66 <.L220>:
    5a66:	6a 85       	ldd	r22, Y+10	; 0x0a
    5a68:	7b 85       	ldd	r23, Y+11	; 0x0b
    5a6a:	8c 85       	ldd	r24, Y+12	; 0x0c
    5a6c:	9d 85       	ldd	r25, Y+13	; 0x0d
    5a6e:	0e 94 b4 2f 	call	0x5f68	; 0x5f68 <__fixunssfsi>
    5a72:	68 a7       	std	Y+40, r22	; 0x28
    5a74:	79 a7       	std	Y+41, r23	; 0x29
    5a76:	8a a7       	std	Y+42, r24	; 0x2a
    5a78:	9b a7       	std	Y+43, r25	; 0x2b
    5a7a:	88 a5       	ldd	r24, Y+40	; 0x28
    5a7c:	99 a5       	ldd	r25, Y+41	; 0x29
    5a7e:	9f 87       	std	Y+15, r25	; 0x0f
    5a80:	8e 87       	std	Y+14, r24	; 0x0e

00005a82 <.L210>:
    5a82:	8e 85       	ldd	r24, Y+14	; 0x0e
    5a84:	9f 85       	ldd	r25, Y+15	; 0x0f
    5a86:	9b 8b       	std	Y+19, r25	; 0x13
    5a88:	8a 8b       	std	Y+18, r24	; 0x12

00005a8a <.LM347>:
    5a8a:	8a 89       	ldd	r24, Y+18	; 0x12
    5a8c:	9b 89       	ldd	r25, Y+19	; 0x13

00005a8e <.L1^B32>:
    5a8e:	01 97       	sbiw	r24, 0x01	; 1
    5a90:	f1 f7       	brne	.-4      	; 0x5a8e <.L1^B32>
    5a92:	9b 8b       	std	Y+19, r25	; 0x13
    5a94:	8a 8b       	std	Y+18, r24	; 0x12

00005a96 <.LM348>:
	...

00005a98 <.L215>:
    5a98:	81 e0       	ldi	r24, 0x01	; 1
    5a9a:	0e 94 66 15 	call	0x2acc	; 0x2acc <LCD_WriteCommand>

00005a9e <.LM350>:
    5a9e:	89 81       	ldd	r24, Y+1	; 0x01
    5aa0:	81 50       	subi	r24, 0x01	; 1
    5aa2:	89 83       	std	Y+1, r24	; 0x01

00005aa4 <.L205>:
    5aa4:	89 81       	ldd	r24, Y+1	; 0x01
    5aa6:	88 23       	and	r24, r24
    5aa8:	09 f0       	breq	.+2      	; 0x5aac <.LM352>

00005aaa <L0^A>:
    5aaa:	42 cf       	rjmp	.-380    	; 0x5930 <.L216>

00005aac <.LM352>:
    5aac:	80 e0       	ldi	r24, 0x00	; 0

00005aae <.L207>:
    5aae:	ab 96       	adiw	r28, 0x2b	; 43
    5ab0:	0f b6       	in	r0, 0x3f	; 63
    5ab2:	f8 94       	cli
    5ab4:	de bf       	out	0x3e, r29	; 62
    5ab6:	0f be       	out	0x3f, r0	; 63
    5ab8:	cd bf       	out	0x3d, r28	; 61
    5aba:	df 91       	pop	r29
    5abc:	cf 91       	pop	r28
    5abe:	08 95       	ret

00005ac0 <options>:
    5ac0:	cf 93       	push	r28
    5ac2:	df 93       	push	r29
    5ac4:	0f 92       	push	r0
    5ac6:	cd b7       	in	r28, 0x3d	; 61
    5ac8:	de b7       	in	r29, 0x3e	; 62

00005aca <.LM355>:
    5aca:	88 ee       	ldi	r24, 0xE8	; 232
    5acc:	90 e0       	ldi	r25, 0x00	; 0
    5ace:	0e 94 97 1b 	call	0x372e	; 0x372e <LCD_WriteString>

00005ad2 <.LM356>:
    5ad2:	60 e0       	ldi	r22, 0x00	; 0
    5ad4:	81 e0       	ldi	r24, 0x01	; 1
    5ad6:	0e 94 c2 1b 	call	0x3784	; 0x3784 <LCD_GoToXY>

00005ada <.LM357>:
    5ada:	87 ef       	ldi	r24, 0xF7	; 247
    5adc:	90 e0       	ldi	r25, 0x00	; 0
    5ade:	0e 94 97 1b 	call	0x372e	; 0x372e <LCD_WriteString>

00005ae2 <.LM358>:
    5ae2:	0e 94 ab 2d 	call	0x5b56	; 0x5b56 <getOption>
    5ae6:	89 83       	std	Y+1, r24	; 0x01

00005ae8 <.LM359>:
    5ae8:	81 e0       	ldi	r24, 0x01	; 1
    5aea:	0e 94 66 15 	call	0x2acc	; 0x2acc <LCD_WriteCommand>

00005aee <.LM360>:
    5aee:	89 81       	ldd	r24, Y+1	; 0x01
    5af0:	88 2f       	mov	r24, r24
    5af2:	90 e0       	ldi	r25, 0x00	; 0
    5af4:	84 30       	cpi	r24, 0x04	; 4
    5af6:	91 05       	cpc	r25, r1
    5af8:	a9 f0       	breq	.+42     	; 0x5b24 <.L222>
    5afa:	84 30       	cpi	r24, 0x04	; 4
    5afc:	91 05       	cpc	r25, r1
    5afe:	09 f0       	breq	.+2      	; 0x5b02 <L0^A+0x2>

00005b00 <L0^A>:
    5b00:	a4 f4       	brge	.+40     	; 0x5b2a <.L223>
    5b02:	83 30       	cpi	r24, 0x03	; 3
    5b04:	91 05       	cpc	r25, r1
    5b06:	d9 f0       	breq	.+54     	; 0x5b3e <.L228>
    5b08:	83 30       	cpi	r24, 0x03	; 3
    5b0a:	91 05       	cpc	r25, r1
    5b0c:	09 f0       	breq	.+2      	; 0x5b10 <L0^A+0x2>

00005b0e <L0^A>:
    5b0e:	6c f4       	brge	.+26     	; 0x5b2a <.L223>
    5b10:	81 30       	cpi	r24, 0x01	; 1
    5b12:	91 05       	cpc	r25, r1
    5b14:	21 f0       	breq	.+8      	; 0x5b1e <.L225>
    5b16:	82 30       	cpi	r24, 0x02	; 2
    5b18:	91 05       	cpc	r25, r1
    5b1a:	99 f0       	breq	.+38     	; 0x5b42 <.L229>
    5b1c:	06 c0       	rjmp	.+12     	; 0x5b2a <.L223>

00005b1e <.L225>:
    5b1e:	0e 94 fc 2e 	call	0x5df8	; 0x5df8 <roomOptions>

00005b22 <.LM362>:
    5b22:	10 c0       	rjmp	.+32     	; 0x5b44 <.L227>

00005b24 <.L222>:
    5b24:	0e 94 d7 1d 	call	0x3bae	; 0x3bae <Login>

00005b28 <.LM364>:
    5b28:	0d c0       	rjmp	.+26     	; 0x5b44 <.L227>

00005b2a <.L223>:
    5b2a:	80 ed       	ldi	r24, 0xD0	; 208
    5b2c:	90 e0       	ldi	r25, 0x00	; 0
    5b2e:	0e 94 97 1b 	call	0x372e	; 0x372e <LCD_WriteString>

00005b32 <.LM366>:
    5b32:	81 e0       	ldi	r24, 0x01	; 1
    5b34:	0e 94 66 15 	call	0x2acc	; 0x2acc <LCD_WriteCommand>

00005b38 <.LM367>:
    5b38:	0e 94 60 2d 	call	0x5ac0	; 0x5ac0 <options>
    5b3c:	03 c0       	rjmp	.+6      	; 0x5b44 <.L227>

00005b3e <.L228>:
    5b3e:	00 00       	nop
    5b40:	01 c0       	rjmp	.+2      	; 0x5b44 <.L227>

00005b42 <.L229>:
	...

00005b44 <.L227>:
    5b44:	60 e0       	ldi	r22, 0x00	; 0
    5b46:	80 e0       	ldi	r24, 0x00	; 0
    5b48:	0e 94 c2 1b 	call	0x3784	; 0x3784 <LCD_GoToXY>

00005b4c <.LM371>:
    5b4c:	00 00       	nop
    5b4e:	0f 90       	pop	r0
    5b50:	df 91       	pop	r29
    5b52:	cf 91       	pop	r28
    5b54:	08 95       	ret

00005b56 <getOption>:
    5b56:	cf 93       	push	r28
    5b58:	df 93       	push	r29
    5b5a:	0f 92       	push	r0
    5b5c:	cd b7       	in	r28, 0x3d	; 61
    5b5e:	de b7       	in	r29, 0x3e	; 62

00005b60 <.L231>:
    5b60:	0e 94 ea 1c 	call	0x39d4	; 0x39d4 <KPD_GetPressedKey>
    5b64:	89 83       	std	Y+1, r24	; 0x01

00005b66 <.LM374>:
    5b66:	89 81       	ldd	r24, Y+1	; 0x01
    5b68:	8f 3f       	cpi	r24, 0xFF	; 255
    5b6a:	d1 f3       	breq	.-12     	; 0x5b60 <.L231>

00005b6c <.LM375>:
	...

00005b6e <.LM376>:
    5b6e:	89 81       	ldd	r24, Y+1	; 0x01

00005b70 <.LM377>:
    5b70:	0f 90       	pop	r0
    5b72:	df 91       	pop	r29
    5b74:	cf 91       	pop	r28
    5b76:	08 95       	ret

00005b78 <getPass>:
    5b78:	cf 93       	push	r28
    5b7a:	df 93       	push	r29
    5b7c:	cd b7       	in	r28, 0x3d	; 61
    5b7e:	de b7       	in	r29, 0x3e	; 62
    5b80:	ab 97       	sbiw	r28, 0x2b	; 43
    5b82:	0f b6       	in	r0, 0x3f	; 63
    5b84:	f8 94       	cli
    5b86:	de bf       	out	0x3e, r29	; 62
    5b88:	0f be       	out	0x3f, r0	; 63
    5b8a:	cd bf       	out	0x3d, r28	; 61

00005b8c <.LM379>:
    5b8c:	19 82       	std	Y+1, r1	; 0x01
    5b8e:	1a 82       	std	Y+2, r1	; 0x02
    5b90:	1b 82       	std	Y+3, r1	; 0x03
    5b92:	1c 82       	std	Y+4, r1	; 0x04

00005b94 <.LM380>:
    5b94:	84 e0       	ldi	r24, 0x04	; 4
    5b96:	8d 83       	std	Y+5, r24	; 0x05

00005b98 <.LM381>:
    5b98:	86 e0       	ldi	r24, 0x06	; 6
    5b9a:	91 e0       	ldi	r25, 0x01	; 1
    5b9c:	0e 94 97 1b 	call	0x372e	; 0x372e <LCD_WriteString>

00005ba0 <.LM382>:
    5ba0:	be c0       	rjmp	.+380    	; 0x5d1e <.L234>

00005ba2 <.L243>:
    5ba2:	49 81       	ldd	r20, Y+1	; 0x01
    5ba4:	5a 81       	ldd	r21, Y+2	; 0x02
    5ba6:	6b 81       	ldd	r22, Y+3	; 0x03
    5ba8:	7c 81       	ldd	r23, Y+4	; 0x04
    5baa:	db 01       	movw	r26, r22
    5bac:	ca 01       	movw	r24, r20
    5bae:	88 0f       	add	r24, r24
    5bb0:	99 1f       	adc	r25, r25
    5bb2:	aa 1f       	adc	r26, r26
    5bb4:	bb 1f       	adc	r27, r27
    5bb6:	88 0f       	add	r24, r24
    5bb8:	99 1f       	adc	r25, r25
    5bba:	aa 1f       	adc	r26, r26
    5bbc:	bb 1f       	adc	r27, r27
    5bbe:	84 0f       	add	r24, r20
    5bc0:	95 1f       	adc	r25, r21
    5bc2:	a6 1f       	adc	r26, r22
    5bc4:	b7 1f       	adc	r27, r23
    5bc6:	88 0f       	add	r24, r24
    5bc8:	99 1f       	adc	r25, r25
    5bca:	aa 1f       	adc	r26, r26
    5bcc:	bb 1f       	adc	r27, r27
    5bce:	89 83       	std	Y+1, r24	; 0x01
    5bd0:	9a 83       	std	Y+2, r25	; 0x02
    5bd2:	ab 83       	std	Y+3, r26	; 0x03
    5bd4:	bc 83       	std	Y+4, r27	; 0x04

00005bd6 <.LM384>:
    5bd6:	0e 94 ab 2d 	call	0x5b56	; 0x5b56 <getOption>
    5bda:	88 2f       	mov	r24, r24
    5bdc:	90 e0       	ldi	r25, 0x00	; 0
    5bde:	a0 e0       	ldi	r26, 0x00	; 0
    5be0:	b0 e0       	ldi	r27, 0x00	; 0

00005be2 <.LM385>:
    5be2:	49 81       	ldd	r20, Y+1	; 0x01
    5be4:	5a 81       	ldd	r21, Y+2	; 0x02
    5be6:	6b 81       	ldd	r22, Y+3	; 0x03
    5be8:	7c 81       	ldd	r23, Y+4	; 0x04
    5bea:	84 0f       	add	r24, r20
    5bec:	95 1f       	adc	r25, r21
    5bee:	a6 1f       	adc	r26, r22
    5bf0:	b7 1f       	adc	r27, r23
    5bf2:	89 83       	std	Y+1, r24	; 0x01
    5bf4:	9a 83       	std	Y+2, r25	; 0x02
    5bf6:	ab 83       	std	Y+3, r26	; 0x03
    5bf8:	bc 83       	std	Y+4, r27	; 0x04

00005bfa <.LM386>:
    5bfa:	8a e2       	ldi	r24, 0x2A	; 42
    5bfc:	0e 94 81 18 	call	0x3102	; 0x3102 <LCD_WriteData>
    5c00:	80 e0       	ldi	r24, 0x00	; 0
    5c02:	90 e0       	ldi	r25, 0x00	; 0
    5c04:	a8 e4       	ldi	r26, 0x48	; 72
    5c06:	b2 e4       	ldi	r27, 0x42	; 66
    5c08:	8e 83       	std	Y+6, r24	; 0x06
    5c0a:	9f 83       	std	Y+7, r25	; 0x07
    5c0c:	a8 87       	std	Y+8, r26	; 0x08
    5c0e:	b9 87       	std	Y+9, r27	; 0x09

00005c10 <.LM387>:
    5c10:	20 e0       	ldi	r18, 0x00	; 0
    5c12:	30 e0       	ldi	r19, 0x00	; 0
    5c14:	4a ef       	ldi	r20, 0xFA	; 250
    5c16:	54 e4       	ldi	r21, 0x44	; 68
    5c18:	6e 81       	ldd	r22, Y+6	; 0x06
    5c1a:	7f 81       	ldd	r23, Y+7	; 0x07
    5c1c:	88 85       	ldd	r24, Y+8	; 0x08
    5c1e:	99 85       	ldd	r25, Y+9	; 0x09
    5c20:	0e 94 35 30 	call	0x606a	; 0x606a <__mulsf3>
    5c24:	6c 8f       	std	Y+28, r22	; 0x1c
    5c26:	7d 8f       	std	Y+29, r23	; 0x1d
    5c28:	8e 8f       	std	Y+30, r24	; 0x1e
    5c2a:	9f 8f       	std	Y+31, r25	; 0x1f
    5c2c:	8c 8d       	ldd	r24, Y+28	; 0x1c
    5c2e:	9d 8d       	ldd	r25, Y+29	; 0x1d
    5c30:	ae 8d       	ldd	r26, Y+30	; 0x1e
    5c32:	bf 8d       	ldd	r27, Y+31	; 0x1f
    5c34:	8a 87       	std	Y+10, r24	; 0x0a
    5c36:	9b 87       	std	Y+11, r25	; 0x0b
    5c38:	ac 87       	std	Y+12, r26	; 0x0c
    5c3a:	bd 87       	std	Y+13, r27	; 0x0d

00005c3c <.LM388>:
    5c3c:	20 e0       	ldi	r18, 0x00	; 0
    5c3e:	30 e0       	ldi	r19, 0x00	; 0
    5c40:	40 e8       	ldi	r20, 0x80	; 128
    5c42:	5f e3       	ldi	r21, 0x3F	; 63
    5c44:	6a 85       	ldd	r22, Y+10	; 0x0a
    5c46:	7b 85       	ldd	r23, Y+11	; 0x0b
    5c48:	8c 85       	ldd	r24, Y+12	; 0x0c
    5c4a:	9d 85       	ldd	r25, Y+13	; 0x0d
    5c4c:	0e 94 af 2f 	call	0x5f5e	; 0x5f5e <__cmpsf2>
    5c50:	88 23       	and	r24, r24
    5c52:	2c f4       	brge	.+10     	; 0x5c5e <.L247>

00005c54 <.LM389>:
    5c54:	81 e0       	ldi	r24, 0x01	; 1
    5c56:	90 e0       	ldi	r25, 0x00	; 0
    5c58:	9f 87       	std	Y+15, r25	; 0x0f
    5c5a:	8e 87       	std	Y+14, r24	; 0x0e
    5c5c:	55 c0       	rjmp	.+170    	; 0x5d08 <.L237>

00005c5e <.L247>:
    5c5e:	20 e0       	ldi	r18, 0x00	; 0
    5c60:	3f ef       	ldi	r19, 0xFF	; 255
    5c62:	4f e7       	ldi	r20, 0x7F	; 127
    5c64:	57 e4       	ldi	r21, 0x47	; 71
    5c66:	6a 85       	ldd	r22, Y+10	; 0x0a
    5c68:	7b 85       	ldd	r23, Y+11	; 0x0b
    5c6a:	8c 85       	ldd	r24, Y+12	; 0x0c
    5c6c:	9d 85       	ldd	r25, Y+13	; 0x0d
    5c6e:	0e 94 30 30 	call	0x6060	; 0x6060 <__gesf2>
    5c72:	88 23       	and	r24, r24
    5c74:	d9 f1       	breq	.+118    	; 0x5cec <.L248>
    5c76:	d4 f1       	brlt	.+116    	; 0x5cec <.L248>

00005c78 <.LM391>:
    5c78:	20 e0       	ldi	r18, 0x00	; 0
    5c7a:	30 e0       	ldi	r19, 0x00	; 0
    5c7c:	40 e2       	ldi	r20, 0x20	; 32
    5c7e:	51 e4       	ldi	r21, 0x41	; 65
    5c80:	6e 81       	ldd	r22, Y+6	; 0x06
    5c82:	7f 81       	ldd	r23, Y+7	; 0x07
    5c84:	88 85       	ldd	r24, Y+8	; 0x08
    5c86:	99 85       	ldd	r25, Y+9	; 0x09
    5c88:	0e 94 35 30 	call	0x606a	; 0x606a <__mulsf3>
    5c8c:	68 a3       	std	Y+32, r22	; 0x20
    5c8e:	79 a3       	std	Y+33, r23	; 0x21
    5c90:	8a a3       	std	Y+34, r24	; 0x22
    5c92:	9b a3       	std	Y+35, r25	; 0x23
    5c94:	88 a1       	ldd	r24, Y+32	; 0x20
    5c96:	99 a1       	ldd	r25, Y+33	; 0x21
    5c98:	aa a1       	ldd	r26, Y+34	; 0x22
    5c9a:	bb a1       	ldd	r27, Y+35	; 0x23
    5c9c:	8c 8b       	std	Y+20, r24	; 0x14
    5c9e:	9d 8b       	std	Y+21, r25	; 0x15
    5ca0:	ae 8b       	std	Y+22, r26	; 0x16
    5ca2:	bf 8b       	std	Y+23, r27	; 0x17

00005ca4 <.LM392>:
    5ca4:	6c 89       	ldd	r22, Y+20	; 0x14
    5ca6:	7d 89       	ldd	r23, Y+21	; 0x15
    5ca8:	8e 89       	ldd	r24, Y+22	; 0x16
    5caa:	9f 89       	ldd	r25, Y+23	; 0x17
    5cac:	0e 94 b4 2f 	call	0x5f68	; 0x5f68 <__fixunssfsi>
    5cb0:	6c a3       	std	Y+36, r22	; 0x24
    5cb2:	7d a3       	std	Y+37, r23	; 0x25
    5cb4:	8e a3       	std	Y+38, r24	; 0x26
    5cb6:	9f a3       	std	Y+39, r25	; 0x27
    5cb8:	ac a1       	ldd	r26, Y+36	; 0x24
    5cba:	bd a1       	ldd	r27, Y+37	; 0x25
    5cbc:	bf 87       	std	Y+15, r27	; 0x0f
    5cbe:	ae 87       	std	Y+14, r26	; 0x0e

00005cc0 <.LM393>:
    5cc0:	10 c0       	rjmp	.+32     	; 0x5ce2 <.L240>

00005cc2 <.L241>:
    5cc2:	88 ec       	ldi	r24, 0xC8	; 200
    5cc4:	90 e0       	ldi	r25, 0x00	; 0
    5cc6:	99 8b       	std	Y+17, r25	; 0x11
    5cc8:	88 8b       	std	Y+16, r24	; 0x10

00005cca <.LM394>:
    5cca:	88 89       	ldd	r24, Y+16	; 0x10
    5ccc:	99 89       	ldd	r25, Y+17	; 0x11

00005cce <.L1^B33>:
    5cce:	01 97       	sbiw	r24, 0x01	; 1
    5cd0:	f1 f7       	brne	.-4      	; 0x5cce <.L1^B33>
    5cd2:	99 8b       	std	Y+17, r25	; 0x11
    5cd4:	88 8b       	std	Y+16, r24	; 0x10

00005cd6 <.LM395>:
	...

00005cd8 <.LM396>:
    5cd8:	8e 85       	ldd	r24, Y+14	; 0x0e
    5cda:	9f 85       	ldd	r25, Y+15	; 0x0f
    5cdc:	01 97       	sbiw	r24, 0x01	; 1
    5cde:	9f 87       	std	Y+15, r25	; 0x0f
    5ce0:	8e 87       	std	Y+14, r24	; 0x0e

00005ce2 <.L240>:
    5ce2:	8e 85       	ldd	r24, Y+14	; 0x0e
    5ce4:	9f 85       	ldd	r25, Y+15	; 0x0f
    5ce6:	00 97       	sbiw	r24, 0x00	; 0
    5ce8:	61 f7       	brne	.-40     	; 0x5cc2 <.L241>

00005cea <.LM398>:
    5cea:	19 c0       	rjmp	.+50     	; 0x5d1e <.L234>

00005cec <.L248>:
    5cec:	6a 85       	ldd	r22, Y+10	; 0x0a
    5cee:	7b 85       	ldd	r23, Y+11	; 0x0b
    5cf0:	8c 85       	ldd	r24, Y+12	; 0x0c
    5cf2:	9d 85       	ldd	r25, Y+13	; 0x0d
    5cf4:	0e 94 b4 2f 	call	0x5f68	; 0x5f68 <__fixunssfsi>
    5cf8:	68 a7       	std	Y+40, r22	; 0x28
    5cfa:	79 a7       	std	Y+41, r23	; 0x29
    5cfc:	8a a7       	std	Y+42, r24	; 0x2a
    5cfe:	9b a7       	std	Y+43, r25	; 0x2b
    5d00:	88 a5       	ldd	r24, Y+40	; 0x28
    5d02:	99 a5       	ldd	r25, Y+41	; 0x29
    5d04:	9f 87       	std	Y+15, r25	; 0x0f
    5d06:	8e 87       	std	Y+14, r24	; 0x0e

00005d08 <.L237>:
    5d08:	8e 85       	ldd	r24, Y+14	; 0x0e
    5d0a:	9f 85       	ldd	r25, Y+15	; 0x0f
    5d0c:	9b 8b       	std	Y+19, r25	; 0x13
    5d0e:	8a 8b       	std	Y+18, r24	; 0x12

00005d10 <.LM400>:
    5d10:	8a 89       	ldd	r24, Y+18	; 0x12
    5d12:	9b 89       	ldd	r25, Y+19	; 0x13

00005d14 <.L1^B34>:
    5d14:	01 97       	sbiw	r24, 0x01	; 1
    5d16:	f1 f7       	brne	.-4      	; 0x5d14 <.L1^B34>
    5d18:	9b 8b       	std	Y+19, r25	; 0x13
    5d1a:	8a 8b       	std	Y+18, r24	; 0x12

00005d1c <.LM401>:
	...

00005d1e <.L234>:
    5d1e:	8d 81       	ldd	r24, Y+5	; 0x05
    5d20:	9f ef       	ldi	r25, 0xFF	; 255
    5d22:	98 0f       	add	r25, r24
    5d24:	9d 83       	std	Y+5, r25	; 0x05

00005d26 <.LM403>:
    5d26:	88 23       	and	r24, r24
    5d28:	09 f0       	breq	.+2      	; 0x5d2c <.LM404>

00005d2a <L0^A>:
    5d2a:	3b cf       	rjmp	.-394    	; 0x5ba2 <.L243>

00005d2c <.LM404>:
    5d2c:	81 e0       	ldi	r24, 0x01	; 1
    5d2e:	0e 94 66 15 	call	0x2acc	; 0x2acc <LCD_WriteCommand>

00005d32 <.LM405>:
    5d32:	89 81       	ldd	r24, Y+1	; 0x01
    5d34:	9a 81       	ldd	r25, Y+2	; 0x02
    5d36:	ab 81       	ldd	r26, Y+3	; 0x03
    5d38:	bc 81       	ldd	r27, Y+4	; 0x04
    5d3a:	88 8f       	std	Y+24, r24	; 0x18
    5d3c:	99 8f       	std	Y+25, r25	; 0x19
    5d3e:	aa 8f       	std	Y+26, r26	; 0x1a
    5d40:	bb 8f       	std	Y+27, r27	; 0x1b

00005d42 <.LM406>:
    5d42:	68 8d       	ldd	r22, Y+24	; 0x18
    5d44:	79 8d       	ldd	r23, Y+25	; 0x19
    5d46:	8a 8d       	ldd	r24, Y+26	; 0x1a
    5d48:	9b 8d       	ldd	r25, Y+27	; 0x1b
    5d4a:	ab 96       	adiw	r28, 0x2b	; 43
    5d4c:	0f b6       	in	r0, 0x3f	; 63
    5d4e:	f8 94       	cli
    5d50:	de bf       	out	0x3e, r29	; 62
    5d52:	0f be       	out	0x3f, r0	; 63
    5d54:	cd bf       	out	0x3d, r28	; 61
    5d56:	df 91       	pop	r29
    5d58:	cf 91       	pop	r28
    5d5a:	08 95       	ret

00005d5c <room1On>:
    5d5c:	cf 93       	push	r28
    5d5e:	df 93       	push	r29
    5d60:	cd b7       	in	r28, 0x3d	; 61
    5d62:	de b7       	in	r29, 0x3e	; 62

00005d64 <.LM408>:
    5d64:	41 e0       	ldi	r20, 0x01	; 1
    5d66:	64 e0       	ldi	r22, 0x04	; 4
    5d68:	81 e0       	ldi	r24, 0x01	; 1
    5d6a:	0e 94 09 03 	call	0x612	; 0x612 <DIO_SetPinValue>

00005d6e <.LM409>:
    5d6e:	00 00       	nop
    5d70:	df 91       	pop	r29
    5d72:	cf 91       	pop	r28
    5d74:	08 95       	ret

00005d76 <room1Off>:
    5d76:	cf 93       	push	r28
    5d78:	df 93       	push	r29
    5d7a:	cd b7       	in	r28, 0x3d	; 61
    5d7c:	de b7       	in	r29, 0x3e	; 62

00005d7e <.LM411>:
    5d7e:	40 e0       	ldi	r20, 0x00	; 0
    5d80:	64 e0       	ldi	r22, 0x04	; 4
    5d82:	81 e0       	ldi	r24, 0x01	; 1
    5d84:	0e 94 09 03 	call	0x612	; 0x612 <DIO_SetPinValue>

00005d88 <.LM412>:
    5d88:	00 00       	nop
    5d8a:	df 91       	pop	r29
    5d8c:	cf 91       	pop	r28
    5d8e:	08 95       	ret

00005d90 <room2On>:
    5d90:	cf 93       	push	r28
    5d92:	df 93       	push	r29
    5d94:	cd b7       	in	r28, 0x3d	; 61
    5d96:	de b7       	in	r29, 0x3e	; 62

00005d98 <.LM414>:
    5d98:	41 e0       	ldi	r20, 0x01	; 1
    5d9a:	65 e0       	ldi	r22, 0x05	; 5
    5d9c:	81 e0       	ldi	r24, 0x01	; 1
    5d9e:	0e 94 09 03 	call	0x612	; 0x612 <DIO_SetPinValue>

00005da2 <.LM415>:
    5da2:	00 00       	nop
    5da4:	df 91       	pop	r29
    5da6:	cf 91       	pop	r28
    5da8:	08 95       	ret

00005daa <room2Off>:
    5daa:	cf 93       	push	r28
    5dac:	df 93       	push	r29
    5dae:	cd b7       	in	r28, 0x3d	; 61
    5db0:	de b7       	in	r29, 0x3e	; 62

00005db2 <.LM417>:
    5db2:	40 e0       	ldi	r20, 0x00	; 0
    5db4:	65 e0       	ldi	r22, 0x05	; 5
    5db6:	81 e0       	ldi	r24, 0x01	; 1
    5db8:	0e 94 09 03 	call	0x612	; 0x612 <DIO_SetPinValue>

00005dbc <.LM418>:
    5dbc:	00 00       	nop
    5dbe:	df 91       	pop	r29
    5dc0:	cf 91       	pop	r28
    5dc2:	08 95       	ret

00005dc4 <room3On>:
    5dc4:	cf 93       	push	r28
    5dc6:	df 93       	push	r29
    5dc8:	cd b7       	in	r28, 0x3d	; 61
    5dca:	de b7       	in	r29, 0x3e	; 62

00005dcc <.LM420>:
    5dcc:	41 e0       	ldi	r20, 0x01	; 1
    5dce:	66 e0       	ldi	r22, 0x06	; 6
    5dd0:	81 e0       	ldi	r24, 0x01	; 1
    5dd2:	0e 94 09 03 	call	0x612	; 0x612 <DIO_SetPinValue>

00005dd6 <.LM421>:
    5dd6:	00 00       	nop
    5dd8:	df 91       	pop	r29
    5dda:	cf 91       	pop	r28
    5ddc:	08 95       	ret

00005dde <room3Off>:
    5dde:	cf 93       	push	r28
    5de0:	df 93       	push	r29
    5de2:	cd b7       	in	r28, 0x3d	; 61
    5de4:	de b7       	in	r29, 0x3e	; 62

00005de6 <.LM423>:
    5de6:	40 e0       	ldi	r20, 0x00	; 0
    5de8:	66 e0       	ldi	r22, 0x06	; 6
    5dea:	81 e0       	ldi	r24, 0x01	; 1
    5dec:	0e 94 09 03 	call	0x612	; 0x612 <DIO_SetPinValue>

00005df0 <.LM424>:
    5df0:	00 00       	nop
    5df2:	df 91       	pop	r29
    5df4:	cf 91       	pop	r28
    5df6:	08 95       	ret

00005df8 <roomOptions>:
    5df8:	cf 93       	push	r28
    5dfa:	df 93       	push	r29
    5dfc:	00 d0       	rcall	.+0      	; 0x5dfe <L0^A>

00005dfe <L0^A>:
    5dfe:	00 d0       	rcall	.+0      	; 0x5e00 <L0^A>

00005e00 <L0^A>:
    5e00:	cd b7       	in	r28, 0x3d	; 61
    5e02:	de b7       	in	r29, 0x3e	; 62

00005e04 <.LM426>:
    5e04:	8e e0       	ldi	r24, 0x0E	; 14
    5e06:	91 e0       	ldi	r25, 0x01	; 1
    5e08:	0e 94 97 1b 	call	0x372e	; 0x372e <LCD_WriteString>

00005e0c <.LM427>:
    5e0c:	60 e0       	ldi	r22, 0x00	; 0
    5e0e:	81 e0       	ldi	r24, 0x01	; 1
    5e10:	0e 94 c2 1b 	call	0x3784	; 0x3784 <LCD_GoToXY>

00005e14 <.LM428>:
    5e14:	8f e1       	ldi	r24, 0x1F	; 31
    5e16:	91 e0       	ldi	r25, 0x01	; 1
    5e18:	0e 94 97 1b 	call	0x372e	; 0x372e <LCD_WriteString>

00005e1c <.LM429>:
    5e1c:	0e 94 ab 2d 	call	0x5b56	; 0x5b56 <getOption>
    5e20:	89 83       	std	Y+1, r24	; 0x01

00005e22 <.LM430>:
    5e22:	81 e0       	ldi	r24, 0x01	; 1
    5e24:	0e 94 66 15 	call	0x2acc	; 0x2acc <LCD_WriteCommand>

00005e28 <.LM431>:
    5e28:	89 e2       	ldi	r24, 0x29	; 41
    5e2a:	91 e0       	ldi	r25, 0x01	; 1
    5e2c:	0e 94 97 1b 	call	0x372e	; 0x372e <LCD_WriteString>

00005e30 <.LM432>:
    5e30:	89 81       	ldd	r24, Y+1	; 0x01
    5e32:	88 2f       	mov	r24, r24
    5e34:	90 e0       	ldi	r25, 0x00	; 0
    5e36:	83 30       	cpi	r24, 0x03	; 3
    5e38:	91 05       	cpc	r25, r1
    5e3a:	49 f1       	breq	.+82     	; 0x5e8e <.L256>
    5e3c:	83 30       	cpi	r24, 0x03	; 3
    5e3e:	91 05       	cpc	r25, r1
    5e40:	09 f0       	breq	.+2      	; 0x5e44 <L0^A+0x2>

00005e42 <L0^A>:
    5e42:	cc f5       	brge	.+114    	; 0x5eb6 <.L257>
    5e44:	81 30       	cpi	r24, 0x01	; 1
    5e46:	91 05       	cpc	r25, r1
    5e48:	21 f0       	breq	.+8      	; 0x5e52 <.L258>
    5e4a:	82 30       	cpi	r24, 0x02	; 2
    5e4c:	91 05       	cpc	r25, r1
    5e4e:	81 f0       	breq	.+32     	; 0x5e70 <.L259>
    5e50:	32 c0       	rjmp	.+100    	; 0x5eb6 <.L257>

00005e52 <.L258>:
    5e52:	0e 94 ab 2d 	call	0x5b56	; 0x5b56 <getOption>
    5e56:	8c 83       	std	Y+4, r24	; 0x04

00005e58 <.LM434>:
    5e58:	8c 81       	ldd	r24, Y+4	; 0x04
    5e5a:	81 30       	cpi	r24, 0x01	; 1
    5e5c:	19 f4       	brne	.+6      	; 0x5e64 <.L260>

00005e5e <.LM435>:
    5e5e:	0e 94 ae 2e 	call	0x5d5c	; 0x5d5c <room1On>

00005e62 <.LM436>:
    5e62:	24 c0       	rjmp	.+72     	; 0x5eac <.L266>

00005e64 <.L260>:
    5e64:	8c 81       	ldd	r24, Y+4	; 0x04
    5e66:	82 30       	cpi	r24, 0x02	; 2
    5e68:	09 f5       	brne	.+66     	; 0x5eac <.L266>

00005e6a <.LM438>:
    5e6a:	0e 94 bb 2e 	call	0x5d76	; 0x5d76 <room1Off>

00005e6e <.LM439>:
    5e6e:	1e c0       	rjmp	.+60     	; 0x5eac <.L266>

00005e70 <.L259>:
    5e70:	0e 94 ab 2d 	call	0x5b56	; 0x5b56 <getOption>
    5e74:	8b 83       	std	Y+3, r24	; 0x03

00005e76 <.LM441>:
    5e76:	8b 81       	ldd	r24, Y+3	; 0x03
    5e78:	81 30       	cpi	r24, 0x01	; 1
    5e7a:	19 f4       	brne	.+6      	; 0x5e82 <.L262>

00005e7c <.LM442>:
    5e7c:	0e 94 c8 2e 	call	0x5d90	; 0x5d90 <room2On>

00005e80 <.LM443>:
    5e80:	17 c0       	rjmp	.+46     	; 0x5eb0 <.L267>

00005e82 <.L262>:
    5e82:	8b 81       	ldd	r24, Y+3	; 0x03
    5e84:	82 30       	cpi	r24, 0x02	; 2
    5e86:	a1 f4       	brne	.+40     	; 0x5eb0 <.L267>

00005e88 <.LM445>:
    5e88:	0e 94 d5 2e 	call	0x5daa	; 0x5daa <room2Off>

00005e8c <.LM446>:
    5e8c:	11 c0       	rjmp	.+34     	; 0x5eb0 <.L267>

00005e8e <.L256>:
    5e8e:	0e 94 ab 2d 	call	0x5b56	; 0x5b56 <getOption>
    5e92:	8a 83       	std	Y+2, r24	; 0x02

00005e94 <.LM448>:
    5e94:	8a 81       	ldd	r24, Y+2	; 0x02
    5e96:	81 30       	cpi	r24, 0x01	; 1
    5e98:	19 f4       	brne	.+6      	; 0x5ea0 <.L264>

00005e9a <.LM449>:
    5e9a:	0e 94 e2 2e 	call	0x5dc4	; 0x5dc4 <room3On>

00005e9e <.LM450>:
    5e9e:	0a c0       	rjmp	.+20     	; 0x5eb4 <.L268>

00005ea0 <.L264>:
    5ea0:	8a 81       	ldd	r24, Y+2	; 0x02
    5ea2:	82 30       	cpi	r24, 0x02	; 2
    5ea4:	39 f4       	brne	.+14     	; 0x5eb4 <.L268>

00005ea6 <.LM452>:
    5ea6:	0e 94 ef 2e 	call	0x5dde	; 0x5dde <room3Off>

00005eaa <.LM453>:
    5eaa:	04 c0       	rjmp	.+8      	; 0x5eb4 <.L268>

00005eac <.L266>:
    5eac:	00 00       	nop
    5eae:	03 c0       	rjmp	.+6      	; 0x5eb6 <.L257>

00005eb0 <.L267>:
    5eb0:	00 00       	nop
    5eb2:	01 c0       	rjmp	.+2      	; 0x5eb6 <.L257>

00005eb4 <.L268>:
	...

00005eb6 <.L257>:
    5eb6:	81 e0       	ldi	r24, 0x01	; 1
    5eb8:	0e 94 66 15 	call	0x2acc	; 0x2acc <LCD_WriteCommand>

00005ebc <.LM458>:
    5ebc:	0e 94 60 2d 	call	0x5ac0	; 0x5ac0 <options>

00005ec0 <.LM459>:
    5ec0:	00 00       	nop
    5ec2:	0f 90       	pop	r0
    5ec4:	0f 90       	pop	r0
    5ec6:	0f 90       	pop	r0
    5ec8:	0f 90       	pop	r0
    5eca:	df 91       	pop	r29
    5ecc:	cf 91       	pop	r28
    5ece:	08 95       	ret

00005ed0 <__divmodsi4>:
    5ed0:	05 2e       	mov	r0, r21
    5ed2:	97 fb       	bst	r25, 7
    5ed4:	1e f4       	brtc	.+6      	; 0x5edc <__divmodsi4+0xc>
    5ed6:	00 94       	com	r0
    5ed8:	0e 94 7f 2f 	call	0x5efe	; 0x5efe <__negsi2>
    5edc:	57 fd       	sbrc	r21, 7
    5ede:	07 d0       	rcall	.+14     	; 0x5eee <__divmodsi4_neg2>
    5ee0:	0e 94 8d 2f 	call	0x5f1a	; 0x5f1a <__udivmodsi4>
    5ee4:	07 fc       	sbrc	r0, 7
    5ee6:	03 d0       	rcall	.+6      	; 0x5eee <__divmodsi4_neg2>
    5ee8:	4e f4       	brtc	.+18     	; 0x5efc <__divmodsi4_exit>
    5eea:	0c 94 7f 2f 	jmp	0x5efe	; 0x5efe <__negsi2>

00005eee <__divmodsi4_neg2>:
    5eee:	50 95       	com	r21
    5ef0:	40 95       	com	r20
    5ef2:	30 95       	com	r19
    5ef4:	21 95       	neg	r18
    5ef6:	3f 4f       	sbci	r19, 0xFF	; 255
    5ef8:	4f 4f       	sbci	r20, 0xFF	; 255
    5efa:	5f 4f       	sbci	r21, 0xFF	; 255

00005efc <__divmodsi4_exit>:
    5efc:	08 95       	ret

00005efe <__negsi2>:
    5efe:	90 95       	com	r25
    5f00:	80 95       	com	r24
    5f02:	70 95       	com	r23
    5f04:	61 95       	neg	r22
    5f06:	7f 4f       	sbci	r23, 0xFF	; 255
    5f08:	8f 4f       	sbci	r24, 0xFF	; 255
    5f0a:	9f 4f       	sbci	r25, 0xFF	; 255
    5f0c:	08 95       	ret

00005f0e <__tablejump2__>:
    5f0e:	ee 0f       	add	r30, r30
    5f10:	ff 1f       	adc	r31, r31
    5f12:	05 90       	lpm	r0, Z+
    5f14:	f4 91       	lpm	r31, Z
    5f16:	e0 2d       	mov	r30, r0
    5f18:	09 94       	ijmp

00005f1a <__udivmodsi4>:
    5f1a:	a1 e2       	ldi	r26, 0x21	; 33
    5f1c:	1a 2e       	mov	r1, r26
    5f1e:	aa 1b       	sub	r26, r26
    5f20:	bb 1b       	sub	r27, r27
    5f22:	fd 01       	movw	r30, r26
    5f24:	0d c0       	rjmp	.+26     	; 0x5f40 <__udivmodsi4_ep>

00005f26 <__udivmodsi4_loop>:
    5f26:	aa 1f       	adc	r26, r26
    5f28:	bb 1f       	adc	r27, r27
    5f2a:	ee 1f       	adc	r30, r30
    5f2c:	ff 1f       	adc	r31, r31
    5f2e:	a2 17       	cp	r26, r18
    5f30:	b3 07       	cpc	r27, r19
    5f32:	e4 07       	cpc	r30, r20
    5f34:	f5 07       	cpc	r31, r21
    5f36:	20 f0       	brcs	.+8      	; 0x5f40 <__udivmodsi4_ep>
    5f38:	a2 1b       	sub	r26, r18
    5f3a:	b3 0b       	sbc	r27, r19
    5f3c:	e4 0b       	sbc	r30, r20
    5f3e:	f5 0b       	sbc	r31, r21

00005f40 <__udivmodsi4_ep>:
    5f40:	66 1f       	adc	r22, r22
    5f42:	77 1f       	adc	r23, r23
    5f44:	88 1f       	adc	r24, r24
    5f46:	99 1f       	adc	r25, r25
    5f48:	1a 94       	dec	r1
    5f4a:	69 f7       	brne	.-38     	; 0x5f26 <__udivmodsi4_loop>
    5f4c:	60 95       	com	r22
    5f4e:	70 95       	com	r23
    5f50:	80 95       	com	r24
    5f52:	90 95       	com	r25
    5f54:	9b 01       	movw	r18, r22
    5f56:	ac 01       	movw	r20, r24
    5f58:	bd 01       	movw	r22, r26
    5f5a:	cf 01       	movw	r24, r30
    5f5c:	08 95       	ret

00005f5e <__cmpsf2>:
    5f5e:	0e 94 e3 2f 	call	0x5fc6	; 0x5fc6 <__fp_cmp>
    5f62:	08 f4       	brcc	.+2      	; 0x5f66 <__cmpsf2+0x8>
    5f64:	81 e0       	ldi	r24, 0x01	; 1
    5f66:	08 95       	ret

00005f68 <__fixunssfsi>:
    5f68:	0e 94 0f 30 	call	0x601e	; 0x601e <__fp_splitA>
    5f6c:	88 f0       	brcs	.+34     	; 0x5f90 <__fixunssfsi+0x28>
    5f6e:	9f 57       	subi	r25, 0x7F	; 127
    5f70:	98 f0       	brcs	.+38     	; 0x5f98 <__fixunssfsi+0x30>
    5f72:	b9 2f       	mov	r27, r25
    5f74:	99 27       	eor	r25, r25
    5f76:	b7 51       	subi	r27, 0x17	; 23
    5f78:	b0 f0       	brcs	.+44     	; 0x5fa6 <__fixunssfsi+0x3e>
    5f7a:	e1 f0       	breq	.+56     	; 0x5fb4 <__fixunssfsi+0x4c>
    5f7c:	66 0f       	add	r22, r22
    5f7e:	77 1f       	adc	r23, r23
    5f80:	88 1f       	adc	r24, r24
    5f82:	99 1f       	adc	r25, r25
    5f84:	1a f0       	brmi	.+6      	; 0x5f8c <__fixunssfsi+0x24>
    5f86:	ba 95       	dec	r27
    5f88:	c9 f7       	brne	.-14     	; 0x5f7c <__fixunssfsi+0x14>
    5f8a:	14 c0       	rjmp	.+40     	; 0x5fb4 <__fixunssfsi+0x4c>
    5f8c:	b1 30       	cpi	r27, 0x01	; 1
    5f8e:	91 f0       	breq	.+36     	; 0x5fb4 <__fixunssfsi+0x4c>
    5f90:	0e 94 29 30 	call	0x6052	; 0x6052 <__fp_zero>
    5f94:	b1 e0       	ldi	r27, 0x01	; 1
    5f96:	08 95       	ret
    5f98:	0c 94 29 30 	jmp	0x6052	; 0x6052 <__fp_zero>
    5f9c:	67 2f       	mov	r22, r23
    5f9e:	78 2f       	mov	r23, r24
    5fa0:	88 27       	eor	r24, r24
    5fa2:	b8 5f       	subi	r27, 0xF8	; 248
    5fa4:	39 f0       	breq	.+14     	; 0x5fb4 <__fixunssfsi+0x4c>
    5fa6:	b9 3f       	cpi	r27, 0xF9	; 249
    5fa8:	cc f3       	brlt	.-14     	; 0x5f9c <__fixunssfsi+0x34>
    5faa:	86 95       	lsr	r24
    5fac:	77 95       	ror	r23
    5fae:	67 95       	ror	r22
    5fb0:	b3 95       	inc	r27
    5fb2:	d9 f7       	brne	.-10     	; 0x5faa <__fixunssfsi+0x42>
    5fb4:	3e f4       	brtc	.+14     	; 0x5fc4 <__fixunssfsi+0x5c>
    5fb6:	90 95       	com	r25
    5fb8:	80 95       	com	r24
    5fba:	70 95       	com	r23
    5fbc:	61 95       	neg	r22
    5fbe:	7f 4f       	sbci	r23, 0xFF	; 255
    5fc0:	8f 4f       	sbci	r24, 0xFF	; 255
    5fc2:	9f 4f       	sbci	r25, 0xFF	; 255
    5fc4:	08 95       	ret

00005fc6 <__fp_cmp>:
    5fc6:	99 0f       	add	r25, r25
    5fc8:	00 08       	sbc	r0, r0
    5fca:	55 0f       	add	r21, r21
    5fcc:	aa 0b       	sbc	r26, r26
    5fce:	e0 e8       	ldi	r30, 0x80	; 128
    5fd0:	fe ef       	ldi	r31, 0xFE	; 254
    5fd2:	16 16       	cp	r1, r22
    5fd4:	17 06       	cpc	r1, r23
    5fd6:	e8 07       	cpc	r30, r24
    5fd8:	f9 07       	cpc	r31, r25
    5fda:	c0 f0       	brcs	.+48     	; 0x600c <__fp_cmp+0x46>
    5fdc:	12 16       	cp	r1, r18
    5fde:	13 06       	cpc	r1, r19
    5fe0:	e4 07       	cpc	r30, r20
    5fe2:	f5 07       	cpc	r31, r21
    5fe4:	98 f0       	brcs	.+38     	; 0x600c <__fp_cmp+0x46>
    5fe6:	62 1b       	sub	r22, r18
    5fe8:	73 0b       	sbc	r23, r19
    5fea:	84 0b       	sbc	r24, r20
    5fec:	95 0b       	sbc	r25, r21
    5fee:	39 f4       	brne	.+14     	; 0x5ffe <__fp_cmp+0x38>
    5ff0:	0a 26       	eor	r0, r26
    5ff2:	61 f0       	breq	.+24     	; 0x600c <__fp_cmp+0x46>
    5ff4:	23 2b       	or	r18, r19
    5ff6:	24 2b       	or	r18, r20
    5ff8:	25 2b       	or	r18, r21
    5ffa:	21 f4       	brne	.+8      	; 0x6004 <__fp_cmp+0x3e>
    5ffc:	08 95       	ret
    5ffe:	0a 26       	eor	r0, r26
    6000:	09 f4       	brne	.+2      	; 0x6004 <__fp_cmp+0x3e>
    6002:	a1 40       	sbci	r26, 0x01	; 1
    6004:	a6 95       	lsr	r26
    6006:	8f ef       	ldi	r24, 0xFF	; 255
    6008:	81 1d       	adc	r24, r1
    600a:	81 1d       	adc	r24, r1
    600c:	08 95       	ret

0000600e <__fp_split3>:
    600e:	57 fd       	sbrc	r21, 7
    6010:	90 58       	subi	r25, 0x80	; 128
    6012:	44 0f       	add	r20, r20
    6014:	55 1f       	adc	r21, r21
    6016:	59 f0       	breq	.+22     	; 0x602e <__fp_splitA+0x10>
    6018:	5f 3f       	cpi	r21, 0xFF	; 255
    601a:	71 f0       	breq	.+28     	; 0x6038 <__fp_splitA+0x1a>
    601c:	47 95       	ror	r20

0000601e <__fp_splitA>:
    601e:	88 0f       	add	r24, r24
    6020:	97 fb       	bst	r25, 7
    6022:	99 1f       	adc	r25, r25
    6024:	61 f0       	breq	.+24     	; 0x603e <__fp_splitA+0x20>
    6026:	9f 3f       	cpi	r25, 0xFF	; 255
    6028:	79 f0       	breq	.+30     	; 0x6048 <__fp_splitA+0x2a>
    602a:	87 95       	ror	r24
    602c:	08 95       	ret
    602e:	12 16       	cp	r1, r18
    6030:	13 06       	cpc	r1, r19
    6032:	14 06       	cpc	r1, r20
    6034:	55 1f       	adc	r21, r21
    6036:	f2 cf       	rjmp	.-28     	; 0x601c <__fp_split3+0xe>
    6038:	46 95       	lsr	r20
    603a:	f1 df       	rcall	.-30     	; 0x601e <__fp_splitA>
    603c:	08 c0       	rjmp	.+16     	; 0x604e <__fp_splitA+0x30>
    603e:	16 16       	cp	r1, r22
    6040:	17 06       	cpc	r1, r23
    6042:	18 06       	cpc	r1, r24
    6044:	99 1f       	adc	r25, r25
    6046:	f1 cf       	rjmp	.-30     	; 0x602a <__fp_splitA+0xc>
    6048:	86 95       	lsr	r24
    604a:	71 05       	cpc	r23, r1
    604c:	61 05       	cpc	r22, r1
    604e:	08 94       	sec
    6050:	08 95       	ret

00006052 <__fp_zero>:
    6052:	e8 94       	clt

00006054 <__fp_szero>:
    6054:	bb 27       	eor	r27, r27
    6056:	66 27       	eor	r22, r22
    6058:	77 27       	eor	r23, r23
    605a:	cb 01       	movw	r24, r22
    605c:	97 f9       	bld	r25, 7
    605e:	08 95       	ret

00006060 <__gesf2>:
    6060:	0e 94 e3 2f 	call	0x5fc6	; 0x5fc6 <__fp_cmp>
    6064:	08 f4       	brcc	.+2      	; 0x6068 <__gesf2+0x8>
    6066:	8f ef       	ldi	r24, 0xFF	; 255
    6068:	08 95       	ret

0000606a <__mulsf3>:
    606a:	0e 94 48 30 	call	0x6090	; 0x6090 <__mulsf3x>
    606e:	0c 94 b9 30 	jmp	0x6172	; 0x6172 <__fp_round>
    6072:	0e 94 ab 30 	call	0x6156	; 0x6156 <__fp_pscA>
    6076:	38 f0       	brcs	.+14     	; 0x6086 <__mulsf3+0x1c>
    6078:	0e 94 b2 30 	call	0x6164	; 0x6164 <__fp_pscB>
    607c:	20 f0       	brcs	.+8      	; 0x6086 <__mulsf3+0x1c>
    607e:	95 23       	and	r25, r21
    6080:	11 f0       	breq	.+4      	; 0x6086 <__mulsf3+0x1c>
    6082:	0c 94 a2 30 	jmp	0x6144	; 0x6144 <__fp_inf>
    6086:	0c 94 a8 30 	jmp	0x6150	; 0x6150 <__fp_nan>
    608a:	11 24       	eor	r1, r1
    608c:	0c 94 2a 30 	jmp	0x6054	; 0x6054 <__fp_szero>

00006090 <__mulsf3x>:
    6090:	0e 94 07 30 	call	0x600e	; 0x600e <__fp_split3>
    6094:	70 f3       	brcs	.-36     	; 0x6072 <__mulsf3+0x8>

00006096 <__mulsf3_pse>:
    6096:	95 9f       	mul	r25, r21
    6098:	c1 f3       	breq	.-16     	; 0x608a <__mulsf3+0x20>
    609a:	95 0f       	add	r25, r21
    609c:	50 e0       	ldi	r21, 0x00	; 0
    609e:	55 1f       	adc	r21, r21
    60a0:	62 9f       	mul	r22, r18
    60a2:	f0 01       	movw	r30, r0
    60a4:	72 9f       	mul	r23, r18
    60a6:	bb 27       	eor	r27, r27
    60a8:	f0 0d       	add	r31, r0
    60aa:	b1 1d       	adc	r27, r1
    60ac:	63 9f       	mul	r22, r19
    60ae:	aa 27       	eor	r26, r26
    60b0:	f0 0d       	add	r31, r0
    60b2:	b1 1d       	adc	r27, r1
    60b4:	aa 1f       	adc	r26, r26
    60b6:	64 9f       	mul	r22, r20
    60b8:	66 27       	eor	r22, r22
    60ba:	b0 0d       	add	r27, r0
    60bc:	a1 1d       	adc	r26, r1
    60be:	66 1f       	adc	r22, r22
    60c0:	82 9f       	mul	r24, r18
    60c2:	22 27       	eor	r18, r18
    60c4:	b0 0d       	add	r27, r0
    60c6:	a1 1d       	adc	r26, r1
    60c8:	62 1f       	adc	r22, r18
    60ca:	73 9f       	mul	r23, r19
    60cc:	b0 0d       	add	r27, r0
    60ce:	a1 1d       	adc	r26, r1
    60d0:	62 1f       	adc	r22, r18
    60d2:	83 9f       	mul	r24, r19
    60d4:	a0 0d       	add	r26, r0
    60d6:	61 1d       	adc	r22, r1
    60d8:	22 1f       	adc	r18, r18
    60da:	74 9f       	mul	r23, r20
    60dc:	33 27       	eor	r19, r19
    60de:	a0 0d       	add	r26, r0
    60e0:	61 1d       	adc	r22, r1
    60e2:	23 1f       	adc	r18, r19
    60e4:	84 9f       	mul	r24, r20
    60e6:	60 0d       	add	r22, r0
    60e8:	21 1d       	adc	r18, r1
    60ea:	82 2f       	mov	r24, r18
    60ec:	76 2f       	mov	r23, r22
    60ee:	6a 2f       	mov	r22, r26
    60f0:	11 24       	eor	r1, r1
    60f2:	9f 57       	subi	r25, 0x7F	; 127
    60f4:	50 40       	sbci	r21, 0x00	; 0
    60f6:	9a f0       	brmi	.+38     	; 0x611e <__mulsf3_pse+0x88>
    60f8:	f1 f0       	breq	.+60     	; 0x6136 <__mulsf3_pse+0xa0>
    60fa:	88 23       	and	r24, r24
    60fc:	4a f0       	brmi	.+18     	; 0x6110 <__mulsf3_pse+0x7a>
    60fe:	ee 0f       	add	r30, r30
    6100:	ff 1f       	adc	r31, r31
    6102:	bb 1f       	adc	r27, r27
    6104:	66 1f       	adc	r22, r22
    6106:	77 1f       	adc	r23, r23
    6108:	88 1f       	adc	r24, r24
    610a:	91 50       	subi	r25, 0x01	; 1
    610c:	50 40       	sbci	r21, 0x00	; 0
    610e:	a9 f7       	brne	.-22     	; 0x60fa <__mulsf3_pse+0x64>
    6110:	9e 3f       	cpi	r25, 0xFE	; 254
    6112:	51 05       	cpc	r21, r1
    6114:	80 f0       	brcs	.+32     	; 0x6136 <__mulsf3_pse+0xa0>
    6116:	0c 94 a2 30 	jmp	0x6144	; 0x6144 <__fp_inf>
    611a:	0c 94 2a 30 	jmp	0x6054	; 0x6054 <__fp_szero>
    611e:	5f 3f       	cpi	r21, 0xFF	; 255
    6120:	e4 f3       	brlt	.-8      	; 0x611a <__mulsf3_pse+0x84>
    6122:	98 3e       	cpi	r25, 0xE8	; 232
    6124:	d4 f3       	brlt	.-12     	; 0x611a <__mulsf3_pse+0x84>
    6126:	86 95       	lsr	r24
    6128:	77 95       	ror	r23
    612a:	67 95       	ror	r22
    612c:	b7 95       	ror	r27
    612e:	f7 95       	ror	r31
    6130:	e7 95       	ror	r30
    6132:	9f 5f       	subi	r25, 0xFF	; 255
    6134:	c1 f7       	brne	.-16     	; 0x6126 <__mulsf3_pse+0x90>
    6136:	fe 2b       	or	r31, r30
    6138:	88 0f       	add	r24, r24
    613a:	91 1d       	adc	r25, r1
    613c:	96 95       	lsr	r25
    613e:	87 95       	ror	r24
    6140:	97 f9       	bld	r25, 7
    6142:	08 95       	ret

00006144 <__fp_inf>:
    6144:	97 f9       	bld	r25, 7
    6146:	9f 67       	ori	r25, 0x7F	; 127
    6148:	80 e8       	ldi	r24, 0x80	; 128
    614a:	70 e0       	ldi	r23, 0x00	; 0
    614c:	60 e0       	ldi	r22, 0x00	; 0
    614e:	08 95       	ret

00006150 <__fp_nan>:
    6150:	9f ef       	ldi	r25, 0xFF	; 255
    6152:	80 ec       	ldi	r24, 0xC0	; 192
    6154:	08 95       	ret

00006156 <__fp_pscA>:
    6156:	00 24       	eor	r0, r0
    6158:	0a 94       	dec	r0
    615a:	16 16       	cp	r1, r22
    615c:	17 06       	cpc	r1, r23
    615e:	18 06       	cpc	r1, r24
    6160:	09 06       	cpc	r0, r25
    6162:	08 95       	ret

00006164 <__fp_pscB>:
    6164:	00 24       	eor	r0, r0
    6166:	0a 94       	dec	r0
    6168:	12 16       	cp	r1, r18
    616a:	13 06       	cpc	r1, r19
    616c:	14 06       	cpc	r1, r20
    616e:	05 06       	cpc	r0, r21
    6170:	08 95       	ret

00006172 <__fp_round>:
    6172:	09 2e       	mov	r0, r25
    6174:	03 94       	inc	r0
    6176:	00 0c       	add	r0, r0
    6178:	11 f4       	brne	.+4      	; 0x617e <__fp_round+0xc>
    617a:	88 23       	and	r24, r24
    617c:	52 f0       	brmi	.+20     	; 0x6192 <__fp_round+0x20>
    617e:	bb 0f       	add	r27, r27
    6180:	40 f4       	brcc	.+16     	; 0x6192 <__fp_round+0x20>
    6182:	bf 2b       	or	r27, r31
    6184:	11 f4       	brne	.+4      	; 0x618a <__fp_round+0x18>
    6186:	60 ff       	sbrs	r22, 0
    6188:	04 c0       	rjmp	.+8      	; 0x6192 <__fp_round+0x20>
    618a:	6f 5f       	subi	r22, 0xFF	; 255
    618c:	7f 4f       	sbci	r23, 0xFF	; 255
    618e:	8f 4f       	sbci	r24, 0xFF	; 255
    6190:	9f 4f       	sbci	r25, 0xFF	; 255
    6192:	08 95       	ret

00006194 <_exit>:
    6194:	f8 94       	cli

00006196 <__stop_program>:
    6196:	ff cf       	rjmp	.-2      	; 0x6196 <__stop_program>

00006198 <.L73>:
    6198:	b8 09       	sbc	r27, r8
    619a:	53 0b       	sbc	r21, r19
    619c:	ed 0c       	add	r14, r13
    619e:	20 0c       	add	r2, r0
    61a0:	20 0f       	add	r18, r16
    61a2:	83 12       	cpse	r8, r19
    61a4:	ff 0d       	add	r31, r15
    61a6:	83 12       	cpse	r8, r19
    61a8:	62 11       	cpse	r22, r2
    61aa:	86 0a       	sbc	r8, r22
    61ac:	83 12       	cpse	r8, r19
    61ae:	83 12       	cpse	r8, r19
    61b0:	41 10       	cpse	r4, r1
